__GLOBAL__I_a
__ZN4llvm2cl6Option11addArgumentEv
__ZN4llvm21llvm_is_multithreadedEv
__ZNK4llvm17ManagedStaticBase21RegisterManagedStaticEPFPvvEPFvS1_E
__ZN4llvm14object_creatorISsEEPvv
__ZN4llvm3sys9MutexImplC2Eb
__ZN4llvm3sys15ThreadLocalImplC2Ev
__ZN4llvm15system_categoryEv
__ZN4llvm2cl6valuesIiEENS0_11ValuesClassIT_EEPKcS3_S6_z
__ZN4llvm2cl11ValuesClassIiEC2EPKciS4_P13__va_list_tag
__ZN4llvm15SmallVectorBase8grow_podEmm
__ZN4llvm2cl18MarkOptionsChangedEv
__ZN4llvm24PassRegistrationListenerC2Ev
__ZN4llvm12PassRegistry15getPassRegistryEv
__ZN4llvm14object_creatorINS_12PassRegistryEEEPvv
__ZN4llvm12PassRegistry23addRegistrationListenerEPNS_24PassRegistrationListenerE
__ZN4llvm14object_creatorINS_3sys10SmartMutexILb1EEEEEPvv
__ZNSt6vectorIPN4llvm24PassRegistrationListenerESaIS2_EE13_M_insert_auxEN9__gnu_cxx17__normal_iteratorIPS2_S4_EERKS2_
__ZN4llvm24PassRegistrationListener15enumeratePassesEv
__ZN4llvm12PassRegistry13enumerateWithEPNS_24PassRegistrationListenerE
__ZN4llvm19MachinePassRegistry3AddEPNS_23MachinePassRegistryNodeE
__ZN4llvm18RegisterPassParserINS_17RegisterSchedulerEE9NotifyAddEPKcPFPvvES4_
__ZN4llvm18RegisterPassParserINS_16RegisterRegAllocEE9NotifyAddEPKcPFPvvES4_
start
_main
__ZN4llvm3sys28PrintStackTraceOnErrorSignalEv
__ZNSt6vectorISt4pairIPFvPvES1_ESaIS4_EE13_M_insert_auxEN9__gnu_cxx17__normal_iteratorIPS4_S6_EERKS4_
__ZL16RegisterHandlersv
__ZN4llvm21PrettyStackTraceEntryC2Ev
__ZN4llvm3sys16AddSignalHandlerEPFvPvES1_
__ZN4llvm3sys15ThreadLocalImpl11getInstanceEv
__ZN4llvm3sys15ThreadLocalImpl11setInstanceEPKv
__ZNSt8_Rb_treeISsSsSt9_IdentityISsESt4lessISsESaISsEE16_M_insert_uniqueERKSs
__ZNSt8_Rb_treeISsSsSt9_IdentityISsESt4lessISsESaISsEE9_M_insertEPSt18_Rb_tree_node_baseS7_RKSs
__ZN4llvm3sys4Path17GetMainExecutableEPKcPv
__ZN4llvm4errsEv
__ZN5clang21TextDiagnosticPrinterC1ERN4llvm11raw_ostreamERKNS_17DiagnosticOptionsEb
__ZN5clang17DiagnosticOptionsD2Ev
__ZN4llvm3sys4path4stemENS_9StringRefE
__ZN4llvm3sys4path14const_iteratormmEv
__ZNK4llvm9StringRef12find_last_ofES0_m
__ZN5clang13DiagnosticIDsC1Ev
__ZN5clang17DiagnosticsEngineC1ERKN4llvm18IntrusiveRefCntPtrINS_13DiagnosticIDsEEEPNS_18DiagnosticConsumerEb
__ZN5clang17DiagnosticsEngineC2ERKN4llvm18IntrusiveRefCntPtrINS_13DiagnosticIDsEEEPNS_18DiagnosticConsumerEb
__ZN5clang17DiagnosticsEngine5ResetEv
__ZN4llvm8DenseMapIjN5clang21DiagnosticMappingInfoENS_12DenseMapInfoIjEENS3_IS2_EEE8CopyFromERKS6_
__ZNSt6vectorIN5clang17DiagnosticsEngine14DiagStatePointESaIS2_EE13_M_insert_auxEN9__gnu_cxx17__normal_iteratorIPS2_S4_EERKS2_
__ZN4llvm3sys13getHostTripleEv
__ZN5clang6driver6DriverC1EN4llvm9StringRefES3_S3_bRNS_17DiagnosticsEngineE
__ZN5clang6driver6DriverC2EN4llvm9StringRefES3_S3_bRNS_17DiagnosticsEngineE
__ZN5clang6driver20createDriverOptTableEv
__ZN5clang6driver8OptTableC2EPKNS1_4InfoEj
__ZNK5clang6driver8OptTable12CreateOptionEj
__ZN5clang6driver11InputOptionC1ENS0_12OptSpecifierE
__ZN5clang6driver13UnknownOptionC1ENS0_12OptSpecifierE
__ZNSt8_Rb_treeIN4llvm6Triple8ArchTypeES2_St9_IdentityIS2_ESt4lessIS2_ESaIS2_EE16_M_insert_uniqueERKS2_
__ZN4llvm3sys4path11parent_pathENS_9StringRefE
__ZN12_GLOBAL__N_115parent_path_endEN4llvm9StringRefE
__ZN4llvm3sys4path6appendERNS_15SmallVectorImplIcEERKNS_5TwineES7_S7_S7_
__ZNK4llvm5Twine11toStringRefERNS_15SmallVectorImplIcEE
__ZN4llvm3sys4path13has_root_nameERKNS_5TwineE
__ZN4llvm3sys4path5beginENS_9StringRefE
__ZNK4llvm9StringRef13find_first_ofES0_m
__ZN4llvm3sys4path8filenameENS_9StringRefE
__ZN4llvm3sys2fs13make_absoluteERNS_15SmallVectorImplIcEE
__ZN4llvm3sys4path14root_directoryENS_9StringRefE
__ZN4llvm3sys2fs12current_pathERNS_15SmallVectorImplIcEE
__ZN4llvm15SmallVectorImplIcE4swapERS1_
__ZN4llvm3sys2fs6existsERKNS_5TwineERb
__ZNK4llvm5Twine25toNullTerminatedStringRefERNS_15SmallVectorImplIcEE
__ZN4llvm19raw_svector_ostreamC1ERNS_15SmallVectorImplIcEE
__ZN4llvm19raw_svector_ostreamC2ERNS_15SmallVectorImplIcEE
__ZNK4llvm5Twine13printOneChildERNS_11raw_ostreamENS0_5ChildENS0_8NodeKindE
__ZN4llvm19raw_svector_ostreamD1Ev
__ZN4llvm19raw_svector_ostream10write_implEPKcm
_LLVMInitializeX86TargetInfo
__ZN4llvm14TargetRegistry14RegisterTargetERNS_6TargetEPKcS4_PFjRKSsEb
_LLVMInitializeARMTargetInfo
_LLVMInitializeX86Target
_LLVMInitializeARMTarget
__ZN5clang6driver6Driver16BuildCompilationEN4llvm8ArrayRefIPKcEE
__ZN5clang6driver6Driver15ParseArgStringsEN4llvm8ArrayRefIPKcEE
__ZNK5clang6driver8OptTable9ParseArgsEPKPKcS5_RjS6_
__ZN5clang6driver12InputArgListC1EPKPKcS5_
__ZNK5clang6driver12InputArgList12getArgStringEj
__ZNK5clang6driver8OptTable11ParseOneArgERKNS0_7ArgListERj
__ZN5clang6driver11OptionGroupC1ENS0_12OptSpecifierEPKcPKS1_
__ZN5clang6driver12JoinedOptionC1ENS0_12OptSpecifierEPKcPKNS0_11OptionGroupEPKNS0_6OptionE
__ZNK5clang6driver12JoinedOption6acceptERKNS0_7ArgListERj
__ZN5clang6driver3ArgC1EPKNS0_6OptionEjPKcPKS1_
__ZN5clang6driver7ArgList6appendEPNS0_3ArgE
__ZN5clang6driver10FlagOptionC1ENS0_12OptSpecifierEPKcPKNS0_11OptionGroupEPKNS0_6OptionE
__ZNK5clang6driver10FlagOption6acceptERKNS0_7ArgListERj
__ZN5clang6driver3ArgC1EPKNS0_6OptionEjPKS1_
__ZN5clang6driver22JoinedOrSeparateOptionC1ENS0_12OptSpecifierEPKcPKNS0_11OptionGroupEPKNS0_6OptionE
__ZNK5clang6driver22JoinedOrSeparateOption6acceptERKNS0_7ArgListERj
__ZNK5clang6driver12InputArgList21getNumInputArgStringsEv
__ZN4llvm21PrettyStackTraceEntryD2Ev
__ZNK5clang6driver7ArgList12ClaimAllArgsENS0_12OptSpecifierE
__ZNK5clang6driver6Option7matchesENS0_12OptSpecifierE
__ZNK5clang6driver7ArgList10getLastArgENS0_12OptSpecifierE
__ZNK5clang6driver7ArgList7hasFlagENS0_12OptSpecifierES2_b
__ZN5clang6driver12arg_iterator13SkipToNextArgEv
__ZNK5clang6driver6Driver11GetHostInfoEPKc
__ZN4llvm6Triple9normalizeENS_9StringRefE
__ZN4llvm6Triple9ParseArchENS_9StringRefE
__ZN4llvm6Triple7ParseOSENS_9StringRefE
__ZNK4llvm5Twine3strEv
__ZNK4llvm6Triple11getArchNameEv
__ZNK4llvm6Triple5ParseEv
__ZNK4llvm6Triple9getOSNameEv
__ZNK4llvm6Triple18getEnvironmentNameEv
__ZN4llvm6Triple16ParseEnvironmentENS_9StringRefE
__ZN5clang6driver20createDarwinHostInfoERKNS0_6DriverERKN4llvm6TripleE
__ZNK5clang6driver6Driver18TranslateInputArgsERKNS0_12InputArgListE
__ZN5clang6driver14DerivedArgListC1ERKNS0_12InputArgListE
__ZNK5clang6driver14DerivedArgList13MakeJoinedArgEPKNS0_3ArgEPKNS0_6OptionEN4llvm9StringRefE
__ZNK5clang6driver12InputArgList9MakeIndexEN4llvm9StringRefE
__ZNK12_GLOBAL__N_114DarwinHostInfo15CreateToolChainERKN5clang6driver7ArgListEPKc
__ZNK5clang6driver7ArgList10getLastArgENS0_12OptSpecifierES2_
__ZN4llvm8DenseMapIjPN5clang6driver9ToolChainENS_12DenseMapInfoIjEENS5_IS4_EEE16InsertIntoBucketERKjRKS4_PSt4pairIjS4_E
__ZN4llvm8DenseMapIjPN5clang6driver9ToolChainENS_12DenseMapInfoIjEENS5_IS4_EEE4growEj
__ZN4llvm6Triple7setArchENS0_8ArchTypeE
__ZN4llvm6Triple11setArchNameENS_9StringRefE
__ZN5clang6driver10toolchains11DarwinClangC1ERKNS0_8HostInfoERKN4llvm6TripleE
__ZN5clang6driver10toolchains11DarwinClangC2ERKNS0_8HostInfoERKN4llvm6TripleE
__ZN5clang6driver10toolchains6DarwinC2ERKNS0_8HostInfoERKN4llvm6TripleE
__ZN5clang6driver9ToolChainC2ERKNS0_8HostInfoERKN4llvm6TripleE
__ZN5clang6driver6Driver17GetReleaseVersionEPKcRjS4_S4_Rb
__ZN4llvm11raw_ostream5writeEPKcm
__ZN4llvm11raw_ostream11SetBufferedEv
__ZNK4llvm11raw_ostream21preferred_buffer_sizeEv
__ZN4llvm11raw_ostreamlsEl
__ZN4llvm11raw_ostreamlsEm
__ZN4llvm18raw_string_ostreamD1Ev
__ZNK5clang6driver9ToolChain9getDriverEv
__ZN5clang6driver10toolchains11DarwinClang17AddGCCLibexecPathEj
__ZN4llvm23SmallVectorTemplateBaseISsLb0EE4growEm
__ZN5clang6driver11CompilationC1ERKNS0_6DriverERKNS0_9ToolChainEPNS0_12InputArgListEPNS0_14DerivedArgListE
__ZN5clang6driver7JobListC1Ev
__ZN5clang6driver6Driver19HandleImmediateArgsERKNS0_11CompilationE
__ZNK5clang6driver6Driver12PrintVersionERKNS0_11CompilationERN4llvm11raw_ostreamE
__ZN5clang19getClangFullVersionEv
__ZN5clang29getClangFullRepositoryVersionEv
__ZN4llvm11raw_ostream14flush_nonemptyEv
__ZN4llvm18raw_string_ostream10write_implEPKcm
__ZN4llvm14raw_fd_ostream10write_implEPKcm
__ZN4llvm11raw_ostream5writeEh
__ZNK5clang6driver6Driver11BuildInputsERKNS0_9ToolChainERKNS0_14DerivedArgListERN4llvm11SmallVectorISt4pairINS0_5types2IDEPKNS0_3ArgEELj16EEE
__ZNK5clang6driver10toolchains6Darwin22LookupTypeForExtensionEPKc
__ZN5clang6driver5types22lookupTypeForExtensionEPKc
__ZNK12_GLOBAL__N_114DarwinHostInfo15useDriverDriverEv
__ZNK5clang6driver6Driver21BuildUniversalActionsERKNS0_9ToolChainERKNS0_14DerivedArgListERKN4llvm11SmallVectorISt4pairINS0_5types2IDEPKNS0_3ArgEELj16EEERNS9_IPNS0_6ActionELj3EEE
__ZNK5clang6driver6Driver12BuildActionsERKNS0_9ToolChainERKNS0_14DerivedArgListERKN4llvm11SmallVectorISt4pairINS0_5types2IDEPKNS0_3ArgEELj16EEERNS9_IPNS0_6ActionELj3EEE
__ZNK5clang6driver6Driver13getFinalPhaseERKNS0_14DerivedArgListEPPNS0_3ArgE
__ZN5clang6driver5types23getNumCompilationPhasesENS1_2IDE
__ZN5clang6driver5types19getCompilationPhaseENS1_2IDEj
__ZN5clang6driver11InputActionC1ERKNS0_3ArgENS0_5types2IDE
__ZNK5clang6driver6Driver20ConstructPhaseActionERKNS0_7ArgListENS0_6phases2IDEPNS0_6ActionE
__ZN5clang6driver5types19getPreprocessedTypeENS1_2IDE
__ZN5clang6driver19PreprocessJobActionC1EPNS0_6ActionENS0_5types2IDE
__ZN5clang6driver16CompileJobActionC1EPNS0_6ActionENS0_5types2IDE
__ZN5clang6driver17AssembleJobActionC1EPNS0_6ActionENS0_5types2IDE
__ZN5clang6driver14BindArchActionC1EPNS0_6ActionEPKc
__ZNK5clang6driver6Driver9BuildJobsERNS0_11CompilationE
__ZNK5clang6driver6Driver18BuildJobsForActionERNS0_11CompilationEPKNS0_6ActionEPKNS0_9ToolChainEPKcbSB_RNS0_9InputInfoE
__ZNK5clang6driver10toolchains6Darwin28IsIntegratedAssemblerDefaultEv
__ZNK5clang6driver10toolchains6Darwin10SelectToolERKNS0_11CompilationERKNS0_9JobActionERKN4llvm11SmallVectorIPNS0_6ActionELj3EEE
__ZNK5clang6driver6Driver22ShouldUseClangCompilerERKNS0_11CompilationERKNS0_9JobActionERKN4llvm6TripleE
__ZN5clang6driver5types17isAcceptedByClangENS1_2IDE
__ZN5clang6driver5types21isOnlyAcceptedByClangENS1_2IDE
__ZN5clang6driver5types5isCXXENS1_2IDE
__ZN4llvm8DenseMapIjPN5clang6driver4ToolENS_12DenseMapInfoIjEENS5_IS4_EEE16InsertIntoBucketERKjRKS4_PSt4pairIjS4_E
__ZN4llvm8DenseMapIjPN5clang6driver4ToolENS_12DenseMapInfoIjEENS5_IS4_EEE4growEj
__ZN5clang6driver4ToolC2EPKcS3_RKNS0_9ToolChainE
__ZNK5clang6driver5tools5Clang22hasIntegratedAssemblerEv
__ZNK5clang6driver5tools5Clang16hasIntegratedCPPEv
__ZN4llvm15SmallVectorImplIN5clang6driver9InputInfoEE9push_backERKS3_
__ZNK5clang6driver6Driver18GetNamedOutputPathERNS0_11CompilationERKNS0_9JobActionEPKcb
__ZN5clang6driver11Compilation19getArgsForToolChainEPKNS0_9ToolChainEPKc
__ZNK4llvm8DenseMapISt4pairIPKN5clang6driver9ToolChainEPKcEPNS3_14DerivedArgListENS_12DenseMapInfoIS9_EENSC_ISB_EEE15LookupBucketForERKS9_RPS1_IS9_SB_E
__ZN4llvm8DenseMapISt4pairIPKN5clang6driver9ToolChainEPKcEPNS3_14DerivedArgListENS_12DenseMapInfoIS9_EENSC_ISB_EEE16InsertIntoBucketERKS9_RKSB_PS1_IS9_SB_E
__ZN4llvm8DenseMapISt4pairIPKN5clang6driver9ToolChainEPKcEPNS3_14DerivedArgListENS_12DenseMapInfoIS9_EENSC_ISB_EEE4growEj
__ZNK5clang6driver10toolchains6Darwin13TranslateArgsERKNS0_14DerivedArgListEPKc
__ZNK5clang6driver7ArgList17getLastArgNoClaimENS0_12OptSpecifierE
__ZNK5clang6driver10toolchains6Darwin19AddDeploymentTargetERNS0_14DerivedArgListE
__ZNK5clang6driver10toolchains6Darwin17getDarwinArchNameERKNS0_7ArgListE
__ZNK5clang6driver9ToolChain16GetCXXStdlibTypeERKNS0_7ArgListE
__ZNK5clang6driver5tools5Clang12ConstructJobERNS0_11CompilationERKNS0_9JobActionERKNS0_9InputInfoERKN4llvm11SmallVectorIS8_Lj4EEERKNS0_7ArgListEPKc
__ZNK5clang6driver10toolchains6Darwin27ComputeEffectiveClangTripleERKNS0_7ArgListENS0_5types2IDE
__ZNK5clang6driver9ToolChain17ComputeLLVMTripleERKNS0_7ArgListENS0_5types2IDE
__ZN4llvm6Triple9setOSNameENS_9StringRefE
__ZNK5clang6driver14DerivedArgList13MakeArgStringEN4llvm9StringRefE
__ZNK5clang6driver12InputArgList13MakeArgStringEN4llvm9StringRefE
__ZL21ContainsCompileActionPKN5clang6driver6ActionE
__ZL26CheckCodeGenerationOptionsRKN5clang6driver6DriverERKNS0_7ArgListE
__ZNK5clang6driver10toolchains6Darwin17GetForcedPicModelEv
__ZNK5clang6driver10toolchains6Darwin23IsStrictAliasingDefaultEv
__ZNK5clang6driver10toolchains6Darwin21IsUnwindTablesDefaultEv
__ZNK5clang6driver5tools5Clang16AddX86TargetArgsERKNS0_7ArgListERN4llvm11SmallVectorIPKcLj16EEE
__ZNK5clang6driver7ArgList10AddAllArgsERN4llvm11SmallVectorIPKcLj16EEENS0_12OptSpecifierES8_S8_
__ZNK5clang6driver7ArgList10AddLastArgERN4llvm11SmallVectorIPKcLj16EEENS0_12OptSpecifierE
__ZNK5clang6driver7ArgList10getLastArgENS0_12OptSpecifierES2_S2_
__ZNK5clang6driver5tools5Clang23AddPreprocessingOptionsERKNS0_6DriverERKNS0_7ArgListERN4llvm11SmallVectorIPKcLj16EEERKNS0_9Inpu
__ZL25CheckPreprocessingOptionsRKN5clang6driver6DriverERKNS0_7ArgListE
__ZNK5clang6driver7ArgList15AddAllArgValuesERN4llvm11SmallVectorIPKcLj16EEENS0_12OptSpecifierES8_S8_
__ZN4llvm3sys4path21system_temp_directoryEbRNS_15SmallVectorImplIcEE
__ZNK4llvm9StringRef17find_first_not_ofES0_m
__ZL23AddIncludeDirectoryListRKN5clang6driver7ArgListERN4llvm11SmallVectorIPKcLj16EEES7_S7_
__ZNK5clang6driver3Arg6renderERKNS0_7ArgListERN4llvm11SmallVectorIPKcLj16EEE
__ZNK5clang6driver7ArgList24GetOrMakeJoinedArgStringEjN4llvm9StringRefES3_
__ZNK5clang6driver14DerivedArgList12getArgStringEj
__ZNK5clang6driver7ArgList20AddAllArgsTranslatedERN4llvm11SmallVectorIPKcLj16EEENS0_12OptSpecifierES5_b
__ZN4llvm3sys4path11is_absoluteERKNS_5TwineE
__ZN4llvm3sys7Process18StandardErrColumnsEv
__ZNK5clang6driver7ArgList13MakeArgStringERKN4llvm5TwineE
__ZNK4llvm5Twine8toVectorERNS_15SmallVectorImplIcEE
__ZNK5clang6driver10toolchains6Darwin17SupportsProfilingEv
__ZNK5clang6driver10toolchains6Darwin29GetDefaultStackProtectorLevelEb
__ZNK5clang6driver10toolchains6Darwin15IsBlocksDefaultEv
__ZNK5clang6driver10toolchains6Darwin16hasBlocksRuntimeEv
__ZNK5clang6driver10toolchains6Darwin20configureObjCRuntimeERNS0_11ObjCRuntimeE
__ZNK5clang6driver10toolchains6Darwin26IsObjCNonFragileABIDefaultEv
__ZNK5clang6driver10toolchains6Darwin27IsObjCLegacyDispatchDefaultEv
__ZNK5clang6driver10toolchains6Darwin20UseObjCMixedDispatchEv
__ZNK5clang6driver10toolchains6Darwin35IsObjCDefaultSynthPropertiesDefaultEv
__ZN5clang6driver5types6isObjCENS1_2IDE
__ZNK5clang6driver10toolchains6Darwin17UseSjLjExceptionsEv
__ZN4llvm3sys7Process20StandardErrHasColorsEv
__ZN5clang6driver5types11getTypeNameENS1_2IDE
__ZNK5clang6driver10toolchains6Darwin18UseDwarfDebugFlagsEv
__ZN5clang6driver7CommandC1ERKNS0_6ActionERKNS0_4ToolEPKcRKN4llvm11SmallVectorIS9_Lj16EEE
__ZN4llvm15SmallVectorImplIPKcEaSERKS3_
__ZNK5clang6driver6Driver18ExecuteCompilationERKNS0_11CompilationERPKNS0_7CommandE
__ZNK5clang6driver11Compilation8PrintJobERN4llvm11raw_ostreamERKNS0_3JobEPKcb
__ZN4llvm10TimerGroup8printAllERNS_11raw_ostreamE
__ZN4llvm13llvm_shutdownEv
__ZN4llvm14object_deleterINS_3sys10SmartMutexILb1EEEE4callEPv
__ZN4llvm3sys9MutexImplD2Ev
__ZN4llvm14object_deleterINS_12PassRegistryEE4callEPv
__ZN4llvm12PassRegistryD2Ev
__ZN4llvm14object_deleterISsE4callEPv
__ZN5clang6driver11CompilationD1Ev
__ZN5clang6driver11CompilationD2Ev
__ZN5clang6driver14DerivedArgListD0Ev
__ZN5clang6driver14DerivedArgListD2Ev
__ZN5clang6driver3ArgD1Ev
__ZN5clang6driver12InputArgListD0Ev
__ZN5clang6driver12InputArgListD2Ev
__ZN5clang6driver14BindArchActionD0Ev
__ZN5clang6driver17AssembleJobActionD0Ev
__ZN5clang6driver16CompileJobActionD0Ev
__ZN5clang6driver19PreprocessJobActionD0Ev
__ZN5clang6driver11InputActionD0Ev
__ZN5clang6driver7JobListD1Ev
__ZN5clang6driver7CommandD0Ev
__ZN5clang6driver6DriverD1Ev
__ZN5clang6driver6DriverD2Ev
__ZN5clang6driver8OptTableD1Ev
__ZN5clang6driver11OptionGroupD0Ev
__ZN5clang6driver11InputOptionD0Ev
__ZN5clang6driver13UnknownOptionD0Ev
__ZN5clang6driver10FlagOptionD0Ev
__ZN5clang6driver12JoinedOptionD0Ev
__ZN5clang6driver22JoinedOrSeparateOptionD0Ev
__ZN12_GLOBAL__N_114DarwinHostInfoD0Ev
__ZN12_GLOBAL__N_114DarwinHostInfoD1Ev
__ZN5clang6driver10toolchains11DarwinClangD0Ev
__ZN5clang6driver10toolchains6DarwinD2Ev
__ZN5clang6driver5tools5ClangD0Ev
__ZN5clang6driver4ToolD2Ev
__ZN5clang6driver9ToolChainD2Ev
__ZNSt8_Rb_treeIN4llvm6Triple8ArchTypeES2_St9_IdentityIS2_ESt4lessIS2_ESaIS2_EE8_M_eraseEPSt13_Rb_tree_nodeIS2_E
__ZN5clang17DiagnosticsEngineD1Ev
__ZN5clang17DiagnosticsEngineD2Ev
__ZN5clang21TextDiagnosticPrinterD0Ev
__ZN5clang21TextDiagnosticPrinterD2Ev
__ZN5clang18DiagnosticConsumerD2Ev
__ZN5clang13DiagnosticIDsD1Ev
__ZN5clang13DiagnosticIDsD2Ev
__ZNSt8_Rb_treeISsSsSt9_IdentityISsESt4lessISsESaISsEE8_M_eraseEPSt13_Rb_tree_nodeISsE
__ZN4llvm14raw_fd_ostreamD1Ev
__ZN4llvm14raw_fd_ostreamD2Ev
__ZNSt3setISt4pairIjjESt4lessIS1_ESaIS1_EED1Ev
__ZNSt8_Rb_treeISt4pairIjjES1_St9_IdentityIS1_ESt4lessIS1_ESaIS1_EE8_M_eraseEPSt13_Rb_tree_nodeIS1_E
__ZNSt3setISsSt4lessISsESaISsEED1Ev
__ZN4llvm2cl3optIbLb0ENS0_6parserIbEEED1Ev
__ZN4llvm2cl3optISsLb0ENS0_6parserISsEEED1Ev
__ZN4llvm2cl3optIjLb0ENS0_6parserIjEEED1Ev
__ZN4llvm2cl3optIN12_GLOBAL__N_111SpillerNameELb0ENS0_6parserIS3_EEED1Ev
__ZN4llvm2cl3optIN12_GLOBAL__N_112RewriterNameELb0ENS0_6parserIS3_EEED1Ev
__ZN4llvm2cl3optIbLb1ENS0_6parserIbEEED1Ev
__ZN4llvm16RegisterRegAllocD1Ev
__ZN4llvm19MachinePassRegistry6RemoveEPNS_23MachinePassRegistryNodeE
__ZN4llvm18RegisterPassParserINS_16RegisterRegAllocEE12NotifyRemoveEPKc
__ZN4llvm2cl19generic_parser_base10findOptionEPKc
__ZNK4llvm2cl6parserIPFPNS_12FunctionPassEvEE13getNumOptionsEv
__ZNK4llvm2cl6parserIPFPNS_12FunctionPassEvEE9getOptionEj
__ZN4llvm2cl4listISsbNS0_6parserISsEEED1Ev
__ZN4llvm2cl3optIiLb0ENS0_6parserIiEEED1Ev
__ZN4llvm2cl3optI20ShrinkWrapDebugLevelLb0ENS0_6parserIS2_EEED1Ev
__ZN4llvm2cl3optINS_11SplitEditor19ComplementSpillModeELb0ENS0_6parserIS3_EEED1Ev
__ZN4llvm17RegisterSchedulerD1Ev
__ZN4llvm18RegisterPassParserINS_17RegisterSchedulerEE12NotifyRemoveEPKc
__ZNK4llvm2cl6parserIPFPNS_18ScheduleDAGSDNodesEPNS_16SelectionDAGISelENS_10CodeGenOpt5LevelEEE13getNumOptionsEv
__ZNK4llvm2cl6parserIPFPNS_18ScheduleDAGSDNodesEPNS_16SelectionDAGISelENS_10CodeGenOpt5LevelEEE9getOptionEj
__ZN4llvm2cl3optIPFPNS_12FunctionPassEvELb0ENS_18RegisterPassParserINS_16RegisterRegAllocEEEED1Ev
__ZN4llvm2cl3optINS0_13boolOrDefaultELb0ENS0_6parserIS2_EEED1Ev
__ZN4llvm2cl3optIjLb1ENS0_6parserIjEEED1Ev
__ZN4llvm2cl3optIPFPNS_18ScheduleDAGSDNodesEPNS_16SelectionDAGISelENS_10CodeGenOpt5LevelEELb0ENS_18RegisterPassParserINS_17RegisterSchedulerEEEE16handleOccurrenceEjNS_9StringRefESE_
__ZN4llvm2cl3optIPFPNS_18ScheduleDAGSDNodesEPNS_16SelectionDAGISelENS_10CodeGenOpt5LevelEELb0ENS_18RegisterPassParserINS_17RegisterSchedulerEEEE19getExtraOptionNamesERNS_15SmallVectorImplIPKcEE
__ZN4llvm2cl3optIPFPNS_18ScheduleDAGSDNodesEPNS_16SelectionDAGISelENS_10CodeGenOpt5LevelEELb0ENS_18RegisterPassParserINS_17RegisterSchedulerEEEE4doneEv
__ZN4llvm2cl3optIPFPNS_18ScheduleDAGSDNodesEPNS_16SelectionDAGISelENS_10CodeGenOpt5LevelEELb0ENS_18RegisterPassParserINS_17RegisterSchedulerEEEED0Ev
__ZN4llvm2cl3optIPFPNS_18ScheduleDAGSDNodesEPNS_16SelectionDAGISelENS_10CodeGenOpt5LevelEELb0ENS_18RegisterPassParserINS_17RegisterSchedulerEEEED1Ev
__ZN4llvm3ARM8CCRClassD1Ev
__ZN4llvm3ARM10GPRspClassD1Ev
__ZN4llvm3ARM23QQQQPR_with_ssub_0ClassD1Ev
__ZN4llvm3ARM11QQQQPRClassD1Ev
__ZN4llvm3ARM14QQPR_VFP2ClassD1Ev
__ZN4llvm3ARM10QPR_8ClassD1Ev
__ZN4llvm3ARM10tcGPRClassD1Ev
__ZN4llvm3ARM9QQPRClassD1Ev
__ZN4llvm3ARM13QPR_VFP2ClassD1Ev
__ZN4llvm3ARM10DPR_8ClassD1Ev
__ZN4llvm3ARM9hGPRClassD1Ev
__ZN4llvm3ARM9tGPRClassD1Ev
__ZN4llvm3ARM9rGPRClassD1Ev
__ZN4llvm3ARM12GPRnopcClassD1Ev
__ZN4llvm3ARM8QPRClassD1Ev
__ZN4llvm3ARM13DPR_VFP2ClassD1Ev
__ZN4llvm3ARM10SPR_8ClassD1Ev
__ZN4llvm3ARM8GPRClassD1Ev
__ZN4llvm3ARM8DPRClassD1Ev
__ZN4llvm3ARM8SPRClassD1Ev
__ZN4llvm2cl3optI17AsmWriterFlavorTyLb0ENS0_6parserIS2_EEED1Ev
__ZN4llvm2cl3optINS_8FloatABI7ABITypeELb1ENS0_6parserIS3_EEED1Ev
__ZN4llvm2cl4listIPKNS_8PassInfoEbNS_14PassNameParserEED1Ev
__ZN4llvm14PassNameParserD1Ev
__ZN4llvm12PassRegistry26removeRegistrationListenerEPNS_24PassRegistrationListenerE
__ZN4llvm2cl3optINS_14PassDebugLevelELb0ENS0_6parserIS2_EEED1Ev
__ZN4llvm3X868CCRClassD1Ev
__ZN4llvm3X8612GR32_ADClassD1Ev
__ZN4llvm3X8629GR64_TC_with_sub_8bit_hiClassD1Ev
__ZN4llvm3X8631GR32_NOAX_with_sub_8bit_hiClassD1Ev
__ZN4llvm3X8612GR32_TCClassD1Ev
__ZN4llvm3X8614GR64_ABCDClassD1Ev
__ZN4llvm3X8614GR32_ABCDClassD1Ev
__ZN4llvm3X8614GR16_ABCDClassD1Ev
__ZN4llvm3X8615GR8_ABCD_LClassD1Ev
__ZN4llvm3X8615GR8_ABCD_HClassD1Ev
__ZN4llvm3X8615GR64_TCW64ClassD1Ev
__ZN4llvm3X8616SEGMENT_REGClassD1Ev
__ZN4llvm3X8610RFP80ClassD1Ev
__ZN4llvm3X8620GR64_NOREX_NOSPClassD1Ev
__ZN4llvm3X8610RFP64ClassD1Ev
__ZN4llvm3X8610RFP32ClassD1Ev
__ZN4llvm3X8620GR32_NOREX_NOSPClassD1Ev
__ZN4llvm3X868RSTClassD1Ev
__ZN4llvm3X8629GR64_NOREX_with_sub_8bitClassD1Ev
__ZN4llvm3X8626GR64_TC_with_sub_8bitClassD1Ev
__ZN4llvm3X869VR64ClassD1Ev
__ZN4llvm3X8614DEBUG_REGClassD1Ev
__ZN4llvm3X8615GR32_NOREXClassD1Ev
__ZN4llvm3X8615GR16_NOREXClassD1Ev
__ZN4llvm3X8614GR8_NOREXClassD1Ev
__ZN4llvm3X8612GR64_TCClassD1Ev
__ZN4llvm3X8615GR64_NOREXClassD1Ev
__ZN4llvm3X8614GR64_NOSPClassD1Ev
__ZN4llvm3X8614GR32_NOAXClassD1Ev
__ZN4llvm3X8614GR32_NOSPClassD1Ev
__ZN4llvm3X8610VR256ClassD1Ev
__ZN4llvm3X8610VR128ClassD1Ev
__ZN4llvm3X8616CONTROL_REGClassD1Ev
__ZN4llvm3X869FR64ClassD1Ev
__ZN4llvm3X8623GR64_with_sub_8bitClassD1Ev
__ZN4llvm3X869FR32ClassD1Ev
__ZN4llvm3X869GR32ClassD1Ev
__ZN4llvm3X869GR16ClassD1Ev
__ZN4llvm3X869GR64ClassD1Ev
__ZN4llvm3X868GR8ClassD1Ev
__ZN4llvm3sys11ThreadLocalIKNS_27CrashRecoveryContextCleanupEED1Ev
__ZN4llvm3sys15ThreadLocalImplD2Ev
__ZN4llvm3sys10SmartMutexILb0EED1Ev
__ZN4llvm3sys11ThreadLocalIKN12_GLOBAL__N_124CrashRecoveryContextImplEED1Ev
__ZN4llvm19MallocSlabAllocatorD1Ev
__ZN12_GLOBAL__N_122ExplicitSymbolsDeleterD1Ev
__ZN4llvm22_system_error_categoryD1Ev
__ZN4llvm2cl3optIN12_GLOBAL__N_114VersionPrinterELb1ENS0_6parserIbEEED1Ev
__ZN4llvm2cl3optIN12_GLOBAL__N_111HelpPrinterELb1ENS0_6parserIbEEED1Ev
__ZN4llvm3sys11ThreadLocalIKNS_21PrettyStackTraceEntryEED1Ev
__ZNSt6vectorISt4pairIPFvPvES1_ESaIS4_EED1Ev
__ZNSt6vectorIN4llvm3sys4PathESaIS2_EED1Ev
__ZN4llvm3sys10SmartMutexILb1EED1Ev
__ZN4llvm2cl3optISsLb1ENS0_6parserISsEEED1Ev
__ZN5clang6driver14SeparateOptionC1ENS0_12OptSpecifierEPKcPKNS0_11OptionGroupEPKNS0_6OptionE
__ZNK5clang6driver14SeparateOption6acceptERKNS0_7ArgListERj
__ZN4llvm6Triple28getArchTypeForDarwinArchNameENS_9StringRefE
__ZN4llvm13StringMapImpl15LookupBucketForENS_9StringRefE
__ZN4llvm13StringMapImpl11RehashTableEv
__ZN5clang6driver5types17getTypeTempSuffixENS1_2IDE
__ZNK5clang6driver6Driver16GetTemporaryPathEN4llvm9StringRefEPKc
__ZN4llvm3sys4PathC1ENS_9StringRefE
__ZN4llvm3sys4Path15appendComponentENS_9StringRefE
__ZN4llvm3sys4Path10makeUniqueEbPSs
__ZNSt6vectorIcSaIcEE14_M_fill_insertEN9__gnu_cxx17__normal_iteratorIPcS1_EEmRKc
__ZN4llvm3sys2fs12is_directoryERKNS_5TwineERb
__ZN4llvm3sys2fs6statusERKNS_5TwineERNS1_11file_statusE
__ZN4llvm16generic_categoryEv
__ZNK4llvm14error_category10equivalentEiRKNS_15error_conditionE
__ZNK4llvm22_system_error_category23default_error_conditionEi
__ZNK4llvm3sys4Path13eraseFromDiskEbPSs
__ZN4llvm3sys4Path12appendSuffixENS_9StringRefE
__ZNK5clang6driver10toolchains6Darwin25GetDefaultRelocationModelEv
__ZNK5clang6driver5tools5Clang16AddARMTargetArgsERKNS0_7ArgListERN4llvm11SmallVectorIPKcLj16EEEb
__ZL15getARMTargetCPURKN5clang6driver7ArgListERKN4llvm6TripleE
__ZN4llvm12StringSwitchIPKcS2_E5CasesILj10ELj10ELj7EEERS3_RAT__S1_RAT0__S1_RAT1__S1_RKS2_
__ZN4llvm12StringSwitchIPKcS2_E5CasesILj9ELj9ELj7ELj7EEERS3_RAT__S1_RAT0__S1_RAT1__S1_RAT2__S1_RKS2_
__ZNK5clang6driver5tools6darwin8Assemble12ConstructJobERNS0_11CompilationERKNS0_9JobActionERKNS0_9InputInfoERKN4llvm11SmallVectorIS9_Lj4EEERKNS0_7ArgListEPKc
__ZNK5clang6driver5tools6darwin10DarwinTool13AddDarwinArchERKNS0_7ArgListERN4llvm11SmallVectorIPKcLj16EEE
__ZNK5clang6driver9ToolChain14GetProgramPathEPKcb
__ZNK5clang6driver6Driver14GetProgramPathEPKcRKNS0_9ToolChainEb
__ZNK4llvm3sys4Path10canExecuteEv
__ZN4llvm3sys4Path14eraseComponentEv
__ZN5clang6driver14SeparateOptionD0Ev
__ZN5clang6driver5tools6darwin8AssembleD0Ev
__ZN4llvm23_generic_error_categoryD1Ev
__Z8cc1_mainPPKcS1_S0_Pv
__ZN5clang16CompilerInstanceC1Ev
__ZN5clang18CompilerInvocationC2Ev
__ZN5clang22CompilerInvocationBaseC2Ev
__ZN5clang11LangOptionsC1Ev
_LLVMInitializeX86TargetMC
_LLVMInitializeARMTargetMC
_LLVMInitializeX86AsmPrinter
_LLVMInitializeARMAsmPrinter
_LLVMInitializeX86AsmParser
_LLVMInitializeX86AsmLexer
_LLVMInitializeARMAsmParser
_LLVMInitializeARMAsmLexer
__ZN5clang18CompilerInvocation14CreateFromArgsERS0_PKPKcS5_RNS_17DiagnosticsEngineE
__ZN5clang6driver17createCC1OptTableEv
__ZNK5clang6driver7ArgList15getLastArgValueENS0_12OptSpecifierEN4llvm9StringRefE
__ZNK5clang6driver7ArgList18getLastArgIntValueENS0_12OptSpecifierEiRNS_17DiagnosticsEngineE
__ZNK5clang6driver7ArgList15getAllArgValuesENS0_12OptSpecifierE
__ZNSt6vectorISsSaISsEE19_M_range_initializeIPPKcEEvT_S6_St20forward_iterator_tag
__ZNSt6vectorISsSaISsEEaSERKS1_
__ZNK4llvm9StringRef12getAsIntegerEjRi
__ZL20GetAsUnsignedIntegerN4llvm9StringRefEjRy
__ZNSt6vectorIS_ISsSaISsEESaIS1_EE6resizeEmS1_
__ZNSt6vectorIS_ISsSaISsEESaIS1_EE14_M_fill_insertEN9__gnu_cxx17__normal_iteratorIPS1_S3_EEmRKS1_
__ZNSt6vectorISt4pairIN5clang9InputKindESsESaIS3_EE13_M_insert_auxEN9__gnu_cxx17__normal_iteratorIPS3_S5_EERKS3_
__ZN5clang18CompilerInvocation15setLangDefaultsERNS_11LangOptionsENS_9InputKindENS_12LangStandard4KindE
__ZN5clang12LangStandard22getLangStandardForKindENS0_4KindE
__ZN5clang11FileManagerC1ERKNS_17FileSystemOptionsE
__ZN5clang11FileManagerC2ERKNS_17FileSystemOptionsE
__ZN4llvm13StringMapImplC2Ejj
__ZN4llvm16BumpPtrAllocatorC1EmmRNS_13SlabAllocatorE
__ZN5clang11FileManagerD1Ev
__ZN5clang11FileManagerD2Ev
__ZNSt8_Rb_treeISt4pairIiyES0_IKS1_N5clang14DirectoryEntryEESt10_Select1stIS5_ESt4lessIS1_ESaIS5_EE8_M_eraseEPSt13_Rb_tree_nodeIS5_E
__ZNSt8_Rb_treeIN5clang9FileEntryES1_St9_IdentityIS1_ESt4lessIS1_ESaIS1_EE8_M_eraseEPSt13_Rb_tree_nodeIS1_E
__ZN4llvm16BumpPtrAllocatorD1Ev
__ZN5clang16CompilerInstance17createDiagnosticsEiPKPKcPNS_18DiagnosticConsumerEbb
__ZN5clang16CompilerInstance17createDiagnosticsERKNS_17DiagnosticOptionsEiPKPKcPNS_18DiagnosticConsumerEbbPKNS_14CodeGenOptionsE
__ZN5clang17DiagnosticsEngine9setClientEPNS_18DiagnosticConsumerEb
__ZN5clang21ProcessWarningOptionsERNS_17DiagnosticsEngineERKNS_17DiagnosticOptionsE
__ZN5clang17DiagnosticsEngine25setDiagnosticGroupMappingEN4llvm9StringRefENS_4diag7MappingENS_14SourceLocationE
__ZNK5clang13DiagnosticIDs21getDiagnosticsInGroupEN4llvm9StringRefERNS1_15SmallVectorImplIjEE
__ZNK5clang13DiagnosticIDs21getDiagnosticsInGroupEPKNS_13WarningOptionERN4llvm15SmallVectorImplIjEE
__ZN5clang17DiagnosticsEngine20setDiagnosticMappingEjNS_4diag7MappingENS_14SourceLocationE
__ZN4llvm8DenseMapIjN5clang21DiagnosticMappingInfoENS_12DenseMapInfoIjEENS3_IS2_EEE16InsertIntoBucketERKjRKS2_PSt4pairIjS2_E
__ZN4llvm8DenseMapIjN5clang21DiagnosticMappingInfoENS_12DenseMapInfoIjEENS3_IS2_EEE4growEj
__ZN4llvm27install_fatal_error_handlerEPFvPvRKSsES0_
__ZNK5clang20TextDiagnosticBuffer16FlushDiagnosticsERNS_17DiagnosticsEngineE
__ZN5clang25ExecuteCompilerInvocationEPNS_16CompilerInstanceE
__ZN5clang13EmitObjActionC1EPN4llvm11LLVMContextE
__ZN5clang14FrontendActionC2Ev
__ZN4llvm11LLVMContextC1Ev
__ZN4llvm15LLVMContextImplC1ERNS_11LLVMContextE
__ZN4llvm15LLVMContextImplC2ERNS_11LLVMContextE
__ZN4llvm8DenseMapINS_20DenseMapAPIntKeyInfo5KeyTyEPNS_11ConstantIntES1_NS_12DenseMapInfoIS4_EEE4initEj
__ZN4llvm8DenseMapINS_22DenseMapAPFloatKeyInfo5KeyTyEPNS_10ConstantFPES1_NS_12DenseMapInfoIS4_EEE4initEj
__ZN4llvm14FoldingSetImplC2Ej
__ZN4llvm9StringMapIjNS_15MallocAllocatorEE16GetOrCreateValueIjEERNS_14StringMapEntryIjEENS_9StringRefET_
__ZN5clang16CompilerInstance13ExecuteActionERNS_14FrontendActionE
__ZN5clang10TargetInfo16CreateTargetInfoERNS_17DiagnosticsEngineERNS_13TargetOptionsE
__ZL14AllocateTargetRKSs
__ZN5clang10TargetInfoC2ERKSs
__ZNK4llvm6Triple17isMacOSXVersionLTEjjj
__ZNK4llvm6Triple12getOSVersionERjS1_S1_
__ZN12_GLOBAL__N_113X86TargetInfo6setCPUERKSs
__ZNK12_GLOBAL__N_113X86TargetInfo18getDefaultFeaturesERN4llvm9StringMapIbNS1_15MallocAllocatorEEE
__ZN4llvm9StringMapIbNS_15MallocAllocatorEE16GetOrCreateValueIbEERNS_14StringMapEntryIbEENS_9StringRefET_
__ZNK12_GLOBAL__N_113X86TargetInfo17setFeatureEnabledERN4llvm9StringMapIbNS1_15MallocAllocatorEEERKSsb
__ZNK4llvm13StringMapImpl7FindKeyENS_9StringRefE
__ZNSt6vectorISsSaISsEE13_M_insert_auxEN9__gnu_cxx17__normal_iteratorIPSsS1_EERKSs
__ZN12_GLOBAL__N_113X86TargetInfo20HandleTargetFeaturesERSt6vectorISsSaISsEE
__ZSt6__findIN9__gnu_cxx17__normal_iteratorIPSsSt6vectorISsSaISsEEEEA5_cET_S8_S8_RKT0_St26random_access_iterator_tag
__ZN5clang10TargetInfo20setForcedLangOptionsERNS_11LangOptionsE
__ZN5clang14FrontendAction15BeginSourceFileERNS_16CompilerInstanceEN4llvm9StringRefENS_9InputKindE
__ZN5clang14FrontendAction14setCurrentFileEN4llvm9StringRefENS_9InputKindEPNS_7ASTUnitE
__ZN5clang14FrontendAction15BeginInvocationERNS_16CompilerInstanceE
__ZN5clang16CompilerInstance17createFileManagerEv
__ZN5clang16CompilerInstance19createSourceManagerERNS_11FileManagerE
__ZN5clang13SourceManagerC1ERNS_17DiagnosticsEngineERNS_11FileManagerE
__ZN5clang13SourceManager13clearIDTablesEv
__ZNSt6vectorIN5clang6SrcMgr9SLocEntryESaIS2_EE13_M_insert_auxEN9__gnu_cxx17__normal_iteratorIPS2_S4_EERKS2_
__ZN5clang16CompilerInstance18createPreprocessorEv
__ZN5clang12HeaderSearchC1ERNS_11FileManagerE
__ZN5clang12PreprocessorC1ERNS_17DiagnosticsEngineERNS_11LangOptionsEPKNS_10TargetInfoERNS_13SourceManagerERNS_12HeaderSearchERNS_12ModuleLoaderEPNS_20IdentifierInfoLookupEbb
__ZN5clang12PreprocessorC2ERNS_17DiagnosticsEngineERNS_11LangOptionsEPKNS_10TargetInfoERNS_13SourceManagerERNS_12HeaderSearchERNS_12ModuleLoaderEPNS_20IdentifierInfoLookupEbb
__ZN5clang15IdentifierTableC1ERKNS_11LangOptionsEPNS_20IdentifierInfoLookupE
__ZN5clang15IdentifierTable11AddKeywordsERKNS_11LangOptionsE
__ZN5clang15IdentifierTable3getEN4llvm9StringRefE
__ZN4llvm9StringMapIPN5clang14IdentifierInfoENS_16BumpPtrAllocatorEE16GetOrCreateValueIS3_EERNS_14StringMapEntryIS3_EENS_9StringRefET_
__ZN4llvm16BumpPtrAllocator8AllocateEmm
__ZN4llvm19MallocSlabAllocator8AllocateEm
__ZN5clang14IdentifierInfoC1Ev
__ZN5clang13SelectorTableC1Ev
__ZN5clang7Builtin7ContextC1Ev
__ZN5clang12Preprocessor10InitializeERKNS_10TargetInfoE
__ZN5clang7Builtin7Context16InitializeTargetERKNS_10TargetInfoE
__ZNK12_GLOBAL__N_113X86TargetInfo17getTargetBuiltinsERPKN5clang7Builtin4InfoERj
__ZN5clang13ScratchBufferC1ERNS_13SourceManagerE
__ZN4llvm8DenseMapIPN5clang14IdentifierInfoEjNS_12DenseMapInfoIS3_EENS4_IjEEE16InsertIntoBucketERKS3_RKjPSt4pairIS3_jE
__ZN4llvm8DenseMapIPN5clang14IdentifierInfoEjNS_12DenseMapInfoIS3_EENS4_IjEEE4growEj
__ZN5clang12Preprocessor22RegisterBuiltinPragmasEv
__ZN5clang12Preprocessor16AddPragmaHandlerEN4llvm9StringRefEPNS_13PragmaHandlerE
__ZN4llvm9StringMapIPN5clang13PragmaHandlerENS_15MallocAllocatorEE16GetOrCreateValueIS3_EERNS_14StringMapEntryIS3_EENS_9StringRefET_
__ZNK5clang15PragmaNamespace11FindHandlerEN4llvm9StringRefEb
__ZN5clang15PragmaNamespace14getIfNamespaceEv
__ZN5clang12Preprocessor21RegisterBuiltinMacrosEv
__ZN5clang12Preprocessor17AllocateMacroInfoENS_14SourceLocationE
__ZN5clang9MacroInfoC1ENS_14SourceLocationE
__ZN5clang12Preprocessor12setMacroInfoEPNS_14IdentifierInfoEPNS_9MacroInfoE
__ZN4llvm8DenseMapIPN5clang14IdentifierInfoEPNS1_9MacroInfoENS_12DenseMapInfoIS3_EENS6_IS5_EEE16InsertIntoBucketERKS3_RKS5_PSt4pairIS3_S5_E
__ZN4llvm8DenseMapIPN5clang14IdentifierInfoEPNS1_9MacroInfoENS_12DenseMapInfoIS3_EENS6_IS5_EEE4growEj
__ZN5clang22InitializePreprocessorERNS_12PreprocessorERKNS_19PreprocessorOptionsERKNS_19HeaderSearchOptionsERKNS_15FrontendOptionsE
__ZNK4llvm5Twine5printERNS_11raw_ostreamE
__ZN5clang12MacroBuilder11defineMacroERKN4llvm5TwineES4_
__ZN5clang22getClangFullCPPVersionEv
__ZL14DefineTypeSizeN4llvm9StringRefEjS0_bRN5clang12MacroBuilderE
__ZN4llvm5APInt17getSignedMaxValueEj
__ZN4llvm5APInt8clearBitEj
__ZNK4llvm5APInt8toStringEjb
__ZNK4llvm5APInt8toStringERNS_15SmallVectorImplIcEEjbb
__ZNK5clang10TargetInfo12getTypeWidthENS0_7IntTypeE
__ZN5clang10TargetInfo21getTypeConstantSuffixENS0_7IntTypeE
__ZN5clang10TargetInfo12isTypeSignedENS0_7IntTypeE
__ZN5clang10TargetInfo11getTypeNameENS0_7IntTypeE
__ZL17DefineFloatMacrosRN5clang12MacroBuilderEN4llvm9StringRefEPKNS2_12fltSemanticsE
__ZL23DefineExactWidthIntTypeN5clang10TargetInfo7IntTypeERKS0_RNS_12MacroBuilderE
__ZNK12_GLOBAL__N_116X86_64TargetInfo20getVAListDeclarationEv
__ZNK12_GLOBAL__N_112OSTargetInfoINS_16X86_64TargetInfoEE16getTargetDefinesERKN5clang11LangOptionsERNS3_12MacroBuilderE
__ZNK12_GLOBAL__N_113X86TargetInfo16getTargetDefinesERKN5clang11LangOptionsERNS1_12MacroBuilderE
__ZNK12_GLOBAL__N_116DarwinTargetInfoINS_16X86_64TargetInfoEE12getOSDefinesERKN5clang11LangOptionsERKN4llvm6TripleERNS3_12MacroBuilderE
__ZL16getDarwinDefinesRN5clang12MacroBuilderERKNS_11LangOptionsERKN4llvm6TripleERNS5_9StringRefERNS_12VersionTupleE
__ZN4llvm6Triple13getOSTypeNameENS0_6OSTypeE
__ZN5clang24ApplyHeaderSearchOptionsERNS_12HeaderSearchERKNS_19HeaderSearchOptionsERKNS_11LangOptionsERKN4llvm6TripleE
__ZN12_GLOBAL__N_116InitHeaderSearch7AddPathERKN4llvm5TwineEN5clang8frontend15IncludeDirGroupEbbbb
__ZN5clang11FileManager12getDirectoryEN4llvm9StringRefEb
__ZN4llvm9StringMapIPN5clang14DirectoryEntryENS_16BumpPtrAllocatorEE16GetOrCreateValueIS3_EERNS_14StringMapEntryIS3_EENS_9StringRefET_
__ZN5clang11FileManager12getStatValueEPKcR4statPi
__ZN5clang19FileSystemStatCache3getEPKcR4statPiPS0_
__ZNSt8_Rb_treeISt4pairIiyES0_IKS1_N5clang14DirectoryEntryEESt10_Select1stIS5_ESt4lessIS1_ESaIS5_EE16_M_insert_uniqueESt17_Rb_tree_iteratorIS5_ERKS5_
__ZNSt8_Rb_treeISt4pairIiyES0_IKS1_N5clang14DirectoryEntryEESt10_Select1stIS5_ESt4lessIS1_ESaIS5_EE16_M_insert_uniqueERKS5_
__ZNSt6vectorISt4pairIN5clang8frontend15IncludeDirGroupENS1_15DirectoryLookupEESaIS5_EE13_M_insert_auxEN9__gnu_cxx17__normal_iteratorIPS5_S7_EERKS5_
__ZL16RemoveDuplicatesRSt6vectorIN5clang15DirectoryLookupESaIS1_EEjb
__ZN4llvm15SmallPtrSetImplD2Ev
__ZN4llvm15SmallPtrSetImpl10insert_impEPKv
__ZNSt6vectorIN5clang15DirectoryLookupESaIS1_EEaSERKS3_
__ZNK5clang18CompilerInvocation13getModuleHashEv
__ZN4llvm5APIntC1EjNS_8ArrayRefIyEE
__ZN4llvm5APInt13initFromArrayENS_8ArrayRefIyEE
__ZNK4llvm5APInt17countLeadingZerosEv
__ZN4llvm5APIntC2Ejyb
__ZN4llvm5APInt6divideES0_jRKS0_jPS0_S3_
__ZN4llvm5APInt14AssignSlowCaseERKS0_
__ZN5clang12HeaderSearch16configureModulesEN4llvm9StringRefES2_
__ZN5clang21TextDiagnosticPrinter15BeginSourceFileERKNS_11LangOptionsEPKNS_12PreprocessorE
__ZN5clang14FrontendAction21BeginSourceFileActionERNS_16CompilerInstanceEN4llvm9StringRefE
__ZNK5clang17ASTFrontendAction20usesPreprocessorOnlyEv
__ZN5clang16CompilerInstance16createASTContextEv
__ZN5clang10ASTContextC1ERNS_11LangOptionsERNS_13SourceManagerEPKNS_10TargetInfoERNS_15IdentifierTableERNS_13SelectorTableERNS_7Builtin7ContextEjb
__ZN5clang10ASTContextC2ERNS_11LangOptionsERNS_13SourceManagerEPKNS_10TargetInfoERNS_15IdentifierTableERNS_13SelectorTableERNS_7Builtin7ContextEjb
__ZN5clang17PartialDiagnostic16StorageAllocatorC1Ev
__ZN5clang17PartialDiagnostic16StorageAllocatorC2Ev
__ZN5clang11LangOptionsC2ERKS0_
__ZN5clang20DeclarationNameTableC1ERKNS_10ASTContextE
__ZN5clang20DeclarationNameTableC2ERKNS_10ASTContextE
__ZN5clang19TranslationUnitDecl6CreateERNS_10ASTContextE
__ZN5clang4Decl29getIdentifierNamespaceForKindENS0_4KindE
__ZN5clang4Decl15CollectingStatsEb
__ZN5clang10ASTContext16InitBuiltinTypesERKNS_10TargetInfoE
__ZNSt6vectorIPN5clang4TypeESaIS2_EE13_M_insert_auxEN9__gnu_cxx17__normal_iteratorIPS2_S4_EERKS2_
__ZNK5clang10ASTContext14getComplexTypeENS_8QualTypeE
__ZN4llvm16FoldingSetNodeID10AddPointerEPKv
__ZN4llvm14FoldingSetImpl19FindNodeOrInsertPosERKNS_16FoldingSetNodeIDERPv
__ZN4llvm14FoldingSetImpl10InsertNodeEPNS0_4NodeEPv
__ZNK5clang10ASTContext14getPointerTypeENS_8QualTypeE
__ZN5clang14FrontendAction24CreateWrappedASTConsumerERNS_16CompilerInstanceEN4llvm9StringRefE
__ZN5clang13CodeGenAction17CreateASTConsumerERNS_16CompilerInstanceEN4llvm9StringRefE
__ZL15GetOutputStreamRN5clang16CompilerInstanceEN4llvm9StringRefENS_13BackendActionE
__ZN5clang16CompilerInstance23createDefaultOutputFileEbN4llvm9StringRefES2_
__ZN5clang16CompilerInstance16createOutputFileEN4llvm9StringRefEbbS2_S2_b
__ZN5clang16CompilerInstance16createOutputFileEN4llvm9StringRefERSsbbS2_S2_bPSsS4_
__ZN4llvm14raw_fd_ostreamC1EPKcRSsj
__ZN4llvm14raw_fd_ostreamC2EPKcRSsj
__ZN4llvm3sys18RemoveFileOnSignalERKNS0_4PathEPSs
__ZNSt6vectorIN4llvm3sys4PathESaIS2_EE13_M_insert_auxEN9__gnu_cxx17__normal_iteratorIPS2_S4_EERKS2_
__ZN4llvm5Timer4initENS_9StringRefE
__ZN4llvm3sys11MemoryFenceEv
__ZN4llvm24llvm_acquire_global_lockEv
__ZN4llvm10TimerGroupC2ENS_9StringRefE
__ZN4llvm24llvm_release_global_lockEv
__ZN4llvm10TimerGroup8addTimerERNS_5TimerE
__ZN5clang17CreateLLVMCodeGenERNS_17DiagnosticsEngineERKSsRKNS_14CodeGenOptionsERN4llvm11LLVMContextE
__ZN5clang14CodeGenOptionsC2ERKS0_
__ZNSt6vectorISsSaISsEEC2ERKS1_
__ZN4llvm6ModuleC1ENS_9StringRefERNS_11LLVMContextE
__ZN4llvm6ModuleC2ENS_9StringRefERNS_11LLVMContextE
__ZN4llvm11LLVMContext9addModuleEPNS_6ModuleE
__ZN5clang11ASTConsumer22GetASTMutationListenerEv
__ZN5clang16CompilerInstance14setASTConsumerEPNS_11ASTConsumerE
__ZN5clang7Builtin7Context18InitializeBuiltinsERNS_15IdentifierTableERKNS_11LangOptionsE
__ZN5clang14FrontendAction7ExecuteEv
__ZN5clang16CompilerInstance23InitializeSourceManagerEN4llvm9StringRefE
__ZN5clang16CompilerInstance23InitializeSourceManagerEN4llvm9StringRefERNS_17DiagnosticsEngineERNS_11FileManagerERNS_13SourceManagerERKNS_15FrontendOptionsE
__ZN5clang11FileManager7getFileEN4llvm9StringRefEbb
__ZN4llvm9StringMapIPN5clang9FileEntryENS_16BumpPtrAllocatorEE16GetOrCreateValueIS3_EERNS_14StringMapEntryIS3_EENS_9StringRefET_
__ZN4llvm3sys4path12is_separatorEc
__ZNSt8_Rb_treeIN5clang9FileEntryES1_St9_IdentityIS1_ESt4lessIS1_ESaIS1_EE16_M_insert_uniqueERKS1_
__ZN5clang13SourceManager23getOrCreateContentCacheEPKNS_9FileEntryE
__ZN4llvm8DenseMapIPKN5clang9FileEntryEPNS1_6SrcMgr12ContentCacheENS_12DenseMapInfoIS4_EENS8_IS7_EEE16InsertIntoBucketERKS4_RKS7_PSt4pairIS4_S7_E
__ZN4llvm8DenseMapIPKN5clang9FileEntryEPNS1_6SrcMgr12ContentCacheENS_12DenseMapInfoIS4_EENS8_IS7_EEE4growEj
__ZN5clang13SourceManager12createFileIDEPKNS_6SrcMgr12ContentCacheENS_14SourceLocationENS1_18CharacteristicKindEij
__ZN5clang13CodeGenAction13ExecuteActionEv
__ZN5clang17ASTFrontendAction13ExecuteActionEv
__ZNK5clang14FrontendAction24hasCodeCompletionSupportEv
__ZN5clang14FrontendAction22getTranslationUnitKindEv
__ZN5clang16CompilerInstance10createSemaENS_19TranslationUnitKindEPNS_20CodeCompleteConsumerE
__ZN5clang4SemaC1ERNS_12PreprocessorERNS_10ASTContextERNS_11ASTConsumerENS_19TranslationUnitKindEPNS_20CodeCompleteConsumerE
__ZN5clang4SemaC2ERNS_12PreprocessorERNS_10ASTContextERNS_11ASTConsumerENS_19TranslationUnitKindEPNS_20CodeCompleteConsumerE
__ZN5clang18IdentifierResolverC1ERNS_12PreprocessorE
__ZN5clang4sema21AnalysisBasedWarningsC1ERNS_4SemaE
__ZNK5clang13DiagnosticIDs18getDiagnosticLevelEjNS_14SourceLocationERKNS_17DiagnosticsEngineE
__ZNK5clang13DiagnosticIDs18getDiagnosticLevelEjjNS_14SourceLocationERKNS_17DiagnosticsEngineE
__ZNK5clang17DiagnosticsEngine23GetDiagStatePointForLocENS_14SourceLocationE
__ZN5clang17DiagnosticsEngine9DiagState19getOrAddMappingInfoEj
__ZN4llvm8DenseMapIjN5clang21DiagnosticMappingInfoENS_12DenseMapInfoIjEENS3_IS2_EEE6insertERKSt4pairIjS2_E
__ZN5clang13DiagnosticIDs22isBuiltinExtensionDiagEjRb
__ZNSt11_Deque_baseISt4pairIPN5clang9ValueDeclENS1_14SourceLocationEESaIS5_EE17_M_initialize_mapEm
__ZN4llvm15SmallVectorImplIN5clang4Sema33ExpressionEvaluationContextRecordEE9push_backERKS3_
__ZN5clang8ParseASTERNS_4SemaEb
__ZN5clang6ParserC1ERNS_12PreprocessorERNS_4SemaE
__ZN5clang6ParserC2ERNS_12PreprocessorERNS_4SemaE
__ZN5clang16AttributeFactoryC1Ev
__ZNSt11_Deque_baseIPN5clang6Parser12ParsingClassESaIS3_EE17_M_initialize_mapEm
__ZNSt5dequeIPN5clang6Parser12ParsingClassESaIS3_EEC2ERKS5_
__ZN4llvm20CrashRecoveryContext10GetCurrentEv
__ZN5clang12Preprocessor19EnterMainSourceFileEv
__ZN5clang12Preprocessor15EnterSourceFileENS_6FileIDEPKNS_15DirectoryLookupENS_14SourceLocationE
__ZNK5clang13SourceManager9getBufferENS_6FileIDENS_14SourceLocationEPb
__ZNK5clang6SrcMgr12ContentCache9getBufferERNS_17DiagnosticsEngineERKNS_13SourceManagerENS_14SourceLocationEPb
__ZN5clang11FileManager16getBufferForFileEPKNS_9FileEntryEPSs
__ZN4llvm12MemoryBuffer7getFileEPKcRNS_9OwningPtrIS0_EExb
__ZN4llvm12MemoryBuffer11getOpenFileEiPKcRNS_9OwningPtrIS0_EEyyxb
__ZN4llvm3sys7Process11GetPageSizeEv
__ZN5clang5LexerC1ENS_6FileIDEPKN4llvm12MemoryBufferERNS_12PreprocessorE
__ZN5clang5LexerC2ENS_6FileIDEPKN4llvm12MemoryBufferERNS_12PreprocessorE
__ZN5clang17PreprocessorLexerC2EPNS_12PreprocessorENS_6FileIDE
__ZN5clang12Preprocessor24EnterSourceFileWithLexerEPNS_5LexerEPKNS_15DirectoryLookupE
__ZN5clang12HeaderSearch11getFileInfoEPKNS_9FileEntryE
__ZNSt6vectorIN5clang14HeaderFileInfoESaIS1_EE14_M_fill_insertEN9__gnu_cxx17__normal_iteratorIPS1_S3_EEmRKS1_
__ZN4llvm12MemoryBuffer16getMemBufferCopyENS_9StringRefES1_
__ZN5clang13SourceManager27createMemBufferContentCacheEPKN4llvm12MemoryBufferE
__ZNSt6vectorIPN5clang6SrcMgr12ContentCacheESaIS3_EE13_M_insert_auxEN9__gnu_cxx17__normal_iteratorIPS3_S5_EERKS3_
__ZNSt6vectorIN5clang12Preprocessor16IncludeStackInfoESaIS2_EE13_M_insert_auxEN9__gnu_cxx17__normal_iteratorIPS2_S4_EERKS2_
__ZN5clang6Parser10InitializeEv
__ZN5clang6Parser10EnterScopeEj
__ZN5clang5Scope4InitEPS0_j
__ZN5clang4Sema25ActOnTranslationUnitScopeEPNS_5ScopeE
__ZN5clang4Sema15PushDeclContextEPNS_5ScopeEPNS_11DeclContextE
__ZN5clang17ObjCInterfaceDecl6CreateERNS_10ASTContextEPNS_11DeclContextENS_14SourceLocationEPNS_14IdentifierInfoES5_bb
__ZN5clang17ObjCInterfaceDeclC2EPNS_11DeclContextENS_14SourceLocationEPNS_14IdentifierInfoES3_bb
__ZNK5clang10ASTContext20getObjCInterfaceTypeEPKNS_17ObjCInterfaceDeclE
__ZN5clang10ASTContext16setObjCProtoTypeENS_8QualTypeE
__ZN5clang4Sema17PushOnScopeChainsEPNS_9NamedDeclEPNS_5ScopeEb
__ZNK5clang11DeclContext20isTransparentContextEv
__ZN5clang18IdentifierResolver5beginENS_15DeclarationNameE
__ZNK5clang15DeclarationName20getFETokenInfoAsVoidEv
__ZN5clang18IdentifierResolver7AddDeclEPNS_9NamedDeclE
__ZN5clang15DeclarationName14setFETokenInfoEPv
__ZN5clang12Preprocessor3LexERNS_5TokenE
__ZN5clang5Lexer16LexTokenInternalERNS_5TokenE
__ZN5clang12Preprocessor15HandleDirectiveERNS_5TokenE
__ZN5clang5Lexer18LexNumericConstantERNS_5TokenEPKc
__ZN5clang12Preprocessor20HandleDigitDirectiveERNS_5TokenE
__ZL12GetLineValueRN5clang5TokenERjjRNS_12PreprocessorE
__ZN5clang5Lexer11getSpellingERKNS_5TokenERPKcRKNS_13SourceManagerERKNS_11LangOptionsEPb
__ZN5clang5Lexer16LexStringLiteralERNS_5TokenEPKcNS_3tok9TokenKindE
__ZN5clang19StringLiteralParserC1EPKNS_5TokenEjRNS_12PreprocessorEb
__ZN5clang19StringLiteralParser4initEPKNS_5TokenEj
__ZN5clang19StringLiteralParser18CopyStringFragmentEN4llvm9StringRefE
__ZN5clang13SourceManager22getLineTableFilenameIDEN4llvm9StringRefE
__ZN4llvm9StringMapIjNS_16BumpPtrAllocatorEE16GetOrCreateValueIjEERNS_14StringMapEntryIjEENS_9StringRefET_
__ZNSt6vectorIPN4llvm14StringMapEntryIjEESaIS3_EE13_M_insert_auxEN9__gnu_cxx17__normal_iteratorIPS3_S5_EERKS3_
__ZN5clang13SourceManager11AddLineNoteENS_14SourceLocationEjibbbb
__ZNK5clang13SourceManager25getDecomposedExpansionLocENS_14SourceLocationE
__ZNK5clang13SourceManager16isOffsetInFileIDENS_6FileIDEj
__ZN5clang13LineTableInfo11AddLineNoteEijjijNS_6SrcMgr18CharacteristicKindE
__ZNSt8_Rb_treeIiSt4pairIKiSt6vectorIN5clang9LineEntryESaIS4_EEESt10_Select1stIS7_ESt4lessIiESaIS7_EE16_M_insert_uniqueESt17_Rb_tree_iteratorIS7_ERKS7_
__ZNSt8_Rb_treeIiSt4pairIKiSt6vectorIN5clang9LineEntryESaIS4_EEESt10_Select1stIS7_ESt4lessIiESaIS7_EE16_M_insert_uniqueERKS7_
__ZNSt6vectorIN5clang9LineEntryESaIS1_EEC2ERKS3_
__ZNSt6vectorIN5clang9LineEntryESaIS1_EE13_M_insert_auxEN9__gnu_cxx17__normal_iteratorIPS1_S3_EERKS1_
__ZN5clang5Lexer13LexIdentifierERNS_5TokenEPKc
__ZNK5clang12Preprocessor20LookUpIdentifierInfoERNS_5TokenE
__ZNK5clang14IdentifierInfo14getPPKeywordIDEv
__ZN5clang12Preprocessor21HandleDefineDirectiveERNS_5TokenE
__ZN5clang12Preprocessor13ReadMacroNameERNS_5TokenEc
__ZNK5clang12Preprocessor15isInPrimaryFileEv
__ZN5clang4Sema10InitializeEv
__ZN5clang15BackendConsumer10InitializeERNS_10ASTContextE
__ZN12_GLOBAL__N_117CodeGeneratorImpl10InitializeERN5clang10ASTContextE
__ZN4llvm4PassC2ENS_8PassKindERc
__ZN4llvm10TargetData14parseSpecifierENS_9StringRefEPS0_
__ZN4llvm10TargetData4initEv
__ZN4llvm24initializeTargetDataPassERNS_12PassRegistryE
__ZN4llvm3sys14CompareAndSwapEPVjjj
__ZN4llvm12PassRegistry12registerPassERKNS_8PassInfoEb
__ZN4llvm8DenseMapIPKvPKNS_8PassInfoENS_12DenseMapInfoIS2_EENS6_IS5_EEE6insertERKSt4pairIS2_S5_E
__ZN4llvm8DenseMapIPKvPKNS_8PassInfoENS_12DenseMapInfoIS2_EENS6_IS5_EEE16InsertIntoBucketERKS2_RKS5_PSt4pairIS2_S5_E
__ZN4llvm8DenseMapIPKvPKNS_8PassInfoENS_12DenseMapInfoIS2_EENS6_IS5_EEE4growEj
__ZN4llvm9StringMapIPKNS_8PassInfoENS_15MallocAllocatorEE16GetOrCreateValueIS3_EERNS_14StringMapEntryIS3_EENS_9StringRefET_
__ZN4llvm14PassNameParser14passRegisteredEPKNS_8PassInfoE
__ZNK4llvm14PassNameParser17ignorablePassImplEPKNS_8PassInfoE
__ZNK4llvm2cl6parserIPKNS_8PassInfoEE13getNumOptionsEv
__ZNSt6vectorIPKN4llvm8PassInfoESaIS3_EE13_M_insert_auxEN9__gnu_cxx17__normal_iteratorIPS3_S5_EERKS3_
__ZN4llvm15SmallVectorImplINS_15TargetAlignElemEE9push_backERKS1_
__ZN5clang7CodeGen13CodeGenModuleC1ERNS_10ASTContextERKNS_14CodeGenOptionsERN4llvm6ModuleERKNS7_10TargetDataERNS_17DiagnosticsEngineE
__ZN5clang7CodeGen13CodeGenModuleC2ERNS_10ASTContextERKNS_14CodeGenOptionsERN4llvm6ModuleERKNS7_10TargetDataERNS_17DiagnosticsEngineE
__ZNK5clang10TargetInfo9getCXXABIEv
__ZN5clang7CodeGen19CreateItaniumCXXABIERNS0_13CodeGenModuleE
__ZN5clang10ASTContext19createMangleContextEv
__ZN5clang26createItaniumMangleContextERNS_10ASTContextERNS_17DiagnosticsEngineE
__ZN5clang7CodeGen13CodeGenModule20getTargetCodeGenInfoEv
__ZNK12_GLOBAL__N_113X86TargetInfo6getABIEv
__ZN5clang7CodeGen12CodeGenTypesC1ERNS_10ASTContextERN4llvm6ModuleERKNS4_10TargetDataERKNS_7ABIInfoERNS0_8CGCXXABIERKNS_14CodeGenOptionsE
__ZN5clang7CodeGen14CodeGenVTablesC1ERNS0_13CodeGenModuleE
__ZN5clang7CodeGen20CreateMacObjCRuntimeERNS0_13CodeGenModuleE
__ZN12_GLOBAL__N_121ObjCCommonTypesHelperC2ERN5clang7CodeGen13CodeGenModuleE
__ZN5clang7CodeGen12CodeGenTypes11ConvertTypeENS_8QualTypeE
__ZNK5clang10ASTContext11getTypeInfoEPKNS_4TypeE
__ZN4llvm11IntegerType3getERNS_11LLVMContextEj
__ZN4llvm8DenseMapIPKN5clang4TypeEPNS_4TypeENS_12DenseMapInfoIS4_EENS7_IS6_EEE16InsertIntoBucketERKS4_RKS6_PSt4pairIS4_S6_E
__ZN4llvm8DenseMapIPKN5clang4TypeEPNS_4TypeENS_12DenseMapInfoIS4_EENS7_IS6_EEE4growEj
__ZN4llvm4Type12getInt8PtrTyERNS_11LLVMContextEj
__ZN4llvm11PointerType3getEPNS_4TypeEj
__ZN4llvm8DenseMapIPNS_4TypeEPNS_11PointerTypeENS_12DenseMapInfoIS2_EENS5_IS4_EEE16InsertIntoBucketERKS2_RKS4_PSt4pairIS2_S4_E
__ZN4llvm8DenseMapIPNS_4TypeEPNS_11PointerTypeENS_12DenseMapInfoIS2_EENS5_IS4_EEE4growEj
__ZNK5clang10ASTContext13getObjCIdDeclEv
__ZNK5clang10ASTContext17getObjCObjectTypeENS_8QualTypeEPKPNS_16ObjCProtocolDeclEj
__ZN5clang18ObjCObjectTypeImpl7ProfileERN4llvm16FoldingSetNodeIDENS_8QualTypeEPKPNS_16ObjCProtocolDeclEj
__ZN5clang14ObjCObjectTypeC2ENS_8QualTypeES1_PKPNS_16ObjCProtocolDeclEj
__ZNK5clang10ASTContext24getObjCObjectPointerTypeENS_8QualTypeE
__ZN5clang7TypeLoc22getFullDataSizeForTypeENS_8QualTypeE
__ZN5clang14TypeLocVisitorIN12_GLOBAL__N_19TypeSizerEjE5VisitENS_7TypeLocE
__ZNK5clang15ConcreteTypeLocINS_13UnqualTypeLocENS_17ObjCObjectTypeLocENS_14ObjCObjectTypeENS_23ObjCProtocolListLocInfoEE16getInnerTypeSizeEv
__ZN5clang7TypeLoc14initializeImplERNS_10ASTContextES0_NS_14SourceLocationE
__ZN5clang11TypedefDecl6CreateERNS_10ASTContextEPNS_11DeclContextENS_14SourceLocationES5_PNS_14IdentifierInfoEPNS_14TypeSourceInfoE
__ZNK5clang10ASTContext19getTypeDeclTypeSlowEPKNS_8TypeDeclE
__ZNK5clang10ASTContext14getTypedefTypeEPKNS_15TypedefNameDeclENS_8QualTypeE
__ZN4llvm4Type9getInt8TyERNS_11LLVMContextE
__ZNK4llvm4Type11isIntegerTyEj
__ZN4llvm4Type12getPointerToEj
__ZNK5clang10ASTContext14getObjCSelDeclEv
__ZN4llvm8DenseMapIPKN5clang17ObjCInterfaceTypeEPNS_4TypeENS_12DenseMapInfoIS4_EENS7_IS6_EEE16InsertIntoBucketERKS4_RKS6_PSt4pairIS4_S6_E
__ZN4llvm8DenseMapIPKN5clang17ObjCInterfaceTypeEPNS_4TypeENS_12DenseMapInfoIS4_EENS7_IS6_EEE4growEj
__ZN4llvm10StructType6createERNS_11LLVMContextE
__ZN5clang10RecordDecl6CreateERKNS_10ASTContextENS_11TagTypeKindEPNS_11DeclContextENS_14SourceLocationES7_PNS_14IdentifierInfoEPS0_
__ZN5clang7TagDeclC2ENS_4Decl4KindENS_11TagTypeKindEPNS_11DeclContextENS_14SourceLocationEPNS_14IdentifierInfoEPS0_S6_
__ZN5clang12RedeclarableINS_7TagDeclEE22setPreviousDeclarationEPS1_
__ZN5clang9NamedDecl17ClearLinkageCacheEv
__ZNK5clang10ASTContext13getRecordTypeEPKNS_10RecordDeclE
__ZN5clang7TagTypeC2ENS_4Type9TypeClassEPKNS_7TagDeclENS_8QualTypeE
__ZNK5clang11DeclContext18isDependentContextEv
__ZN5clang9FieldDecl6CreateERKNS_10ASTContextEPNS_11DeclContextENS_14SourceLocationES6_PNS_14IdentifierInfoENS_8QualTypeEPNS_14TypeSourceInfoEPNS_4ExprEbb
__ZN5clang9FieldDeclC2ENS_4Decl4KindEPNS_11DeclContextENS_14SourceLocationES5_PNS_14IdentifierInfoENS_8QualTypeEPNS_14TypeSourceInfoEPNS_4ExprEbb
__ZN5clang11DeclContext7addDeclEPNS_4DeclE
__ZN5clang11DeclContext33makeDeclVisibleInContextWithFlagsEPNS_9NamedDeclEbb
__ZN5clang11DeclContext17getPrimaryContextEv
__ZNK5clang7TagDecl13getDefinitionEv
__ZNK5clang7TagType14isBeingDefinedEv
__ZN5clang4Decl22getTranslationUnitDeclEv
__ZNK5clang10ASTContext16getObjCClassDeclEv
__ZNK4llvm10FoldingSetIN5clang21ObjCObjectPointerTypeEE10NodeEqualsEPNS_14FoldingSetImpl4NodeERKNS_16FoldingSetNodeIDERS7_
__ZNK4llvm16FoldingSetNodeIDeqERKS0_
__ZN5clang10RecordDecl18completeDefinitionEv
__ZNK5clang4Decl22getASTMutationListenerEv
__ZNK5clang10ASTContext14getTagDeclTypeEPKNS_7TagDeclE
__ZN5clang10RecordType7classofEPKNS_7TagTypeE
__ZNK5clang7TagType7getDeclEv
__ZN5clang7CodeGen12CodeGenTypes21ConvertRecordDeclTypeEPKNS_10RecordDeclE
__ZN4llvm8DenseMapIPKN5clang4TypeEPNS_10StructTypeENS_12DenseMapInfoIS4_EENS7_IS6_EEE16InsertIntoBucketERKS4_RKS6_PSt4pairIS4_S6_E
__ZN4llvm8DenseMapIPKN5clang4TypeEPNS_10StructTypeENS_12DenseMapInfoIS4_EENS7_IS6_EEE4growEj
__ZN5clang7CodeGen12CodeGenTypes17addRecordTypeNameEPKNS_10RecordDeclEPN4llvm10StructTypeENS5_9StringRefE
__ZN5clang15TypeWithKeyword24getKeywordForTagTypeKindENS_11TagTypeKindE
__ZN5clang15TypeWithKeyword14getKeywordNameENS_21ElaboratedTypeKeywordE
__ZNK5clang9NamedDecl24getQualifiedNameAsStringEv
__ZNK5clang4Decl13getASTContextEv
__ZNK5clang9NamedDecl24getQualifiedNameAsStringERKNS_14PrintingPolicyE
__ZNK5clang15DeclarationName9printNameERN4llvm11raw_ostreamE
__ZN4llvm19raw_svector_ostream3strEv
__ZN4llvm10StructType7setNameENS_9StringRefE
__ZN4llvm9StringMapIPNS_10StructTypeENS_15MallocAllocatorEE16GetOrCreateValueIS2_EERNS_14StringMapEntryIS2_EENS_9StringRefET_
__ZN5clang7CodeGen12CodeGenTypes19ComputeRecordLayoutEPKNS_10RecordDeclEPN4llvm10StructTypeE
__ZNK5clang10ASTContext18getASTRecordLayoutEPKNS_10RecordDeclE
__ZN4llvm8DenseMapIPKN5clang10RecordDeclEPKNS1_15ASTRecordLayoutENS_12DenseMapInfoIS4_EENS8_IS7_EEE16InsertIntoBucketERKS4_RKS7_PSt4pairIS4_S7_E
__ZN4llvm8DenseMapIPKN5clang10RecordDeclEPKNS1_15ASTRecordLayoutENS_12DenseMapInfoIS4_EENS8_IS7_EEE4growEj
__ZN12_GLOBAL__N_119RecordLayoutBuilder16InitializeLayoutEPKN5clang4DeclE
__ZNK5clang4Decl15getMaxAlignmentEv
__ZN12_GLOBAL__N_119RecordLayoutBuilder12LayoutFieldsEPKN5clang10RecordDeclE
__ZNK5clang10RecordDecl11field_beginEv
__ZN12_GLOBAL__N_119RecordLayoutBuilder11LayoutFieldEPKN5clang9FieldDeclE
__ZNK5clang10ASTContext19toCharUnitsFromBitsEx
__ZNK5clang10ASTContext18getTypeInfoInCharsENS_8QualTypeE
__ZNK5clang10ASTContext6toBitsENS_9CharUnitsE
__ZN12_GLOBAL__N_119RecordLayoutBuilder17CheckFieldPaddingEyyyjbPKN5clang9FieldDeclE
__ZN12_GLOBAL__N_119RecordLayoutBuilder12FinishLayoutEPKN5clang9NamedDeclE
__ZN5clang15ASTRecordLayoutC1ERKNS_10ASTContextENS_9CharUnitsES4_S4_PKyj
__ZN12_GLOBAL__N_119RecordLayoutBuilderD1Ev
__ZN4llvm16BumpPtrAllocator5ResetEv
__ZN12_GLOBAL__N_121CGRecordLayoutBuilder12LayoutFieldsEPKN5clang10RecordDeclE
__ZN5clang7CodeGen12CodeGenTypes17ConvertTypeForMemENS_8QualTypeE
__ZNK4llvm10TargetData19getABITypeAlignmentEPNS_4TypeE
__ZNK4llvm10TargetData12getAlignmentEPNS_4TypeEb
__ZN4llvm8DenseMapIPKN5clang9FieldDeclEjNS_12DenseMapInfoIS4_EENS5_IjEEE16InsertIntoBucketERKS4_RKjPSt4pairIS4_jE
__ZN4llvm8DenseMapIPKN5clang9FieldDeclEjNS_12DenseMapInfoIS4_EENS5_IjEEE4growEj
__ZN12_GLOBAL__N_121CGRecordLayoutBuilder11AppendFieldEN5clang9CharUnitsEPN4llvm4TypeE
__ZNK4llvm10TargetData17getTypeSizeInBitsEPNS_4TypeE
__ZN4llvm10StructType7setBodyENS_8ArrayRefIPNS_4TypeEEEb
__ZN4llvm8DenseMapIPKN5clang4TypeEPNS1_7CodeGen14CGRecordLayoutENS_12DenseMapInfoIS4_EENS8_IS7_EEE16InsertIntoBucketERKS4_RKS7_PSt4pairIS4_S7_E
__ZN4llvm8DenseMapIPKN5clang4TypeEPNS1_7CodeGen14CGRecordLayoutENS_12DenseMapInfoIS4_EENS8_IS7_EEE4growEj
__ZN4llvm15SmallPtrSetImpl9erase_impEPKv
__ZN4llvm10StructType6createENS_9StringRefEPNS_4TypeEz
__ZN4llvm9ArrayType3getEPNS_4TypeEy
__ZNK4llvm8DenseMapISt4pairIPNS_4TypeEyEPNS_9ArrayTypeENS_12DenseMapInfoIS4_EENS7_IS6_EEE15LookupBucketForERKS4_RPS1_IS4_S6_E
__ZN4llvm8DenseMapISt4pairIPNS_4TypeEyEPNS_9ArrayTypeENS_12DenseMapInfoIS4_EENS7_IS6_EEE16InsertIntoBucketERKS4_RKS6_PS1_IS4_S6_E
__ZN4llvm8DenseMapISt4pairIPNS_4TypeEyEPNS_9ArrayTypeENS_12DenseMapInfoIS4_EENS7_IS6_EEE4growEj
__ZN4llvm10StructType6createERNS_11LLVMContextENS_9StringRefE
__ZN4llvm10StructType7setBodyEPNS_4TypeEz
__ZN4llvm12FunctionType3getEPNS_4TypeENS_8ArrayRefIS2_EEb
__ZNSt3mapISt6vectorIPN4llvm4TypeESaIS3_EEPNS1_12FunctionTypeESt4lessIS5_ESaISt4pairIKS5_S7_EEEixERSB_
__ZNSt8_Rb_treeISt6vectorIPN4llvm4TypeESaIS3_EESt4pairIKS5_PNS1_12FunctionTypeEESt10_Select1stISA_ESt4lessIS5_ESaISA_EE16_M_insert_uniqueERKSA_
__ZNSt8_Rb_treeISt6vectorIPN4llvm4TypeESaIS3_EESt4pairIKS5_PNS1_12FunctionTypeEESt10_Select1stISA_ESt4lessIS5_ESaISA_EE16_M_insert_uniqueESt17_Rb_tree_iteratorISA_ERKSA_
__ZNSt8_Rb_treeISt6vectorIPN4llvm4TypeESaIS3_EESt4pairIKS5_PNS1_12FunctionTypeEESt10_Select1stISA_ESt4lessIS5_ESaISA_EE9_M_insertEPSt18_Rb_tree_node_baseSI_RKSA_
__ZN4llvm4Type9getVoidTyERNS_11LLVMContextE
__ZN4llvm4Type10getInt32TyERNS_11LLVMContextE
__ZN4llvm4Type10getInt64TyERNS_11LLVMContextE
__ZN12_GLOBAL__N_117CodeGeneratorImpl9GetModuleEv
__ZNK5clang10ASTContext13getInt128DeclEv
__ZNK5clang10ASTContext14getUInt128DeclEv
__ZN5clang6Parser17ParseTopLevelDeclERNS_9OpaquePtrINS_12DeclGroupRefEEE
__ZN5clang6Parser24ParseExternalDeclarationERNS0_25ParsedAttributesWithRangeEPNS0_15ParsingDeclSpecE
__ZN5clang6Parser16ParseDeclarationERNS_15ASTOwningVectorIPNS_4StmtELj32EEEjRNS_14SourceLocationERNS0_25ParsedAttributesWithRangeE
__ZNK5clang4Sema18getObjCDeclContextEv
__ZN5clang6Parser22ParseSimpleDeclarationERNS_15ASTOwningVectorIPNS_4StmtELj32EEEjRNS_14SourceLocationERNS_16ParsedAttributesEbPNS0_12ForRangeInitE
__ZN5clang29NestedNameSpecifierLocBuilderC1Ev
__ZN5clang6Parser26ParseDeclarationSpecifiersERNS_8DeclSpecERKNS0_18ParsedTemplateInfoENS_15AccessSpecifierENS0_15DeclSpecContextE
__ZN5clang8DeclSpec19SetStorageClassSpecERNS_4SemaENS0_3SCSENS_14SourceLocationERPKcRj
__ZN5clang6Parser19ParseClassSpecifierENS_3tok9TokenKindENS_14SourceLocationERNS_8DeclSpecERKNS0_18ParsedTemplateInfoENS_15AccessSpecifierEbb
__ZN5clang6Parser25MaybeParseCXX0XAttributesERNS_16ParsedAttributesEPNS_14SourceLocationE
__ZN5clang4Sema8ActOnTagEPNS_5ScopeEjNS0_10TagUseKindENS_14SourceLocationERNS_12CXXScopeSpecEPNS_14IdentifierInfoES4_PNS_13AttributeListENS_15AccessSpecifierES4_NS_11ASTMultiPtrIPNS_21TemplateParameterListEEERbSG_bbNS_12ActionResultINS_9OpaquePtrINS_8QualTypeEEELb0EEE
__ZN5clang15TypeWithKeyword25getTagTypeKindForTypeSpecEj
__ZN5clang18DeclarationNameLocC1ENS_15DeclarationNameE
__ZN5clang12LookupResult9configureEv
__ZN5clang4Sema10LookupNameERNS_12LookupResultEPNS_5ScopeEb
__ZNK5clang12LookupResult6sanityEv
__ZN5clang4Sema31AddAlignmentAttributesForRecordEPNS_10RecordDeclE
__ZN5clang4Sema26AddMsStructLayoutForRecordEPNS_10RecordDeclE
__ZN5clang4Decl21setLexicalDeclContextEPNS_11DeclContextE
__ZN5clang7TagDecl15startDefinitionEv
__ZN5clang11DeclContext16getRedeclContextEv
__ZN5clang12LookupResultD2Ev
__ZN5clang6Parser20ParseStructUnionBodyENS_14SourceLocationEjPNS_4DeclE
__ZN5clang6Parser24BalancedDelimiterTracker11consumeOpenEv
__ZN5clang6Parser15ConsumeAnyTokenEv
__ZN5clang4Sema23ActOnTagStartDefinitionEPNS_5ScopeEPNS_4DeclE
__ZN5clang4Sema20AdjustDeclIfTemplateERPNS_4DeclE
__ZN5clang6Parser22ParseStructDeclarationERNS_8DeclSpecERNS0_13FieldCallbackE
__ZN5clang6Parser27ParseSpecifierQualifierListERNS_8DeclSpecENS_15AccessSpecifierE
__ZN5clang8DeclSpec15SetTypeSpecSignENS_17TypeSpecifierSignENS_14SourceLocationERPKcRj
__ZN5clang8DeclSpec6FinishERNS_17DiagnosticsEngineERNS_12PreprocessorE
__ZNK5clang8DeclSpec19getParsedSpecifiersEv
__ZN5clang6Parser23ParseDeclaratorInternalERNS_10DeclaratorEMS0_FvS2_E
__ZN5clang6Parser21ParseDirectDeclaratorERNS_10DeclaratorE
__ZN5clang6Parser25MaybeParseCXX0XAttributesERNS_10DeclaratorE
__ZZN5clang6Parser20ParseStructUnionBodyENS_14SourceLocationEjPNS_4DeclEEN14CFieldCallback6invokeERNS_15FieldDeclaratorE
__ZN5clang4Sema10ActOnFieldEPNS_5ScopeEPNS_4DeclENS_14SourceLocationERNS_10DeclaratorEPNS_4ExprE
__ZN5clang4Sema11HandleFieldEPNS_5ScopeEPNS_10RecordDeclENS_14SourceLocationERNS_10DeclaratorEPNS_4ExprEbNS_15AccessSpecifierE
__ZN5clang4Sema20GetTypeForDeclaratorERNS_10DeclaratorEPNS_5ScopeE
__ZL28GetDeclSpecTypeForDeclaratorRN12_GLOBAL__N_119TypeProcessingStateERPN5clang14TypeSourceInfoE
__ZL24GetFullTypeForDeclaratorRN12_GLOBAL__N_119TypeProcessingStateEN5clang8QualTypeEPNS2_14TypeSourceInfoE
__ZN5clang4Sema30GetTypeSourceInfoForDeclaratorERNS_10DeclaratorENS_8QualTypeEPNS_14TypeSourceInfoE
__ZNK5clang10ASTContext20CreateTypeSourceInfoENS_8QualTypeEj
__ZN5clang14TypeLocVisitorIN12_GLOBAL__N_117TypeSpecLocFillerEvE5VisitENS_13UnqualTypeLocE
__ZN12_GLOBAL__N_119TypeProcessingStateD1Ev
__ZN5clang4Sema26DiagnoseFunctionSpecifiersERNS_10DeclaratorE
__ZN5clang4Sema14CheckFieldDeclENS_15DeclarationNameENS_8QualTypeEPNS_14TypeSourceInfoEPNS_10RecordDeclENS_14SourceLocationEbPNS_4ExprEbS7_NS_15AccessSpecifierEPNS_9NamedDeclEPNS_10DeclaratorE
__ZNK5clang10ASTContext18getBaseElementTypeENS_8QualTypeE
__ZN5clang8QualType21getSplitDesugaredTypeES0_
__ZN5clang4Sema19RequireCompleteTypeENS_14SourceLocationENS_8QualTypeEj
__ZN5clang4Sema19RequireCompleteTypeENS_14SourceLocationENS_8QualTypeERKNS_17PartialDiagnosticESt4pairIS1_S3_E
__ZNK5clang4Type16isIncompleteTypeEv
__ZN5clang17PartialDiagnostic11freeStorageEv
__ZN5clang4Sema22RequireNonAbstractTypeENS_14SourceLocationENS_8QualTypeEjNS0_17AbstractDiagSelIDE
__ZNK5clang17PartialDiagnostic10getStorageEv
__ZN5clang17PartialDiagnostic16StorageAllocator8AllocateEv
__ZN5clang4Sema22RequireNonAbstractTypeENS_14SourceLocationENS_8QualTypeERKNS_17PartialDiagnosticE
__ZN5clang4Sema21ProcessDeclAttributesEPNS_5ScopeEPNS_4DeclERKNS_10DeclaratorEbb
__ZN5clang4Sema37LoadExternalWeakUndeclaredIdentifiersEv
__ZN5clang4Sema18DelayedDiagnostics14popParsingDeclERS0_NS0_16ParsingDeclStateEPNS_4DeclE
__ZN5clang10Declarator5clearEv
__ZN5clang13UnqualifiedId5clearEv
__ZN5clang29NestedNameSpecifierLocBuilderD1Ev
__ZN5clang8DeclSpec15SetTypeSpecTypeENS_17TypeSpecifierTypeENS_14SourceLocationERPKcRj
__ZN5clang6Parser25ParseTypeQualifierListOptERNS_8DeclSpecEbb
__ZN4llvm15SmallVectorImplIN5clang15DeclaratorChunkEE9push_backERKS2_
__ZN5clang4Sema16BuildPointerTypeENS_8QualTypeENS_14SourceLocationENS_15DeclarationNameE
__ZNK4llvm10FoldingSetIN5clang11PointerTypeEE10NodeEqualsEPNS_14FoldingSetImpl4NodeERKNS_16FoldingSetNodeIDERS7_
__ZN5clang7TypeLoc18getNextTypeLocImplES0_
__ZN5clang6Parser24BalancedDelimiterTracker12consumeCloseEv
__ZN5clang4Sema11ActOnFieldsEPNS_5ScopeENS_14SourceLocationEPNS_4DeclEN4llvm8ArrayRefIS5_EES3_S3_PNS_13AttributeListE
__ZNK5clang9FieldDecl24isAnonymousStructOrUnionEv
__ZN5clang4Sema28AddPushedVisibilityAttributeEPNS_4DeclE
__ZN5clang6Parser9ExitScopeEv
__ZN5clang4Sema13ActOnPopScopeENS_14SourceLocationEPNS_5ScopeE
__ZN5clang4Sema18DiagnoseUnusedDeclEPKNS_9NamedDeclE
__ZNK5clang4Decl6isUsedEb
__ZN5clang4Decl20getNextRedeclarationEv
__ZN5clang18IdentifierResolver10RemoveDeclEPNS_9NamedDeclE
__ZN5clang4Sema24ActOnTagFinishDefinitionEPNS_5ScopeEPNS_4DeclENS_14SourceLocationE
__ZN5clang4Sema15getContainingDCEPNS_11DeclContextE
__ZN5clang4Decl19castFromDeclContextEPKNS_11DeclContextE
__ZN5clang15BackendConsumer23HandleTagDeclDefinitionEPNS_7TagDeclE
__ZN12_GLOBAL__N_117CodeGeneratorImpl23HandleTagDeclDefinitionEPN5clang7TagDeclE
__ZN5clang7CodeGen13CodeGenModule19UpdateCompletedTypeEPKNS_7TagDeclE
__ZN5clang7CodeGen12CodeGenTypes19UpdateCompletedTypeEPKNS_7TagDeclE
__ZN5clang8DeclSpec15SetTypeSpecTypeENS_17TypeSpecifierTypeENS_14SourceLocationES2_RPKcRjPNS_4DeclEb
__ZN5clang4Sema12ActOnVlaStmtERKNS_8DeclSpecE
__ZN5clang6Parser14ParseDeclGroupERNS0_15ParsingDeclSpecEjbPNS_14SourceLocationEPNS0_12ForRangeInitE
__ZN5clang6Parser30ParseAttributesAfterDeclaratorERNS_10DeclaratorE
__ZN5clang6Parser44ParseDeclarationAfterDeclaratorAndAttributesERNS_10DeclaratorERKNS0_18ParsedTemplateInfoE
__ZN5clang4Sema15ActOnDeclaratorEPNS_5ScopeERNS_10DeclaratorE
__ZN5clang4Sema16HandleDeclaratorEPNS_5ScopeERNS_10DeclaratorENS_11ASTMultiPtrIPNS_21TemplateParameterListEEE
__ZN5clang4Sema24GetNameFromUnqualifiedIdERKNS_13UnqualifiedIdE
__ZN5clang4Sema31DiagnoseUnexpandedParameterPackERKNS_19DeclarationNameInfoENS0_30UnexpandedParameterPackContextE
__ZNK5clang15DeclarationName11getNameKindEv
__ZN5clang4Sema23DiagnoseClassNameShadowEPNS_11DeclContextENS_19DeclarationNameInfoE
__ZN5clang4Sema17DiagnoseUseOfDeclEPNS_9NamedDeclENS_14SourceLocationEPKNS_17ObjCInterfaceDeclE
__ZNK5clang4Decl15getAvailabilityEPSs
__ZN5clang15TypeWithKeyword21getKeywordForTypeSpecEj
__ZNK5clang10ASTContext17getElaboratedTypeENS_21ElaboratedTypeKeywordEPNS_19NestedNameSpecifierENS_8QualTypeE
__ZN4llvm16FoldingSetNodeID10AddIntegerEi
__ZN12_GLOBAL__N_117TypeSpecLocFiller22VisitElaboratedTypeLocEN5clang17ElaboratedTypeLocE
__ZNK5clang12CXXScopeSpec19getWithLocInContextERNS_10ASTContextE
__ZN5clang4Sema31DiagnoseUnexpandedParameterPackENS_14SourceLocationEPNS_14TypeSourceInfoENS0_30UnexpandedParameterPackContextE
__ZN5clang4Sema22ActOnTypedefDeclaratorEPNS_5ScopeERNS_10DeclaratorEPNS_11DeclContextEPNS_14TypeSourceInfoERNS_12LookupResultE
__ZN5clang4Sema16ParseTypedefDeclEPNS_5ScopeERNS_10DeclaratorENS_8QualTypeEPNS_14TypeSourceInfoE
__ZN5clang4Sema35CheckTypedefForVariablyModifiedTypeEPNS_5ScopeEPNS_15TypedefNameDeclE
__ZN5clang4Sema20ActOnTypedefNameDeclEPNS_5ScopeEPNS_11DeclContextEPNS_15TypedefNameDeclERNS_12LookupResultERb
__ZN5clang4Sema20FilterLookupForScopeERNS_12LookupResultEPNS_11DeclContextEPNS_5ScopeEbb
__ZNK5clang9NamedDecl19declarationReplacesEPS0_
__ZN5clang18IdentifierResolver13IdDeclInfoMapixENS_15DeclarationNameE
__ZN5clang6Parser32isTokenEqualOrMistypedEqualEqualEj
__ZN5clang4Sema22ActOnUninitializedDeclEPNS_4DeclEb
__ZN5clang4Sema19FinalizeDeclarationEPNS_4DeclE
__ZN5clang6Parser16ExpectAndConsumeENS_3tok9TokenKindEjPKcS2_
__ZN5clang4Sema23FinalizeDeclaratorGroupEPNS_5ScopeERKNS_8DeclSpecEPPNS_4DeclEj
__ZN5clang4Sema20BuildDeclaratorGroupEPPNS_4DeclEjb
__ZN5clang9DeclGroup6CreateERNS_10ASTContextEPPNS_4DeclEj
__ZN4llvm8DenseMapIPvPFvS1_ENS_12DenseMapInfoIS1_EENS4_IS3_EEE5clearEv
__ZN5clang15BackendConsumer18HandleTopLevelDeclENS_12DeclGroupRefE
__ZN12_GLOBAL__N_117CodeGeneratorImpl18HandleTopLevelDeclEN5clang12DeclGroupRefE
__ZN5clang7CodeGen13CodeGenModule16EmitTopLevelDeclEPNS_4DeclE
__ZN5clang4Sema11getTypeNameERNS_14IdentifierInfoENS_14SourceLocationEPNS_5ScopeEPNS_12CXXScopeSpecEbbNS_9OpaquePtrINS_8QualTypeEEEbPPS1_
__ZNK5clang15DeclarationName24getCXXOverloadedOperatorEv
__ZN5clang12LookupResult11resolveKindEv
__ZN5clang9NamedDecl17getUnderlyingDeclEv
__ZN5clang8DeclSpec15SetTypeSpecTypeENS_17TypeSpecifierTypeENS_14SourceLocationERPKcRjNS_9OpaquePtrINS_8QualTypeEEE
__ZN5clang6Parser22ParseBracketDeclaratorERNS_10DeclaratorE
__ZN5clang12Preprocessor9PeekAheadEj
__ZN5clang12Preprocessor19EnterCachingLexModeEv
__ZN5clang4Sema20ActOnNumericConstantERKNS_5TokenE
__ZN5clang14IntegerLiteral6CreateERNS_10ASTContextERKN4llvm5APIntENS_8QualTypeENS_14SourceLocationE
__ZN5clang14IntegerLiteralC2ERNS_10ASTContextERKN4llvm5APIntENS_8QualTypeENS_14SourceLocationE
__ZN5clang4Stmt15CollectingStatsEb
__ZN5clang12Preprocessor10CachingLexERNS_5TokenE
__ZN5clang12Preprocessor21RemoveTopOfLexerStackEv
__ZN5clang12Preprocessor20PopIncludeMacroStackEv
__ZN5clang4Sema14BuildArrayTypeENS_8QualTypeENS_9ArrayType17ArraySizeModifierEPNS_4ExprEjNS_11SourceRangeENS_15DeclarationNameE
__ZNK5clang4Type20getContainedAutoTypeEv
__ZN5clang11TypeVisitorIN12_GLOBAL__N_123GetContainedAutoVisitorEPNS_8AutoTypeEE5VisitEPKNS_4TypeE
__ZNK5clang4Type35isIntegralOrUnscopedEnumerationTypeEv
__ZNK5clang10ASTContext11getSizeTypeEv
__ZNK5clang4Type18isConstantSizeTypeEv
__ZNK5clang4Expr21isIntegerConstantExprERN4llvm6APSIntERNS_10ASTContextEPNS_14SourceLocationEb
__ZL8CheckICEPKN5clang4ExprERNS_10ASTContextE
__ZNK5clang4Type27isIntegralOrEnumerationTypeEv
__ZNK5clang4Expr13EvaluateAsIntERN4llvm6APSIntERKNS_10ASTContextE
__ZNK5clang4Expr16EvaluateAsRValueERNS0_10EvalResultERKNS_10ASTContextE
__ZL8EvaluateRN12_GLOBAL__N_17CCValueERNS_8EvalInfoEPKN5clang4ExprE
__ZN5clang15StmtVisitorBaseINS_14make_const_ptrEN12_GLOBAL__N_116IntExprEvaluatorEbE5VisitEPKNS_4StmtE
__ZNK5clang16APNumericStorage11getIntValueEv
__ZN5clang7APValueaSERKS0_
__ZN5clang7APValue10MakeUninitEv
__ZN4llvm15SmallVectorImplIN5clang7APValue15LValuePathEntryEEaSERKS4_
__ZNK5clang4Type34isUnsignedIntegerOrEnumerationTypeEv
__ZL23CheckConstantExpressionRKN12_GLOBAL__N_17CCValueERN5clang7APValueE
__ZN12_GLOBAL__N_18EvalInfoD1Ev
__ZNK4llvm5APIntixEj
__ZN5clang17ConstantArrayType20getNumAddressingBitsERNS_10ASTContextENS_8QualTypeERKN4llvm5APIntE
__ZNK4llvm6APSInt6extendEj
__ZNK4llvm5APInt4zextEj
__ZN4llvm5APInt12initSlowCaseERKS0_
__ZNK5clang10ASTContext18getTypeSizeInCharsENS_8QualTypeE
__ZN5clang8EnumType7classofEPKNS_7TagTypeE
__ZN4llvm5APInt12initSlowCaseEjyb
__ZN4llvm5APIntmLERKS0_
__ZNK4llvm5APInt25countLeadingZerosSlowCaseEv
__ZN5clang17ConstantArrayType14getMaxSizeBitsERNS_10ASTContextE
__ZNK5clang10ASTContext20getConstantArrayTypeENS_8QualTypeERKN4llvm5APIntENS_9ArrayType17ArraySizeModifierEj
__ZNK4llvm5APInt11zextOrTruncEj
__ZN4llvm16FoldingSetNodeID10AddIntegerEy
__ZN4llvm16FoldingSetNodeID10AddIntegerEj
__ZN5clang10ASTContext20setBuiltinVaListTypeENS_8QualTypeE
__ZN5clang5Lexer14SkipWhitespaceERNS_5TokenEPKc
__ZN5clang12Preprocessor16HandleIdentifierERNS_5TokenE
__ZNK5clang12Preprocessor15getInfoForMacroEPNS_14IdentifierInfoE
__ZNK5clang13SourceManager21getFileCharacteristicENS_14SourceLocationE
__ZN5clang13LineTableInfo20FindNearestLineEntryEij
__ZNK5clang13SourceManager14getPresumedLocENS_14SourceLocationE
__ZNK12_GLOBAL__N_115MemoryBufferMem19getBufferIdentifierEv
__ZNK5clang13SourceManager13getLineNumberENS_6FileIDEjPb
__ZL18ComputeLineNumbersRN5clang17DiagnosticsEngineEPNS_6SrcMgr12ContentCacheERN4llvm16BumpPtrAllocatorERKNS_13SourceManagerERb
__ZNK5clang13SourceManager9getBufferENS_6FileIDEPb
__ZN5clang5Lexer12LexEndOfFileERNS_5TokenEPKc
__ZN5clang12Preprocessor15HandleEndOfFileERNS_5TokenEb
__ZN5clang5LexerD0Ev
__ZN5clang12Preprocessor22HandleIncludeDirectiveENS_14SourceLocationERNS_5TokenEPKNS_15DirectoryLookupEb
__ZN5clang17PreprocessorLexer18LexIncludeFilenameERNS_5TokenE
__ZN5clang5Lexer11IndirectLexERNS_5TokenE
__ZN5clang5Lexer22LexAngledStringLiteralERNS_5TokenEPKc
__ZNK5clang12Preprocessor11getSpellingERKNS_5TokenERN4llvm15SmallVectorImplIcEEPb
__ZN5clang12Preprocessor26GetIncludeFilenameSpellingENS_14SourceLocationERN4llvm9StringRefE
__ZN5clang12Preprocessor19CheckEndOfDirectiveEPKcb
__ZN5clang12Preprocessor10LookupFileEN4llvm9StringRefEbPKNS_15DirectoryLookupERS5_PNS1_15SmallVectorImplIcEES9_PS2_
__ZNK5clang12Preprocessor19getCurrentFileLexerEv
__ZN5clang12HeaderSearch10LookupFileEN4llvm9StringRefEbPKNS_15DirectoryLookupERS5_PKNS_9FileEntryEPNS1_15SmallVectorImplIcEESC_PS2_
__ZN4llvm9StringMapISt4pairIjjENS_16BumpPtrAllocatorEE16GetOrCreateValueIS2_EERNS_14StringMapEntryIS2_EENS_9StringRefET_
__ZNK5clang15DirectoryLookup10LookupFileEN4llvm9StringRefERNS_12HeaderSearchEPNS1_15SmallVectorImplIcEES7_S2_PS2_
__ZNK5clang15DirectoryLookup17DoFrameworkLookupEN4llvm9StringRefERNS_12HeaderSearchEPNS1_15SmallVectorImplIcEES7_S2_PS2_
__ZN4llvm9StringMapIPKN5clang14DirectoryEntryENS_16BumpPtrAllocatorEE16GetOrCreateValueIS4_EERNS_14StringMapEntryIS4_EENS_9StringRefET_
__ZNK5clang13SourceManager14getFileIDLocalEj
__ZN5clang12HeaderSearch22ShouldEnterIncludeFileEPKNS_9FileEntryEb
__ZNK4llvm10error_code7messageEv
__ZNK4llvm22_system_error_category7messageEi
__ZN4llvm3sys8StrErrorEi
__ZN5clang5Lexer16SkipBlockCommentERNS_5TokenEPKc
__ZN5clang12Preprocessor13HandleCommentERNS_5TokenENS_11SourceRangeE
__ZN5clang12Preprocessor17HandleIfDirectiveERNS_5TokenEb
__ZN5clang5Lexer17getSourceLocationEv
__ZNK5clang5Lexer17getSourceLocationEPKcj
__ZN5clang12Preprocessor27EvaluateDirectiveExpressionERPNS_14IdentifierInfoE
__ZL13EvaluateValueRN12_GLOBAL__N_17PPValueERN5clang5TokenER14DefinedTrackerbRNS2_12PreprocessorE
__ZN4llvm5APIntaSEy
__ZNK4llvm5APIntntEv
__ZN4llvm15SmallVectorImplIN5clang17PPConditionalInfoEE9push_backERKS2_
__ZN5clang12Preprocessor20HandleIfdefDirectiveERNS_5TokenEbb
__ZN5clang12Preprocessor20HandleEndifDirectiveERNS_5TokenE
__ZNK4llvm9StringRef4findES0_m
__ZN4llvm3sys4Path14MapInFilePagesEimx
__ZN5clang12Preprocessor28SkipExcludedConditionalBlockENS_14SourceLocationEbbS1_
__ZN5clang12Preprocessor15markMacroAsUsedEPNS_9MacroInfoE
__ZL24EvaluateDirectiveSubExprRN12_GLOBAL__N_17PPValueEjRN5clang5TokenEbRNS2_12PreprocessorE
__ZN5clang12Preprocessor26ReadMacroDefinitionArgListEPNS_9MacroInfoE
__ZN5clang12Preprocessor19HandleElseDirectiveERNS_5TokenE
__ZN5clang20NumericLiteralParserC1EPKcS2_NS_14SourceLocationERNS_12PreprocessorE
__ZN5clang20NumericLiteralParserC2EPKcS2_NS_14SourceLocationERNS_12PreprocessorE
__ZN5clang20NumericLiteralParser27ParseNumberStartingWithZeroENS_14SourceLocationE
__ZN5clang20NumericLiteralParser15GetIntegerValueERN4llvm5APIntE
__ZNK4llvm5APInt3sltERKS0_
__ZN5clang12Preprocessor29HandleMacroExpandedIdentifierERNS_5TokenEPNS_9MacroInfoE
__ZN5clang13SourceManager18createExpansionLocENS_14SourceLocationES1_S1_jij
__ZN5clang13SourceManager22createExpansionLocImplERKNS_6SrcMgr13ExpansionInfoEjij
__ZN5clang5Lexer18getCharAndSizeSlowEPKcRjPNS_5TokenE
__ZN5clang12Preprocessor19HandleElifDirectiveERNS_5TokenE
__ZNK4llvm5APInt7ssub_ovERKS0_Rb
__ZNK4llvm5APIntmiERKS0_
__ZN5clang8DeclSpec16SetTypeSpecWidthENS_18TypeSpecifierWidthENS_14SourceLocationERPKcRj
__ZNK4llvm5APInt6isIntNEj
__ZNK4llvm5APInt5truncEj
__ZN5clang7TagDecl25setTypedefNameForAnonDeclEPNS_15TypedefNameDeclE
__ZN5clang4Type17ClearLinkageCacheEv
__ZN5clang12Preprocessor10EnterMacroERNS_5TokenENS_14SourceLocationEPNS_9MacroArgsE
__ZN5clang10TokenLexer4InitERNS_5TokenENS_14SourceLocationEPNS_9MacroArgsE
__ZNK5clang9MacroInfo23getDefinitionLengthSlowERNS_13SourceManagerE
__ZN5clang10TokenLexer3LexERNS_5TokenE
__ZN5clang12Preprocessor21HandleEndOfTokenLexerERNS_5TokenE
__ZN4llvm15SmallPtrSetImpl4GrowEj
__ZN5clang6Parser36ParseDeclarationOrFunctionDefinitionERNS_16ParsedAttributesENS_15AccessSpecifierE
__ZN5clang6Parser36ParseDeclarationOrFunctionDefinitionERNS0_15ParsingDeclSpecENS_15AccessSpecifierE
__ZN5clang6Parser20ParseParenDeclaratorERNS_10DeclaratorE
__ZN5clang6Parser23ParseFunctionDeclaratorERNS_10DeclaratorERNS_16ParsedAttributesERNS0_24BalancedDelimiterTrackerEb
__ZN5clang6Parser34isFunctionDeclaratorIdentifierListEv
__ZN5clang6Parser31ParseParameterDeclarationClauseERNS_10DeclaratorERNS_16ParsedAttributesERN4llvm11SmallVectorINS_15DeclaratorChunk9ParamInfoELj16EEERNS_14SourceLocationE
__ZN5clang4Sema20ActOnParamDeclaratorEPNS_5ScopeERNS_10DeclaratorE
__ZN5clang4Sema14CheckParameterEPNS_11DeclContextENS_14SourceLocationES3_PNS_14IdentifierInfoENS_8QualTypeEPNS_14TypeSourceInfoENS_12StorageClassES9_
__ZN5clang10ASTContext24getAdjustedParameterTypeENS_8QualTypeE
__ZN5clang11ParmVarDecl6CreateERNS_10ASTContextEPNS_11DeclContextENS_14SourceLocationES5_PNS_14IdentifierInfoENS_8QualTypeEPNS_14TypeSourceInfoENS_12StorageClassESB_PNS_4ExprE
__ZN4llvm15SmallVectorImplIN5clang15DeclaratorChunk9ParamInfoEE9push_backERKS3_
__ZN5clang15DeclaratorChunk11getFunctionEbbNS_14SourceLocationEPNS0_9ParamInfoEjjbS1_S1_S1_S1_NS_26ExceptionSpecificationTypeES1_PNS_9OpaquePtrINS_8QualTypeEEEPNS_11SourceRangeEjPNS_4ExprES1_S1_RNS_10DeclaratorES7_
__ZNK5clang4Type10isHalfTypeEv
__ZNK5clang4Type10isVoidTypeEv
__ZNK5clang10ASTContext15getFunctionTypeENS_8QualTypeEPKS1_jRKNS_17FunctionProtoType12ExtProtoInfoE
__ZN5clang17FunctionProtoType7ProfileERN4llvm16FoldingSetNodeIDENS_8QualTypeEPKS4_jRKNS0_12ExtProtoInfoERKNS_10ASTContextE
__ZN5clang17FunctionProtoTypeC1ENS_8QualTypeEPKS1_jS1_RKNS0_12ExtProtoInfoE
__ZN5clang17FunctionProtoTypeC2ENS_8QualTypeEPKS1_jS1_RKNS0_12ExtProtoInfoE
__ZNK5clang10ASTContext12getParenTypeENS_8QualTypeE
__ZNK5clang15ConcreteTypeLocINS_13UnqualTypeLocENS_15FunctionTypeLocENS_12FunctionTypeENS_15FunctionLocInfoEE16getInnerTypeSizeENS_8QualTypeE
__ZN5clang4Sema28isAcceptableTagRedeclarationEPKNS_7TagDeclENS_11TagTypeKindEbNS_14SourceLocationERKNS_14IdentifierInfoE
__ZN5clang4Sema26ParsedFreeStandingDeclSpecEPNS_5ScopeENS_15AccessSpecifierERNS_8DeclSpecE
__ZN5clang4Sema26ParsedFreeStandingDeclSpecEPNS_5ScopeENS_15AccessSpecifierERNS_8DeclSpecENS_11ASTMultiPtrIPNS_21TemplateParameterListEEE
__ZN5clang4Sema24ProcessDeclAttributeListEPNS_5ScopeEPNS_4DeclEPKNS_13AttributeListEbb
__ZN5clang8DeclSpec21isMissingDeclaratorOkEv
__ZN5clang4Sema22ConvertDeclToDeclGroupEPNS_4DeclES2_
__ZNK4llvm10FoldingSetIN5clang17ConstantArrayTypeEE10NodeEqualsEPNS_14FoldingSetImpl4NodeERKNS_16FoldingSetNodeIDERS7_
__ZNK4llvm10FoldingSetIN5clang14ElaboratedTypeEE10NodeEqualsEPNS_14FoldingSetImpl4NodeERKNS_16FoldingSetNodeIDERS7_
__ZN5clang8DeclSpec21SetFunctionSpecInlineENS_14SourceLocationERPKcRj
__ZN5clang6Parser21TryAltiVecVectorTokenEv
__ZN5clang6Parser27TryAnnotateTypeOrScopeTokenEbb
__ZN5clang7VarDecl20getNextRedeclarationEv
__ZN5clang6Parser28isDeclarationAfterDeclaratorEv
__ZN5clang6Parser27isStartOfFunctionDefinitionERKNS0_17ParsingDeclaratorE
__ZN5clang6Parser23ParseFunctionDefinitionERNS0_17ParsingDeclaratorERKNS0_18ParsedTemplateInfoE
__ZN5clang30PoisonSEHIdentifiersRAIIObjectC2ERNS_6ParserEb
__ZN5clang26PoisonIdentifierRAIIObjectC2EPNS_14IdentifierInfoEb
__ZN5clang4Sema23ActOnStartOfFunctionDefEPNS_5ScopeERNS_10DeclaratorE
__ZNK5clang10ASTContext21getCanonicalParamTypeENS_8QualTypeE
__ZNK5clang10ASTContext27getVariableArrayDecayedTypeENS_8QualTypeE
__ZN5clang4Sema23ActOnFunctionDeclaratorEPNS_5ScopeERNS_10DeclaratorEPNS_11DeclContextEPNS_14TypeSourceInfoERNS_12LookupResultENS_11ASTMultiPtrIPNS_21TemplateParameterListEEERb
__ZN5clang12FunctionDecl6CreateERNS_10ASTContextEPNS_11DeclContextENS_14SourceLocationERKNS_19DeclarationNameInfoENS_8QualTypeEPNS_14TypeSourceInfoENS_12StorageClassESC_bbb
__ZN5clang12FunctionDeclC2ENS_4Decl4KindEPNS_11DeclContextENS_14SourceLocationERKNS_19DeclarationNameInfoENS_8QualTypeEPNS_14TypeSourceInfoENS_12StorageClassESC_bb
__ZNK5clang19DeclarationNameInfo9getEndLocEv
__ZNK5clang9NamedDecl10hasLinkageEv
__ZL12getLVForDeclPKN5clang9NamedDeclEN12_GLOBAL__N_17LVFlagsE
__ZN5clang4Decl14setDeclContextEPNS_11DeclContextE
__ZN5clang12FunctionDecl9setParamsERNS_10ASTContextEN4llvm8ArrayRefIPNS_11ParmVarDeclEEE
__ZNK5clang12FunctionDecl6isMainEv
__ZN5clang4Sema24CheckFunctionDeclarationEPNS_5ScopeEPNS_12FunctionDeclERNS_12LookupResultEb
__ZNK5clang12FunctionDecl9isExternCEv
__ZN5clang4Sema26AddKnownFunctionAttributesEPNS_12FunctionDeclE
__ZNK5clang12FunctionDecl12getBuiltinIDEv
__ZNK5clang9NamedDecl10getLinkageEv
__ZN5clang4Sema21AddCFAuditedAttributeEPNS_4DeclE
__ZN5clang4Sema24MarkUnusedFileScopedDeclEPKNS_14DeclaratorDeclE
__ZNK5clang4Sema32ShouldWarnIfUnusedFileScopedDeclEPKNS_14DeclaratorDeclE
__ZN5clang12FunctionDecl20getNextRedeclarationEv
__ZNK5clang12FunctionDecl29getTemplateSpecializationKindEv
__ZNK5clang12FunctionDecl18getPrimaryTemplateEv
__ZNK5clang12FunctionDecl11isOutOfLineEv
__ZN5clang4Sema23ActOnStartOfFunctionDefEPNS_5ScopeEPNS_4DeclE
__ZN5clang4Sema17PushFunctionScopeEv
__ZN5clang4Sema28CheckForFunctionRedefinitionEPNS_12FunctionDeclE
__ZNK5clang12FunctionDecl9isDefinedERPKS0_
__ZNK5clang12FunctionDecl8isGlobalEv
__ZNK5clang12FunctionDecl12getNumParamsEv
__ZN5clang4Sema24CheckParmsForFunctionDefEPPNS_11ParmVarDeclES3_b
__ZNK5clang10ASTContext14getAsArrayTypeENS_8QualTypeE
__ZN5clang4Sema11CheckShadowEPNS_5ScopeEPNS_7VarDeclE
__ZNK5clang7VarDecl11isOutOfLineEv
__ZN5clang4Sema28ActOnDefaultCtorInitializersEPNS_4DeclE
__ZN5clang6Parser26ParseFunctionStatementBodyEPNS_4DeclERNS0_10ParseScopeE
__ZN5clang6Parser26ParseCompoundStatementBodyEb
__ZN5clang6Parser27ParseStatementOrDeclarationERNS_15ASTOwningVectorIPNS_4StmtELj32EEEb
__ZN5clang6Parser20ParseReturnStatementERNS_16ParsedAttributesE
__ZN5clang6Parser15ParseExpressionEv
__ZN5clang6Parser25ParseAssignmentExpressionEv
__ZN5clang6Parser19ParseCastExpressionEbbRbb
__ZN5clang6Parser20ParseParenExpressionERNS0_16ParenParseOptionEbbRNS_9OpaquePtrINS_8QualTypeEEERNS_14SourceLocationE
__ZN5clang6Parser24isTypeSpecifierQualifierEv
__ZN5clang4Sema17ActOnIdExpressionEPNS_5ScopeERNS_12CXXScopeSpecERNS_13UnqualifiedIdEbb
__ZN5clang4Sema22DecomposeUnqualifiedIdERKNS_13UnqualifiedIdERNS_24TemplateArgumentListInfoERNS_19DeclarationNameInfoERPKS4_
__ZN5clang4Sema16getCurMethodDeclEv
__ZN5clang4Sema16LookupParsedNameERNS_12LookupResultEPNS_5ScopeEPNS_12CXXScopeSpecEbb
__ZN5clang4Sema26UseArgumentDependentLookupERKNS_12CXXScopeSpecERKNS_12LookupResultEb
__ZN5clang4Sema24BuildDeclarationNameExprERKNS_12CXXScopeSpecERNS_12LookupResultEb
__ZN5clang4Sema24BuildDeclarationNameExprERKNS_12CXXScopeSpecERKNS_19DeclarationNameInfoEPNS_9NamedDeclE
__ZL15CheckDeclInExprRN5clang4SemaENS_14SourceLocationEPNS_9NamedDeclE
__ZN5clang4Sema16BuildDeclRefExprEPNS_9ValueDeclENS_8QualTypeENS_13ExprValueKindERKNS_19DeclarationNameInfoEPKNS_12CXXScopeSpecE
__ZN5clang4Sema25MarkDeclarationReferencedENS_14SourceLocationEPNS_4DeclE
__ZN5clang11DeclRefExpr6CreateERNS_10ASTContextENS_22NestedNameSpecifierLocEPNS_9ValueDeclERKNS_19DeclarationNameInfoENS_8QualTypeENS_13ExprValueKindEPNS_9NamedDeclEPKNS_24TemplateArgumentListInfoE
__ZN5clang11DeclRefExprC2ENS_22NestedNameSpecifierLocEPNS_9ValueDeclERKNS_19DeclarationNameInfoEPNS_9NamedDeclEPKNS_24TemplateArgumentListInfoENS_8QualTypeENS_13ExprValueKindE
__ZN5clang11DeclRefExpr17computeDependenceEv
__ZL24computeDeclRefDependencePN5clang9NamedDeclENS_8QualTypeERbS3_S3_
__ZNK5clang4Decl15isParameterPackEv
__ZNK5clang11ParmVarDecl15isParameterPackEv
__ZN5clang6Parser28ParsePostfixExpressionSuffixENS_12ActionResultIPNS_4ExprELb1EEE
__ZN5clang6Parser26ParseRHSOfBinaryExpressionENS_12ActionResultIPNS_4ExprELb1EEENS_4prec5LevelE
__ZN5clang4Sema10ActOnBinOpEPNS_5ScopeENS_14SourceLocationENS_3tok9TokenKindEPNS_4ExprES7_
__ZN5clang4Sema10BuildBinOpEPNS_5ScopeENS_14SourceLocationENS_18BinaryOperatorKindEPNS_4ExprES6_
__ZN5clang4Sema18CreateBuiltinBinOpENS_14SourceLocationENS_18BinaryOperatorKindEPNS_4ExprES4_
__ZN5clang4Sema18CheckShiftOperandsERNS_12ActionResultIPNS_4ExprELb1EEES5_NS_14SourceLocationEjb
__ZL19checkArithmeticNullRN5clang4SemaERNS_12ActionResultIPNS_4ExprELb1EEES6_NS_14SourceLocationEb
__ZN5clang4Expr19IgnoreParenImpCastsEv
__ZNK5clang4Type24hasIntegerRepresentationEv
__ZNK5clang4Type13isIntegerTypeEv
__ZN5clang4Sema21UsualUnaryConversionsEPNS_4ExprE
__ZN5clang4Sema30DefaultFunctionArrayConversionEPNS_4ExprE
__ZN5clang4Sema23DefaultLvalueConversionEPNS_4ExprE
__ZL30CheckForNullPointerDereferenceRN5clang4SemaEPNS_4ExprE
__ZN5clang4Expr16IgnoreParenCastsEv
__ZN5clang16ImplicitCastExpr6CreateERNS_10ASTContextENS_8QualTypeENS_8CastKindEPNS_4ExprEPKN4llvm11SmallVectorIPNS_16CXXBaseSpecifierELj4EEENS_13ExprValueKindE
__ZN5clang8CastExprC2ENS_4Stmt9StmtClassENS_8QualTypeENS_13ExprValueKindENS_8CastKindEPNS_4ExprEj
__ZNK5clang10ASTContext20isPromotableBitFieldEPNS_4ExprE
__ZN5clang4Expr11getBitFieldEv
__ZNK5clang4Type23isPromotableIntegerTypeEv
__ZNK5clang10ASTContext22getPromotedIntegerTypeENS_8QualTypeE
__ZNK5clang4Type19isSignedIntegerTypeEv
__ZN5clang4Sema17ImpCastExprToTypeEPNS_4ExprENS_8QualTypeENS_8CastKindENS_13ExprValueKindEPKN4llvm11SmallVectorIPNS_16CXXBaseSpecifierELj4EEENS0_21CheckedConversionKindE
__ZNK4llvm5APInt3ultERKS0_
__ZNK5clang4Stmt14getSourceRangeEv
__ZNK5clang11DeclRefExpr14getSourceRangeEv
__ZN5clang4Sema16CheckArrayAccessEPKNS_4ExprE
__ZN5clang4Sema14ActOnParenExprENS_14SourceLocationES1_PNS_4ExprE
__ZL29DiagnoseBitwiseAndInBitwiseOrRN5clang4SemaENS_14SourceLocationEPNS_4ExprE
__ZN5clang4Sema20CheckBitwiseOperandsERNS_12ActionResultIPNS_4ExprELb1EEES5_NS_14SourceLocationEb
__ZN5clang4Sema26UsualArithmeticConversionsERNS_12ActionResultIPNS_4ExprELb1EEES5_b
__ZN5clang4Sema15ActOnReturnStmtENS_14SourceLocationEPNS_4ExprE
__ZN5clang4Sema31DiagnoseUnexpandedParameterPackEPNS_4ExprENS0_30UnexpandedParameterPackContextE
__ZN5clang4Sema11getCurBlockEv
__ZN5clang4Sema18getCurFunctionDeclEv
__ZN5clang4Sema23getCopyElisionCandidateENS_8QualTypeEPNS_4ExprEb
__ZN5clang4Sema31PerformMoveOrCopyInitializationERKNS_17InitializedEntityEPKNS_7VarDeclENS_8QualTypeEPNS_4ExprEb
__ZN5clang4Sema25PerformCopyInitializationERKNS_17InitializedEntityENS_14SourceLocationENS_12ActionResultIPNS_4ExprELb1EEEb
__ZN5clang22InitializationSequenceC2ERNS_4SemaERKNS_17InitializedEntityERKNS_18InitializationKindEPPNS_4ExprEj
__ZN5clang4Expr28hasAnyTypeDependentArgumentsEPPS0_j
__ZN4llvm15SmallVectorImplIN5clang22InitializationSequence4StepEE9push_backERKS3_
__ZL22MaybeProduceObjCObjectRN5clang4SemaERNS_22InitializationSequenceERKNS_17InitializedEntityE
__ZN5clang22InitializationSequence7PerformERNS_4SemaERKNS_17InitializedEntityERKNS_18InitializationKindENS_11ASTMultiPtrIPNS_4ExprEEEPNS_8QualTypeE
__ZN5clang4Sema32CheckSingleAssignmentConstraintsENS_8QualTypeERNS_12ActionResultIPNS_4ExprELb1EEEb
__ZN5clang4Sema26CheckAssignmentConstraintsENS_8QualTypeERNS_12ActionResultIPNS_4ExprELb1EEERNS_8CastKindE
__ZNK5clang4Type16isArithmeticTypeEv
__ZN5clang4Sema17PrepareScalarCastERNS_12ActionResultIPNS_4ExprELb1EEENS_8QualTypeE
__ZNK5clang4Type17getScalarTypeKindEv
__ZNK5clang8QualType20getNonLValueExprTypeERNS_10ASTContextE
__ZN5clang4Sema24DiagnoseAssignmentResultENS0_17AssignConvertTypeENS_14SourceLocationENS_8QualTypeES3_PNS_4ExprENS0_16AssignmentActionEPb
__ZN5clang22InitializationSequenceD2Ev
__ZN5clang4Sema20CheckReturnStackAddrEPNS_4ExprENS_8QualTypeENS_14SourceLocationE
__ZN5clang4Sema24CheckImplicitConversionsEPNS_4ExprENS_14SourceLocationE
__ZN12_GLOBAL__N_126AnalyzeImplicitConversionsERN5clang4SemaEPNS0_4ExprENS0_14SourceLocationE
__ZN12_GLOBAL__N_123CheckImplicitConversionERN5clang4SemaEPNS0_4ExprENS0_8QualTypeENS0_14SourceLocationEPb
__ZNK5clang4Expr21isNullPointerConstantERNS_10ASTContextENS0_34NullPointerConstantValueDependenceE
__ZNK5clang4Type13isNullPtrTypeEv
__ZNK5clang4Type14getAsUnionTypeEv
__ZNK5clang10ASTContext11getIntWidthENS_8QualTypeE
__ZNK5clang4Type13isBooleanTypeEv
__ZN12_GLOBAL__N_112GetExprRangeERN5clang10ASTContextEPNS0_4ExprEj
__ZN5clang4Expr12IgnoreParensEv
__ZN12_GLOBAL__N_116IntExprEvaluator19VisitBinaryOperatorEPKN5clang14BinaryOperatorE
__ZNK5clang4Type18isRealFloatingTypeEv
__ZN12_GLOBAL__N_116IntExprEvaluator13VisitCastExprEPKN5clang8CastExprE
__ZN5clang15StmtVisitorBaseINS_14make_const_ptrEN12_GLOBAL__N_119LValueExprEvaluatorEbE5VisitEPKNS_4StmtE
__ZN12_GLOBAL__N_119LValueExprEvaluator12VisitVarDeclEPKN5clang4ExprEPKNS1_7VarDeclE
__ZL30HandleLValueToRValueConversionRN12_GLOBAL__N_18EvalInfoEN5clang8QualTypeERKNS_6LValueERNS_7CCValueE
__ZL19EvaluateVarDeclInitRN12_GLOBAL__N_18EvalInfoEPKN5clang7VarDeclEPNS_14CallStackFrameERNS_7CCValueE
__ZN12_GLOBAL__N_18IntRange14forValueOfTypeERN5clang10ASTContextENS1_8QualTypeE
__ZN12_GLOBAL__N_115DiagnoseImpCastERN5clang4SemaEPNS0_4ExprENS0_8QualTypeES5_NS0_14SourceLocationEj
__ZNK5clang4Expr10getExprLocEv
__ZN5clang4Sema4DiagENS_14SourceLocationEj
__ZN5clang17DiagnosticBuilder4EmitEv
__ZN5clang4Sema21SemaDiagnosticBuilderD1Ev
__ZN5clang4Sema21SemaDiagnosticBuilderD2Ev
__ZNK5clang4Sema15isSFINAEContextEv
__ZNK5clang4Sema17getPrintingPolicyEv
__ZNK5clang10ASTContext17getPrintingPolicyEv
__ZN5clang11LangOptionsaSERKS0_
__ZNK5clang13DiagnosticIDs11ProcessDiagERNS_17DiagnosticsEngineE
__ZN5clang4Stmt8childrenEv
__ZNK12_GLOBAL__N_16LValue8moveIntoERNS_7CCValueE
__ZN5clang7APValue10MakeLValueEv
__ZN5clang7APValue9setLValueEPKNS_4ExprERKNS_9CharUnitsENS0_12NoLValuePathE
__ZNK5clang7APValue13getLValueBaseEv
__ZN5clang7APValue15getLValueOffsetEv
__ZN5clang4Sema27MaybeCreateExprWithCleanupsEPNS_4ExprE
__ZN5clang4Sema17ActOnCompoundStmtENS_14SourceLocationES1_NS_11ASTMultiPtrIPNS_4StmtEEEb
__ZN5clang4Sema24DiagnoseUnusedExprResultEPKNS_4StmtE
__ZN5clang4Sema23ActOnFinishFunctionBodyEPNS_4DeclEPNS_4StmtE
__ZN5clang4Sema23ActOnFinishFunctionBodyEPNS_4DeclEPNS_4StmtEb
__ZN5clang12FunctionDecl7setBodyEPNS_4StmtE
__ZN5clang4Sema24DiagnoseUnusedParametersEPKPNS_11ParmVarDeclES4_
__ZN5clang4Sema38DiagnoseSizeOfParametersAndReturnValueEPKPNS_11ParmVarDeclES4_NS_8QualTypeEPNS_9NamedDeclE
__ZN5clang4Sema23PopFunctionOrBlockScopeEPKNS_4sema21AnalysisBasedWarnings6PolicyEPKNS_4DeclEPKNS_9BlockExprE
__ZN5clang4sema21AnalysisBasedWarnings13IssueWarningsENS1_6PolicyEPNS0_17FunctionScopeInfoEPKNS_4DeclEPKNS_9BlockExprE
__ZN5clang30PoisonSEHIdentifiersRAIIObjectD2Ev
__ZN5clang7CodeGen13CodeGenModule10EmitGlobalENS_10GlobalDeclE
__ZN5clang10ASTContext17DeclMustBeEmittedEPKNS_4DeclE
__ZN5clang10ASTContext24GetGVALinkageForFunctionEPKNS_12FunctionDeclE
__ZN5clang7CodeGen13CodeGenModule14getMangledNameENS_10GlobalDeclE
__ZN5clang12FunctionDecl16getCanonicalDeclEv
__ZN4llvm8DenseMapIN5clang10GlobalDeclENS_9StringRefENS_12DenseMapInfoIS2_EENS4_IS3_EEE16InsertIntoBucketERKS2_RKS3_PSt4pairIS2_S3_E
__ZN4llvm8DenseMapIN5clang10GlobalDeclENS_9StringRefENS_12DenseMapInfoIS2_EENS4_IS3_EEE4growEj
__ZN12_GLOBAL__N_120ItaniumMangleContext20shouldMangleDeclNameEPKN5clang9NamedDeclE
__ZNK4llvm6Module13getNamedValueENS_9StringRefE
__ZN4llvm9StringMapIN5clang10GlobalDeclENS_15MallocAllocatorEE16GetOrCreateValueIS2_EERNS_14StringMapEntryIS2_EENS_9StringRefET_
__ZL13LookupBuiltinRN5clang4SemaERNS_12LookupResultE
__ZN5clang4Sema19LazilyCreateBuiltinEPNS_14IdentifierInfoEjPNS_5ScopeEbNS_14SourceLocationE
__ZNK5clang10ASTContext14GetBuiltinTypeEjRNS0_19GetBuiltinTypeErrorEPj
__ZNK5clang7Builtin7Context9GetRecordEj
__ZL17DecodeTypeFromStrRPKcRKN5clang10ASTContextERNS3_19GetBuiltinTypeErrorERbb
__ZNK4llvm20ContextualFoldingSetIN5clang17FunctionProtoTypeERNS1_10ASTContextEE10NodeEqualsEPNS_14FoldingSetImpl4NodeERKNS_16FoldingSetNodeIDERS9_
__ZN5clang17FunctionProtoType7ProfileERN4llvm16FoldingSetNodeIDERKNS_10ASTContextE
__ZN5clang7Builtin7Context12isPrintfLikeEjRjRb
__ZN5clang7Builtin7Context11isScanfLikeEjRjRb
__ZN5clang4Decl7addAttrEPNS_4AttrE
__ZN5clang4Decl8setAttrsERKN4llvm11SmallVectorIPNS_4AttrELj2EEE
__ZN5clang10ASTContext12getDeclAttrsEPKNS_4DeclE
__ZN4llvm8DenseMapIPKN5clang4DeclEPNS_11SmallVectorIPNS1_4AttrELj2EEENS_12DenseMapInfoIS4_EENSA_IS9_EEE16InsertIntoBucketERKS4_RKS9_PSt4pairIS4_S9_E
__ZN4llvm8DenseMapIPKN5clang4DeclEPNS_11SmallVectorIPNS1_4AttrELj2EEENS_12DenseMapInfoIS4_EENSA_IS9_EEE4growEj
__ZN4llvm15SmallVectorImplIPN5clang4AttrEEaSERKS4_
__ZNK5clang4Decl8getAttrsEv
__ZNK5clang12FunctionDecl16getCanonicalDeclEv
__ZNK5clang12FunctionDecl24isImplicitlyInstantiableEv
__ZNK5clang12FunctionDecl7hasBodyEv
__ZNK5clang12FunctionDecl7hasBodyERPKS0_
__ZNK5clang4Decl22isInAnonymousNamespaceEv
__ZN5clang6Parser19ParseExpressionListERN4llvm15SmallVectorImplIPNS_4ExprEEERNS2_INS_14SourceLocationEEEMNS_4SemaEFvPNS_5ScopeES4_PS4_jES4_
__ZN5clang4Sema13ActOnCallExprEPNS_5ScopeEPNS_4ExprENS_14SourceLocationENS_11ASTMultiPtrIS4_EES5_S4_b
__ZN5clang4Sema36MaybeConvertParenListExprToParenExprEPNS_5ScopeEPNS_4ExprE
__ZN5clang4Sema21BuildResolvedCallExprEPNS_4ExprEPNS_9NamedDeclENS_14SourceLocationEPS2_jS5_S2_b
__ZN5clang8CallExprC1ERNS_10ASTContextEPNS_4ExprEPS4_jNS_8QualTypeENS_13ExprValueKindENS_14SourceLocationE
__ZN5clang8CallExprC2ERNS_10ASTContextEPNS_4ExprEPS4_jNS_8QualTypeENS_13ExprValueKindENS_14SourceLocationE
__ZN5clang4Sema19CheckCallReturnTypeENS_8QualTypeENS_14SourceLocationEPNS_8CallExprEPNS_12FunctionDeclE
__ZN5clang4Expr19getValueKindForTypeENS_8QualTypeE
__ZN5clang4Sema23ConvertArgumentsForCallEPNS_8CallExprEPNS_4ExprEPNS_12FunctionDeclEPKNS_17FunctionProtoTypeEPS4_jNS_14SourceLocationEb
__ZNK5clang12FunctionDecl23getMinRequiredArgumentsEv
__ZNK5clang8CallExpr14getSourceRangeEv
__ZN5clang4Sema22GatherArgumentsForCallENS_14SourceLocationEPNS_12FunctionDeclEPKNS_17FunctionProtoTypeEjPPNS_4ExprEjRN4llvm11SmallVectorIS8_Lj8EEENS0_16VariadicCallTypeE
__ZN5clang4Sema19RequireCompleteTypeENS_14SourceLocationENS_8QualTypeERKNS_17PartialDiagnosticE
__ZN5clang17InitializedEntity19InitializeParameterERNS_10ASTContextEPNS_11ParmVarDeclE
__ZN5clang4Sema24CheckStaticArrayArgumentENS_14SourceLocationEPNS_11ParmVarDeclEPKNS_4ExprE
__ZN5clang4Sema21DiagnoseSentinelCallsEPNS_9NamedDeclENS_14SourceLocationEPPNS_4ExprEj
__ZN5clang4Sema17CheckFunctionCallEPNS_12FunctionDeclEPNS_8CallExprE
__ZN5clang4Sema24CheckBuiltinFunctionCallEjPNS_8CallExprE
__ZN5clang12Preprocessor20HandleUndefDirectiveERNS_5TokenE
__ZN5clang12Preprocessor19isNextPPTokenLParenEv
__ZN5clang5Lexer19isNextPPTokenLParenEv
__ZN5clang12Preprocessor25ReadFunctionLikeMacroArgsERNS_5TokenEPNS_9MacroInfoERNS_14SourceLocationE
__ZN5clang9MacroArgs6createEPKNS_9MacroInfoEN4llvm8ArrayRefINS_5TokenEEEbRNS_12PreprocessorE
__ZN5clang10TokenLexer23ExpandFunctionArgumentsEv
__ZNK5clang9MacroArgs16getUnexpArgumentEj
__ZNK5clang9MacroArgs20ArgNeedsPreexpansionEPKNS_5TokenERNS_12PreprocessorE
__ZN5clang9MacroArgs17getPreExpArgumentEjPKNS_9MacroInfoERNS_12PreprocessorE
__ZNSt6vectorIS_IN5clang5TokenESaIS1_EESaIS3_EE14_M_fill_insertEN9__gnu_cxx17__normal_iteratorIPS3_S5_EEmRKS3_
__ZNSt6vectorIN5clang5TokenESaIS1_EEC2ERKS3_
__ZN5clang12Preprocessor16EnterTokenStreamEPKNS_5TokenEjbb
__ZN5clang10TokenLexer4InitEPKNS_5TokenEjbb
__ZNSt6vectorIN5clang5TokenESaIS1_EE13_M_insert_auxEN9__gnu_cxx17__normal_iteratorIPS1_S3_EERKS1_
__ZN5clang9MacroArgs12getArgLengthEPKNS_5TokenE
__ZN5clang10TokenLexer26updateLocForMacroArgTokensENS_14SourceLocationEPNS_5TokenES3_
__ZN5clang13SourceManager26createMacroArgExpansionLocENS_14SourceLocationES1_j
__ZN5clang12Preprocessor24cacheMacroExpandedTokensEPNS_10TokenLexerEN4llvm8ArrayRefINS_5TokenEEE
__ZNSt6vectorISt4pairIPN5clang10TokenLexerEmESaIS4_EE13_M_insert_auxEN9__gnu_cxx17__normal_iteratorIPS4_S6_EERKS4_
__ZN5clang6Parser35ParseUnaryExprOrTypeTraitExpressionEv
__ZN5clang6Parser34ParseExprAfterUnaryExprOrTypeTraitERKNS_5TokenERbRNS_9OpaquePtrINS_8QualTypeEEERNS_11SourceRangeE
__ZN5clang4Sema31PushExpressionEvaluationContextENS0_27ExpressionEvaluationContextE
__ZN5clang6Parser15ParseDeclaratorERNS_10DeclaratorE
__ZN5clang4Sema13ActOnTypeNameEPNS_5ScopeERNS_10DeclaratorE
__ZN5clang4Sema25checkUnusedDeclAttributesERNS_10DeclaratorE
__ZL25checkUnusedDeclAttributesRN5clang4SemaEPKNS_13AttributeListE
__ZN5clang4Sema30PopExpressionEvaluationContextEv
__ZN5clang4Sema33ExpressionEvaluationContextRecord7DestroyEv
__ZN5clang4Sema29ActOnUnaryExprOrTypeTraitExprENS_14SourceLocationENS_20UnaryExprOrTypeTraitEbPvRKNS_11SourceRangeE
__ZN5clang4Sema17GetTypeFromParserENS_9OpaquePtrINS_8QualTypeEEEPPNS_14TypeSourceInfoE
__ZN5clang4Sema30CreateUnaryExprOrTypeTraitExprEPNS_14TypeSourceInfoENS_14SourceLocationENS_20UnaryExprOrTypeTraitENS_11SourceRangeE
__ZN5clang4Sema32CheckUnaryExprOrTypeTraitOperandENS_8QualTypeENS_14SourceLocationENS_11SourceRangeENS_20UnaryExprOrTypeTraitE
__ZL30CheckExtensionTraitOperandTypeRN5clang4SemaENS_8QualTypeENS_14SourceLocationENS_11SourceRangeENS_20UnaryExprOrTypeTraitE
__ZL32CheckObjCTraitOperandConstraintsRN5clang4SemaENS_8QualTypeENS_14SourceLocationENS_11SourceRangeENS_20UnaryExprOrTypeTraitE
__ZN5clang4Sema27CheckMultiplyDivideOperandsERNS_12ActionResultIPNS_4ExprELb1EEES5_NS_14SourceLocationEbb
__ZNK5clang4Type13isComplexTypeEv
__ZNK5clang4Type20isComplexIntegerTypeEv
__ZNK5clang10ASTContext19getIntegerTypeOrderENS_8QualTypeES1_
__ZNK5clang4Type21isUnsignedIntegerTypeEv
__ZNK5clang10ASTContext14getIntegerRankEPKNS_4TypeE
__ZNK5clang4Type30hasSignedIntegerRepresentationEv
__ZN5clang4Sema22CheckRemainderOperandsERNS_12ActionResultIPNS_4ExprELb1EEES5_NS_14SourceLocationEb
__ZN12_GLOBAL__N_116IntExprEvaluator7SuccessEyPKN5clang4ExprE
__ZNK5clang10ASTContext12MakeIntValueEyNS_8QualTypeE
__ZNK5clang4Type32isSignedIntegerOrEnumerationTypeEv
__ZL18HandleIntToIntCastN5clang8QualTypeES0_RN4llvm6APSIntERKNS_10ASTContextE
__ZNK4llvm6APSInt10extOrTruncEj
__ZNK4llvm5APInt11sextOrTruncEj
__ZNK4llvm5APInt4sextEj
__ZN12_GLOBAL__N_116IntExprEvaluator7SuccessERKN4llvm6APSIntEPKN5clang4ExprE
__ZN5clang7APValueC2ERKN4llvm6APSIntE
__ZNK4llvm5APIntmlERKS0_
__ZN5clang4Sema20CheckCompareOperandsERNS_12ActionResultIPNS_4ExprELb1EEES5_NS_14SourceLocationEjb
__ZNK5clang4Type25hasFloatingRepresentationEv
__ZN5clang4Sema21CheckAdditionOperandsERNS_12ActionResultIPNS_4ExprELb1EEES5_NS_14SourceLocationEPNS_8QualTypeE
__ZN5clang4Sema18ActOnConditionalOpENS_14SourceLocationES1_PNS_4ExprES3_S3_
__ZN5clang4Sema24CheckConditionalOperandsERNS_12ActionResultIPNS_4ExprELb1EEES5_S5_RNS_13ExprValueKindERNS_14ExprObjectKindENS_14SourceLocationE
__ZN5clang4Sema20CheckPlaceholderExprEPNS_4ExprE
__ZNK5clang4Type12isScalarTypeEv
__ZN5clang4Expr24IgnoreConversionOperatorEv
__ZN5clang19ConditionalOperatorC2EPNS_4ExprENS_14SourceLocationES2_S3_S2_NS_8QualTypeENS_13ExprValueKindENS_14ExprObjectKindE
__ZN5clang12Preprocessor42removeCachedMacroExpandedTokensOfLastLexerEv
__ZNK4llvm6APSIntrmERKS0_
__ZNK4llvm5APInt4uremERKS0_
__ZL22HandleConversionToBoolRKN12_GLOBAL__N_17CCValueERb
__ZNK4llvm6APSIntdvERKS0_
__ZNK4llvm5APInt4udivERKS0_
__ZNK4llvm15SmallPtrSetImpl13FindBucketForEPKv
__ZN5clang8DeclSpec11SetTypeQualENS0_2TQENS_14SourceLocationERPKcRjRKNS_11LangOptionsE
__ZN5clang18IdentifierResolver8iterator17incrementSlowCaseEv
__ZN5clang6Parser18ParseUnqualifiedIdERNS_12CXXScopeSpecEbbbNS_9OpaquePtrINS_8QualTypeEEERNS_13UnqualifiedIdE
__ZN5clang4Sema21ActOnMemberAccessExprEPNS_5ScopeEPNS_4ExprENS_14SourceLocationENS_3tok9TokenKindERNS_12CXXScopeSpecERNS_13UnqualifiedIdEPNS_4DeclEb
__ZNK5clang15DeclarationName15isDependentNameEv
__ZN5clang4Sema25isDependentScopeSpecifierERKNS_12CXXScopeSpecE
__ZN5clang4Sema16LookupMemberExprERNS_12LookupResultERNS_12ActionResultIPNS_4ExprELb1EEERbNS_14SourceLocationERNS_12CXXScopeSpecEPNS_4DeclEb
__ZL24LookupMemberExprInRecordRN5clang4SemaERNS_12LookupResultENS_11SourceRangeEPKNS_10RecordTypeENS_14SourceLocationERNS_12CXXScopeSpecEb
__ZN5clang4Sema19LookupQualifiedNameERNS_12LookupResultEPNS_11DeclContextEb
__ZL12LookupDirectRN5clang4SemaERNS_12LookupResultEPKNS_11DeclContextE
__ZNK5clang11DeclContext6lookupENS_15DeclarationNameE
__ZN5clang11DeclContext6lookupENS_15DeclarationNameE
__ZN5clang11DeclContext11buildLookupEPS0_
__ZN5clang11DeclContext28makeDeclVisibleInContextImplEPNS_9NamedDeclEb
__ZN4llvm8DenseMapIN5clang15DeclarationNameENS1_15StoredDeclsListENS_12DenseMapInfoIS2_EENS4_IS3_EEE16FindAndConstructERKS2_
__ZN4llvm12DenseMapInfoIN5clang15DeclarationNameEE12getHashValueES2_
__ZN4llvm8DenseMapIN5clang15DeclarationNameENS1_15StoredDeclsListENS_12DenseMapInfoIS2_EENS4_IS3_EEE16InsertIntoBucketERKS2_RKS3_PSt4pairIS2_S3_E
__ZN4llvm8DenseMapIN5clang15DeclarationNameENS1_15StoredDeclsListENS_12DenseMapInfoIS2_EENS4_IS3_EEE4growEj
__ZN5clang4Sema24BuildMemberReferenceExprEPNS_4ExprENS_8QualTypeENS_14SourceLocationEbRKNS_12CXXScopeSpecEPNS_9NamedDeclERNS_12LookupResultEPKNS_24TemplateArgumentListInfoEb
__ZL23BuildFieldReferenceExprRN5clang4SemaEPNS_4ExprEbRKNS_12CXXScopeSpecEPNS_9FieldDeclENS_14DeclAccessPairERKNS_19DeclarationNameInfoE
__ZN5clang4Sema29PerformObjectMemberConversionEPNS_4ExprEPNS_19NestedNameSpecifierEPNS_9NamedDeclES6_
__ZN5clang10MemberExpr6CreateERNS_10ASTContextEPNS_4ExprEbNS_22NestedNameSpecifierLocEPNS_9ValueDeclENS_14DeclAccessPairENS_19DeclarationNameInfoEPKNS_24TemplateArgumentListInfoENS_8QualTypeENS_13ExprValueKindENS_14ExprObjectKindE
__ZN5clang9MacroArgs7destroyERNS_12PreprocessorE
__ZN5clang4Sema23ActOnArraySubscriptExprEPNS_5ScopeEPNS_4ExprENS_14SourceLocationES4_S5_
__ZN5clang4Sema31CreateBuiltinArraySubscriptExprEPNS_4ExprENS_14SourceLocationES2_S3_
__ZNK5clang10ASTContext19getArrayDecayedTypeENS_8QualTypeE
__ZNK5clang10MemberExpr14getSourceRangeEv
__ZN5clang18ArraySubscriptExprC2EPNS_4ExprES2_NS_8QualTypeENS_13ExprValueKindENS_14ExprObjectKindENS_14SourceLocationE
__ZN5clang4Sema16CheckArrayAccessEPKNS_4ExprES3_bb
__ZL14getElementTypePKN5clang4ExprE
__ZNK5clang4Type14getPointeeTypeEv
__ZN12_GLOBAL__N_113GetValueRangeERN5clang10ASTContextERNS0_7APValueENS0_8QualTypeEj
__ZN12_GLOBAL__N_113GetValueRangeERN5clang10ASTContextERN4llvm6APSIntEj
__ZN5clang6Parser18ParseGNUAttributesERNS_16ParsedAttributesEPNS_14SourceLocationEPN4llvm11SmallVectorIPNS0_19LateParsedAttributeELj2EEE
__ZN5clang16AttributeFactory8allocateEm
__ZN5clang13AttributeList7getKindEPKNS_14IdentifierInfoE
__ZN5clang6Parser22isDeclarationSpecifierEb
__ZN5clang13AttributePool8takePoolEPNS_13AttributeListE
__ZL37distributeFunctionTypeAttrToInnermostRN12_GLOBAL__N_119TypeProcessingStateERN5clang13AttributeListERPS3_RNS2_8QualTypeE
__ZL16processTypeAttrsRN12_GLOBAL__N_119TypeProcessingStateERN5clang8QualTypeEbPNS2_13AttributeListE
__ZL22handleFunctionTypeAttrRN12_GLOBAL__N_119TypeProcessingStateERN5clang13AttributeListERNS2_8QualTypeE
__ZN5clang4Sema17CheckNoReturnAttrERKNS_13AttributeListE
__ZN5clang10ASTContext18adjustFunctionTypeEPKNS_12FunctionTypeENS1_7ExtInfoE
__ZN12_GLOBAL__N_121FunctionTypeUnwrapper4wrapERN5clang10ASTContextENS1_8QualTypeEj
__ZN5clang4Sema29findLocallyScopedExternalDeclENS_15DeclarationNameE
__ZN4llvm8DenseMapIN5clang15DeclarationNameEPNS1_9NamedDeclENS_12DenseMapInfoIS2_EENS5_IS4_EEE4findERKS2_
__ZL26ProcessInheritableDeclAttrRN5clang4SemaEPNS_5ScopeEPNS_4DeclERKNS_13AttributeListE
__ZN5clang16AttributeFactory11reclaimPoolEPNS_13AttributeListE
__ZNK5clang12FunctionDecl47doesDeclarationForceExternallyVisibleDefinitionEv
__ZNK5clang4Type32hasUnsignedIntegerRepresentationEv
__ZNK4llvm5APIntplEy
__ZNK4llvm5APIntplERKS0_
__ZNK4llvm6APSIntlsEj
__ZN5clang4Sema23ActOnVariableDeclaratorEPNS_5ScopeERNS_10DeclaratorEPNS_11DeclContextEPNS_14TypeSourceInfoERNS_12LookupResultENS_11ASTMultiPtrIPNS_21TemplateParameterListEEE
__ZN5clang7VarDecl6CreateERNS_10ASTContextEPNS_11DeclContextENS_14SourceLocationES5_PNS_14IdentifierInfoENS_8QualTypeEPNS_14TypeSourceInfoENS_12StorageClassESB_
__ZN5clang4Sema11CheckShadowEPNS_5ScopeEPNS_7VarDeclERKNS_12LookupResultE
__ZN5clang4Sema24CheckVariableDeclarationEPNS_7VarDeclERNS_12LookupResultE
__ZNK5clang7VarDecl9isExternCEv
__ZN5clang8QualType10isConstantES0_RNS_10ASTContextE
__ZNK5clang7VarDecl28isThisDeclarationADefinitionEv
__ZN5clang4Sema12ActOnUnaryOpEPNS_5ScopeENS_14SourceLocationENS_3tok9TokenKindEPNS_4ExprE
__ZN5clang4Sema12BuildUnaryOpEPNS_5ScopeENS_14SourceLocationENS_17UnaryOperatorKindEPNS_4ExprE
__ZN5clang4Sema20CreateBuiltinUnaryOpENS_14SourceLocationENS_17UnaryOperatorKindEPNS_4ExprE
__ZN5clang13UnaryOperatorC2EPNS_4ExprENS_17UnaryOperatorKindENS_8QualTypeENS_13ExprValueKindENS_14ExprObjectKindENS_14SourceLocationE
__ZN5clang4Sema20MaybeBindToTemporaryEPNS_4ExprE
__ZNK5clang7VarDecl13hasDefinitionEv
__ZN12_GLOBAL__N_124CheckConditionalOperatorERN5clang4SemaEPNS0_19ConditionalOperatorENS0_8QualTypeE
__ZN12_GLOBAL__N_123CheckConditionalOperandERN5clang4SemaEPNS0_4ExprENS0_8QualTypeENS0_14SourceLocationERb
__ZN5clang15StmtVisitorBaseINS_14make_const_ptrEN12_GLOBAL__N_120PointerExprEvaluatorEbE5VisitEPKNS_4StmtE
__ZN12_GLOBAL__N_120PointerExprEvaluator13VisitCastExprEPKN5clang8CastExprE
__ZNK5clang10ASTContext14getDiagnosticsEv
__ZNK5clang9FieldDecl13getFieldIndexEv
__ZN4llvm15SmallVectorImplIN5clang7APValue15LValuePathEntryEE9push_backERKS3_
__ZL15EvaluateIntegerPKN5clang4ExprERN4llvm6APSIntERN12_GLOBAL__N_18EvalInfoE
__ZNK5clang4Type10isRealTypeEv
__ZN5clang4Sema20CheckLogicalOperandsERNS_12ActionResultIPNS_4ExprELb1EEES5_NS_14SourceLocationEj
__ZN5clang22InitializationSequenceC1ERNS_4SemaERKNS_17InitializedEntityERKNS_18InitializationKindEPPNS_4ExprEj
__ZN5clang4Sema32CheckCompleteVariableDeclarationEPNS_7VarDeclE
__ZN5clang22InitializationSequenceD1Ev
__ZN5clang4Sema13ActOnDeclStmtENS_9OpaquePtrINS_12DeclGroupRefEEENS_14SourceLocationES4_
__ZN5clang6Parser16ParseIfStatementERNS_16ParsedAttributesE
__ZN5clang6Parser25ParseParenExprOrConditionERNS_12ActionResultIPNS_4ExprELb1EEERPNS_4DeclENS_14SourceLocationEb
__ZN5clang4Sema21ActOnBooleanConditionEPNS_5ScopeENS_14SourceLocationEPNS_4ExprE
__ZN5clang4Sema21CheckBooleanConditionEPNS_4ExprENS_14SourceLocationE
__ZN5clang4Sema29DiagnoseAssignmentAsConditionEPNS_4ExprE
__ZN5clang4Sema19ActOnFinishFullExprEPNS_4ExprE
__ZN5clang4Sema23IgnoredValueConversionsEPNS_4ExprE
__ZN5clang4Sema11ActOnIfStmtENS_14SourceLocationENS0_11FullExprArgEPNS_4DeclEPNS_4StmtES1_S6_
__ZN5clang6IfStmtC1ERNS_10ASTContextENS_14SourceLocationEPNS_7VarDeclEPNS_4ExprEPNS_4StmtES3_S9_
__ZN5clang6IfStmt20setConditionVariableERNS_10ASTContextEPNS_7VarDeclE
__ZN5clang4Sema12ClassifyNameEPNS_5ScopeERNS_12CXXScopeSpecERPNS_14IdentifierInfoENS_14SourceLocationERKNS_5TokenE
__ZN5clang6Parser18ParseExprStatementERNS_16ParsedAttributesE
__ZN5clang4Sema13ActOnCastExprEPNS_5ScopeENS_14SourceLocationERNS_10DeclaratorERNS_9OpaquePtrINS_8QualTypeEEES3_PNS_4ExprE
__ZN5clang4Sema24GetTypeForDeclaratorCastERNS_10DeclaratorENS_8QualTypeE
__ZN5clang4Sema16CreateParsedTypeENS_8QualTypeEPNS_14TypeSourceInfoE
__ZN5clang4Sema19BuildCStyleCastExprENS_14SourceLocationEPNS_14TypeSourceInfoES1_PNS_4ExprE
__ZNK5clang7TypeLoc11getBeginLocEv
__ZN5clang7TypeLoc23getLocalSourceRangeImplES0_
__ZNK5clang7TypeLoc9getEndLocEv
__ZN5clang4Sema36DefaultFunctionArrayLvalueConversionEPNS_4ExprE
__ZN5clang14CStyleCastExpr6CreateERNS_10ASTContextENS_8QualTypeENS_13ExprValueKindENS_8CastKindEPNS_4ExprEPKN4llvm11SmallVectorIPNS_16CXXBaseSpecifierELj4EEEPNS_14TypeSourceInfoENS_14SourceLocationESH_
__ZN5clang4Sema23CheckAssignmentOperandsEPNS_4ExprERNS_12ActionResultIS2_Lb1EEENS_14SourceLocationENS_8QualTypeE
__ZL24CheckForModifiableLvaluePN5clang4ExprENS_14SourceLocationERNS_4SemaE
__ZNK5clang4Expr18isModifiableLvalueERNS_10ASTContextEPNS_14SourceLocationE
__ZNK5clang4Expr12ClassifyImplERNS_10ASTContextEPNS_14SourceLocationE
__ZL16ClassifyInternalRN5clang10ASTContextEPKNS_4ExprE
__ZL12ClassifyDeclRN5clang10ASTContextEPKNS_4DeclE
__ZN5clang6Parser20ExpectAndConsumeSemiEj
__ZNK4llvm6APSIntorERKS0_
__ZN5clang4Sema13ActOnExprStmtENS0_11FullExprArgE
__ZNK5clang4Expr22isUnusedResultAWarningERNS_14SourceLocationERNS_11SourceRangeES4_RNS_10ASTContextE
__ZN5clang12Preprocessor18ExpandBuiltinMacroERNS_5TokenE
__ZL24EvaluateHasIncludeCommonRN5clang5TokenEPNS_14IdentifierInfoERNS_12PreprocessorEPKNS_15DirectoryLookupE
__ZN5clang12HeaderSearch24LookupSubframeworkHeaderEN4llvm9StringRefEPKNS_9FileEntryEPNS1_15SmallVectorImplIcEES8_
__ZN5clang12Preprocessor12CreateStringEPKcjRNS_5TokenENS_14SourceLocationES5_
__ZN5clang13ScratchBuffer8getTokenEPKcjRS2_
__ZN5clang13ScratchBuffer18AllocScratchBufferEj
__ZN4llvm12MemoryBuffer15getNewMemBufferEmNS_9StringRefE
__ZN5clang12Preprocessor26HandleIncludeNextDirectiveENS_14SourceLocationERNS_5TokenE
__ZNK5clang18IdentifierResolver13isDeclInScopeEPNS_4DeclEPNS_11DeclContextERNS_10ASTContextEPNS_5ScopeEb
__ZN5clang4Sema17MergeFunctionDeclEPNS_12FunctionDeclEPNS_4DeclE
__ZN5clang10ASTContext18typesAreCompatibleENS_8QualTypeES1_b
__ZN5clang10ASTContext10mergeTypesENS_8QualTypeES1_bbb
__ZN5clang4Sema28MergeCompatibleFunctionDeclsEPNS_12FunctionDeclES2_
__ZL19mergeDeclAttributesPN5clang4DeclEPKS0_RNS_10ASTContextEb
__ZL11DeclHasAttrPKN5clang4DeclEPKNS_4AttrE
__ZNK5clang16AlwaysInlineAttr5cloneERNS_10ASTContextE
__ZN5clang12FunctionDecl15setStorageClassENS_12StorageClassE
__ZL24mergeParamDeclAttributesPN5clang11ParmVarDeclEPKS0_RNS_10ASTContextE
__ZN5clang12FunctionDecl22setPreviousDeclarationEPS0_
__ZN5clang12RedeclarableINS_12FunctionDeclEE22setPreviousDeclarationEPS1_
__ZN5clang4Sema20CheckFloatComparisonENS_14SourceLocationEPNS_4ExprES3_
__ZNK5clang8CallExpr13isBuiltinCallERKNS_10ASTContextE
__ZN4llvm7APFloatC1Ed
__ZN4llvm7APFloat13initFromAPIntERKNS_5APIntEb
__ZN4llvm7APFloat19initFromDoubleAPIntERKNS_5APIntE
__ZN5clang15StmtVisitorBaseINS_14make_const_ptrEN12_GLOBAL__N_118FloatExprEvaluatorEbE5VisitEPKNS_4StmtE
__ZN12_GLOBAL__N_118FloatExprEvaluator13VisitCallExprEPKN5clang8CallExprE
__ZNK5clang10ASTContext21getFloatTypeSemanticsENS_8QualTypeE
__ZN4llvm7APFloatC1ERKNS_12fltSemanticsENS0_11fltCategoryEb
__ZN4llvm7APFloatC2ERKNS_12fltSemanticsENS0_11fltCategoryEb
__ZN4llvm7APFloataSERKS0_
__ZN4llvm7APFloat6assignERKS0_
__ZN4llvm7APFloatD1Ev
__ZN12_GLOBAL__N_118FloatExprEvaluator13VisitCastExprEPKN5clang8CastExprE
__ZN5clang4Sema25ActOnParenOrParenListExprENS_14SourceLocationES1_NS_11ASTMultiPtrIPNS_4ExprEEE
__ZN5clang4Sema24SetMemberAccessSpecifierEPNS_9NamedDeclES2_NS_15AccessSpecifierE
__ZN5clang4Sema20AddInitializerToDeclEPNS_4DeclEPNS_4ExprEbb
__ZN5clang7VarDecl13getDefinitionEv
__ZN5clang4Sema18checkUnsafeAssignsENS_14SourceLocationENS_8QualTypeEPNS_4ExprE
__ZN5clang7VarDecl7setInitEPNS_4ExprE
__ZN4llvm7APFloatC1ERKNS_12fltSemanticsE
__ZN5clang20NumericLiteralParser13GetFloatValueERN4llvm7APFloatE
__ZN4llvm7APFloat17convertFromStringENS_9StringRefENS0_12roundingModeE
__ZN4llvm7APFloat24convertFromDecimalStringENS_9StringRefENS0_12roundingModeE
__ZN4llvm5APInt14tcMultiplyPartEPyPKyyyjjb
__ZN4llvm7APFloat28roundSignificandWithExponentEPKyjiNS0_12roundingModeE
__ZN4llvm5APInt14tcFullMultiplyEPyPKyS3_jj
__ZN4llvm7APFloat24convertFromUnsignedPartsEPKyjNS0_12roundingModeE
__ZN4llvm5APInt5tcMSBEPKyj
__ZN4llvm5APInt9tcExtractEPyjPKyjj
__ZN4llvm7APFloat9normalizeENS0_12roundingModeENS_12lostFractionE
__ZN4llvm5APInt11tcShiftLeftEPyjj
__ZN4llvm5APInt5tcLSBEPKyj
__ZN4llvm5APInt12tcExtractBitEPKyj
__ZN4llvm7APFloat17divideSignificandERKS0_
__ZN4llvm5APInt9tcCompareEPKyS2_j
__ZN4llvm5APInt10tcSubtractEPyPKyyj
__ZN4llvm5APInt8tcSetBitEPyj
__ZN4llvm5APInt8tcIsZeroEPKyj
__ZN4llvm5APInt11tcIncrementEPyj
__ZN5clang15FloatingLiteral6CreateERNS_10ASTContextERKN4llvm7APFloatEbNS_8QualTypeENS_14SourceLocationE
__ZN5clang14APFloatStorage8setValueERNS_10ASTContextERKN4llvm7APFloatE
__ZNK4llvm7APFloat14bitcastToAPIntEv
__ZN4llvm7APFloatC1ERKNS_5APIntEb
__ZN4llvm7APFloat18initFromFloatAPIntERKNS_5APIntE
__ZN4llvm5APInt8tcAssignEPyPKyj
__ZNK4llvm7APFloat34convertF80LongDoubleAPFloatToAPIntEv
__ZN4llvm5APIntC1EjjPKy
__ZN4llvm7APFloat26initFromF80LongDoubleAPIntERKNS_5APIntE
__ZNK5clang9ConstAttr5cloneERNS_10ASTContextE
__ZN5clang5Lexer15SkipBCPLCommentERNS_5TokenEPKc
__ZNK5clang16ReturnsTwiceAttr5cloneERNS_10ASTContextE
__ZN5clang6Parser23ParseConstantExpressionEv
__ZN5clang4Sema14VerifyBitFieldENS_14SourceLocationEPNS_14IdentifierInfoENS_8QualTypeEPKNS_4ExprEPb
__ZN5clang4Sema31VerifyIntegerConstantExpressionEPKNS_4ExprEPN4llvm6APSIntE
__ZN4llvm15SmallPtrSetImpl16shrink_and_clearEv
__ZNK4llvm10FoldingSetIN5clang9ParenTypeEE10NodeEqualsEPNS_14FoldingSetImpl4NodeERKNS_16FoldingSetNodeIDERS7_
__ZN5clang4Sema18BuildQualifiedTypeENS_8QualTypeENS_14SourceLocationENS_10QualifiersE
__ZN5clang6Parser14ParseSimpleAsmEPNS_14SourceLocationE
__ZN5clang6Parser28ParseStringLiteralExpressionEv
__ZNK5clang10TokenLexer17isNextTokenLParenEv
__ZN5clang9MacroArgs22getStringifiedArgumentEjRNS_12PreprocessorENS_14SourceLocationES3_
__ZNSt6vectorIN5clang5TokenESaIS1_EE14_M_fill_insertEN9__gnu_cxx17__normal_iteratorIPS1_S3_EEmRKS1_
__ZN5clang9MacroArgs17StringifyArgumentEPKNS_5TokenERNS_12PreprocessorEbNS_14SourceLocationES6_
__ZN5clang4Sema18ActOnStringLiteralEPKNS_5TokenEj
__ZN5clang13StringLiteral6CreateERNS_10ASTContextEN4llvm9StringRefENS0_10StringKindEbNS_8QualTypeEPKNS_14SourceLocationEj
__ZN5clang13StringLiteral9setStringERNS_10ASTContextEN4llvm9StringRefENS0_10StringKindEb
__ZN5clang4Sema24CheckSubtractionOperandsERNS_12ActionResultIPNS_4ExprELb1EEES5_NS_14SourceLocationEPNS_8QualTypeE
__ZN5clang6Parser20ParseTypeofSpecifierERNS_8DeclSpecE
__ZNK5clang4Type14isIntegralTypeERNS_10ASTContextE
__ZL38checkArithmethicPointerOnNonFragileABIRN5clang4SemaENS_14SourceLocationEPNS_4ExprE
__ZL36checkArithmeticIncompletePointerTypeRN5clang4SemaENS_14SourceLocationEPNS_4ExprE
__ZNK5clang10ASTContext18getPointerDiffTypeEv
__ZN5clang8DeclSpec15SetTypeSpecTypeENS_17TypeSpecifierTypeENS_14SourceLocationERPKcRjPNS_4ExprE
__ZN5clang4Sema19BuildTypeofExprTypeEPNS_4ExprENS_14SourceLocationE
__ZNK5clang10ASTContext17getTypeOfExprTypeEPNS_4ExprE
__ZN5clang14TypeOfExprTypeC1EPNS_4ExprENS_8QualTypeE
__ZN5clang10TokenLexer11PasteTokensERNS_5TokenE
__ZN5clang6Parser21ParseGNUAttributeArgsEPNS_14IdentifierInfoENS_14SourceLocationERNS_16ParsedAttributesEPS3_
__ZN5clang6Parser23IsThreadSafetyAttributeEN4llvm9StringRefE
__ZNK5clang10FormatAttr5cloneERNS_10ASTContextE
__ZL15getFunctionTypePKN5clang4DeclEb
__ZNK5clang4Type10isCharTypeEv
__ZN4llvm14FoldingSetImpl13GrowHashTableEv
__ZNK4llvm20ContextualFoldingSetIN5clang17FunctionProtoTypeERNS1_10ASTContextEE15ComputeNodeHashEPNS_14FoldingSetImpl4NodeERNS_16FoldingSetNodeIDE
__ZNK4llvm16FoldingSetNodeID11ComputeHashEv
__ZNK5clang10ASTContext22getFunctionNoProtoTypeENS_8QualTypeERKNS_12FunctionType7ExtInfoE
__ZN5clang10ASTContext18mergeFunctionTypesENS_8QualTypeES1_bb
__ZL30CheckIncrementDecrementOperandRN5clang4SemaEPNS_4ExprERNS_13ExprValueKindENS_14SourceLocationEbb
__ZN5clang5Lexer15LexCharConstantERNS_5TokenEPKcNS_3tok9TokenKindE
__ZN5clang4Sema22ActOnCharacterConstantERKNS_5TokenE
__ZN5clang17CharLiteralParserC1EPKcS2_NS_14SourceLocationERNS_12PreprocessorENS_3tok9TokenKindE
__ZN5clang17CharLiteralParserC2EPKcS2_NS_14SourceLocationERNS_12PreprocessorENS_3tok9TokenKindE
__ZL17ProcessCharEscapeRPKcS0_RbN5clang13FullSourceLocEjPNS3_17DiagnosticsEngineE
__ZN5clang4Sema19ActOnPostfixUnaryOpEPNS_5ScopeENS_14SourceLocationENS_3tok9TokenKindEPNS_4ExprE
__ZL31checkArithmeticOpPointerOperandRN5clang4SemaENS_14SourceLocationEPNS_4ExprE
__ZL23CheckIndirectionOperandRN5clang4SemaEPNS_4ExprERNS_13ExprValueKindENS_14SourceLocationE
__ZNK5clang10ASTContext22getIncompleteArrayTypeENS_8QualTypeENS_9ArrayType17ArraySizeModifierEj
__ZN5clang6Parser18ParseEnumSpecifierENS_14SourceLocationERNS_8DeclSpecERKNS0_18ParsedTemplateInfoENS_15AccessSpecifierE
__ZN5clang8EnumDecl6CreateERNS_10ASTContextEPNS_11DeclContextENS_14SourceLocationES5_PNS_14IdentifierInfoEPS0_bbb
__ZNK5clang10ASTContext11getEnumTypeEPKNS_8EnumDeclE
__ZN5clang6Parser13ParseEnumBodyENS_14SourceLocationEPNS_4DeclE
__ZN5clang4Sema17ActOnEnumConstantEPNS_5ScopeEPNS_4DeclES4_NS_14SourceLocationEPNS_14IdentifierInfoEPNS_13AttributeListES5_PNS_4ExprE
__ZN5clang4Sema16LookupSingleNameEPNS_5ScopeENS_15DeclarationNameENS_14SourceLocationENS0_14LookupNameKindENS0_17RedeclarationKindE
__ZN5clang4Sema17CheckEnumConstantEPNS_8EnumDeclEPNS_16EnumConstantDeclENS_14SourceLocationEPNS_14IdentifierInfoEPNS_4ExprE
__ZN5clang16EnumConstantDecl6CreateERNS_10ASTContextEPNS_8EnumDeclENS_14SourceLocationEPNS_14IdentifierInfoENS_8QualTypeEPNS_4ExprERKN4llvm6APSIntE
__ZN5clang16EnumConstantDeclC2EPNS_11DeclContextENS_14SourceLocationEPNS_14IdentifierInfoENS_8QualTypeEPNS_4ExprERKN4llvm6APSIntE
__ZN4llvm5APIntppEv
__ZL27isRepresentableIntegerValueRN5clang10ASTContextERN4llvm6APSIntENS_8QualTypeE
__ZN5clang4Sema13ActOnEnumBodyENS_14SourceLocationES1_S1_PNS_4DeclEPS3_jPNS_5ScopeEPNS_13AttributeListE
__ZN5clang8EnumDecl18completeDefinitionENS_8QualTypeES1_jj
__ZNK5clang10ASTContext19getBlockPointerTypeENS_8QualTypeE
__ZNK4llvm10FoldingSetIN5clang16BlockPointerTypeEE10NodeEqualsEPNS_14FoldingSetImpl4NodeERKNS_16FoldingSetNodeIDERS7_
__ZNK5clang13SourceManager13getFileIDSlowEj
__ZNK5clang13SourceManager13getBufferDataENS_6FileIDEPb
__ZN5clang5LexerC1ENS_14SourceLocationERKNS_11LangOptionsEPKcS6_S6_
__ZN5clang5LexerC2ENS_14SourceLocationERKNS_11LangOptionsEPKcS6_S6_
__ZN5clang4Sema21SemaBuiltinObjectSizeEPNS_8CallExprE
__ZN5clang4Sema22SemaBuiltinConstantArgEPNS_8CallExprEiRN4llvm6APSIntE
__ZN5clang4Sema23CheckMemaccessArgumentsEPKNS_8CallExprENS0_21CheckedMemoryFunctionEPNS_14IdentifierInfoE
__ZL8EvalAddrPN5clang4ExprERN4llvm15SmallVectorImplIPNS_11DeclRefExprEEE
__ZNK4llvm10FoldingSetIN5clang11PointerTypeEE15ComputeNodeHashEPNS_14FoldingSetImpl4NodeERNS_16FoldingSetNodeIDE
__ZNK5clang4Type18getAsCXXRecordDeclEv
__ZN4llvm15SmallVectorImplIcEaSERKS1_
__ZN5clang12Preprocessor21HandlePragmaDirectiveEj
__ZN5clang15PragmaNamespace12HandlePragmaERNS_12PreprocessorENS_20PragmaIntroducerKindERNS_5TokenE
__ZN5clang17PragmaPackHandler12HandlePragmaERNS_12PreprocessorENS_20PragmaIntroducerKindERNS_5TokenE
__ZN5clang4Sema15ActOnPragmaPackENS0_14PragmaPackKindEPNS_14IdentifierInfoEPNS_4ExprENS_14SourceLocationES6_S6_
__ZN12_GLOBAL__N_115PragmaPackStack4pushEPN5clang14IdentifierInfoE
__ZL10HasFeatureRKN5clang12PreprocessorEPKNS_14IdentifierInfoE
__ZN12_GLOBAL__N_116IntExprEvaluator18VisitUnaryOperatorEPKN5clang13UnaryOperatorE
__ZNK4llvm5APIntngEv
__ZNK4llvm5APInt16countLeadingOnesEv
__ZN5clang6Parser43isStartOfObjCClassMessageMissingOpenBracketEv
__ZNK5clang4Type27getUnqualifiedDesugaredTypeEv
__ZN5clang6Parser20ParseSwitchStatementERNS_16ParsedAttributesE
__ZN5clang4Sema22ActOnStartOfSwitchStmtENS_14SourceLocationEPNS_4ExprEPNS_4DeclE
__ZN5clang4Sema34ConvertToIntegralOrEnumerationTypeENS_14SourceLocationEPNS_4ExprERKNS_17PartialDiagnosticES6_S6_S6_S6_S6_S6_
__ZN5clang10SwitchStmtC1ERNS_10ASTContextEPNS_7VarDeclEPNS_4ExprE
__ZN5clang10SwitchStmt20setConditionVariableERNS_10ASTContextEPNS_7VarDeclE
__ZN5clang6Parser18ParseCaseStatementERNS_16ParsedAttributesEbNS_12ActionResultIPNS_4ExprELb1EEE
__ZN5clang4Sema13ActOnCaseStmtENS_14SourceLocationEPNS_4ExprES1_S3_S1_
__ZN12_GLOBAL__N_116IntExprEvaluator19CheckReferencedDeclEPKN5clang4ExprEPKNS1_4DeclE
__ZN5clang4Sema17ActOnCaseStmtBodyEPNS_4StmtES2_
__ZN5clang6Parser21ParseDefaultStatementERNS_16ParsedAttributesE
__ZN5clang4Sema14ActOnBreakStmtENS_14SourceLocationEPNS_5ScopeE
__ZN5clang4Sema16ActOnDefaultStmtENS_14SourceLocationES1_PNS_4StmtEPNS_5ScopeE
__ZN5clang4Sema21ActOnFinishSwitchStmtENS_14SourceLocationEPNS_4StmtES3_
__ZNK5clang4Expr25isKnownToHaveBooleanValueEv
__ZNK5clang4Expr21EvaluateKnownConstIntERKNS_10ASTContextE
__ZN5clang4Sema34ConvertIntegerToTypeWarnOnOverflowERN4llvm6APSIntEjbNS_14SourceLocationEj
__ZNSt17_Temporary_bufferIPSt4pairIN4llvm6APSIntEPN5clang8CaseStmtEES6_EC2ES7_S7_
__ZSt22__stable_sort_adaptiveIPSt4pairIN4llvm6APSIntEPN5clang8CaseStmtEES7_lPFbRKS6_S9_EEvT_SC_T0_T1_T2_
__ZSt24__merge_sort_with_bufferIPSt4pairIN4llvm6APSIntEPN5clang8CaseStmtEES7_PFbRKS6_S9_EEvT_SC_T0_T1_
__ZSt16__insertion_sortIPSt4pairIN4llvm6APSIntEPN5clang8CaseStmtEEPFbRKS6_S9_EEvT_SC_T0_
__ZSt16__merge_adaptiveIPSt4pairIN4llvm6APSIntEPN5clang8CaseStmtEElS7_PFbRKS6_S9_EEvT_SC_SC_T0_SD_T1_SD_T2_
__ZNSt6__copyILb0ESt26random_access_iterator_tagE4copyIPSt4pairIN4llvm6APSIntEPN5clang8CaseStmtEESA_EET0_T_SC_SB_
__ZSt5mergeIPSt4pairIN4llvm6APSIntEPN5clang8CaseStmtEES7_S7_PFbRKS6_S9_EET1_T_SD_T0_SE_SC_T2_
__ZL11CmpCaseValsRKSt4pairIN4llvm6APSIntEPN5clang8CaseStmtEES7_
__ZNK4llvm10FoldingSetIN5clang19FunctionNoProtoTypeEE10NodeEqualsEPNS_14FoldingSetImpl4NodeERKNS_16FoldingSetNodeIDERS7_
__ZL13checkArgCountRN5clang4SemaEPNS_8CallExprEj
__ZN12_GLOBAL__N_116IntExprEvaluator13VisitCallExprEPKN5clang8CallExprE
__ZNK5clang12FunctionDecl7getBodyERPKS0_
__ZN5clang7TagDecl20getNextRedeclarationEv
__ZNK4llvm5APInt7smul_ovERKS0_Rb
__ZNK4llvm5APInt4sdivERKS0_
__ZNK4llvm5APInteqERKS0_
__ZNK4llvm5APInt7sadd_ovERKS0_Rb
__ZL14isCFStringTypeN5clang8QualTypeERNS_10ASTContextE
__ZN5clang8CallExpr13getCalleeDeclEv
__ZN12_GLOBAL__N_130CheckTrivialUnsignedComparisonERN5clang4SemaEPNS0_14BinaryOperatorE
__ZN12_GLOBAL__N_1L6IsZeroERN5clang4SemaEPNS0_4ExprE
__ZN5clang4Sema26CheckAssignmentConstraintsENS_14SourceLocationENS_8QualTypeES2_
__ZN5clang14BinaryOperatorC2EPNS_4ExprES2_NS_18BinaryOperatorKindENS_8QualTypeENS_13ExprValueKindENS_14ExprObjectKindENS_14SourceLocationE
__ZN5clang14BinaryOperatorC2EPNS_4ExprES2_NS_18BinaryOperatorKindENS_8QualTypeENS_13ExprValueKindENS_14ExprObjectKindENS_14SourceLocationEb
__ZNK4llvm10FoldingSetIN5clang14ElaboratedTypeEE15ComputeNodeHashEPNS_14FoldingSetImpl4NodeERNS_16FoldingSetNodeIDE
__ZL14isNSStringTypeN5clang8QualTypeERNS_10ASTContextE
__ZNK4llvm10FoldingSetIN5clang19IncompleteArrayTypeEE10NodeEqualsEPNS_14FoldingSetImpl4NodeERKNS_16FoldingSetNodeIDERS7_
__ZN5clang4Sema14AddAlignedAttrENS_11SourceRangeEPNS_4DeclEPNS_4ExprE
__ZN5clang4Sema14CheckCastAlignEPNS_4ExprENS_8QualTypeENS_11SourceRangeE
__ZN5clang6Parser16ParseDoStatementERNS_16ParsedAttributesE
__ZNK5clang4Expr14ClassifyLValueERNS_10ASTContextE
__ZN5clang4Sema11ActOnDoStmtENS_14SourceLocationEPNS_4StmtES1_S1_PNS_4ExprES1_
__ZNK5clang9FieldDecl16getBitWidthValueERKNS_10ASTContextE
__ZN5clang4Sema12MergeVarDeclEPNS_7VarDeclERNS_12LookupResultE
__ZN5clang4Sema17MergeVarDeclTypesEPNS_7VarDeclES2_
__ZN5clang12RedeclarableINS_7VarDeclEE22setPreviousDeclarationEPS1_
__ZNK5clang4Type11isUnionTypeEv
__ZL35possibleTransparentUnionPointerTypeRN5clang8QualTypeE
__ZN4llvmL25array_pod_sort_comparatorIjEEiPKvS2_
__ZN5clang4Sema21CheckNonNullArgumentsEPKNS_11NonNullAttrEPKPKNS_4ExprENS_14SourceLocationE
__ZNK5clang17DiagnosticBuilder9AddStringEN4llvm9StringRefE
__ZN5clang4Sema20MergeTypedefNameDeclEPNS_15TypedefNameDeclERNS_12LookupResultE
__ZN5clang6Parser21ParseObjCAtDirectivesEv
__ZNK5clang5Token16getObjCKeywordIDEv
__ZN5clang6Parser27ParseObjCAtClassDeclarationENS_14SourceLocationE
__ZN5clang4Sema28ActOnForwardClassDeclarationENS_14SourceLocationEPPNS_14IdentifierInfoEPS1_j
__ZN5clang11DeclContext24makeDeclVisibleInContextEPNS_9NamedDeclEb
__ZN5clang13ObjCClassDecl6CreateERNS_10ASTContextEPNS_11DeclContextENS_14SourceLocationEPNS_17ObjCInterfaceDeclES5_
__ZN5clang13ObjCClassDeclC2EPNS_11DeclContextENS_14SourceLocationEPNS_17ObjCInterfaceDeclES3_RNS_10ASTContextE
__ZN5clang4Sema18CheckObjCDeclScopeEPNS_4DeclE
__ZN4llvm5APIntpLERKS0_
__ZNK5clang21NSReturnsRetainedAttr5cloneERNS_10ASTContextE
__ZN5clang6Parser30ParseObjCAtProtocolDeclarationENS_14SourceLocationERNS_16ParsedAttributesE
__ZN5clang4Sema27ActOnStartProtocolInterfaceENS_14SourceLocationEPNS_14IdentifierInfoES1_PKPNS_4DeclEjPKS1_S1_PNS_13AttributeListE
__ZN5clang4Sema14LookupProtocolEPNS_14IdentifierInfoENS_14SourceLocationE
__ZN5clang16ObjCProtocolDecl6CreateERNS_10ASTContextEPNS_11DeclContextEPNS_14IdentifierInfoENS_14SourceLocationES7_b
__ZN5clang16ObjCProtocolDeclC2EPNS_11DeclContextEPNS_14IdentifierInfoENS_14SourceLocationES5_b
__ZN5clang4Sema33ActOnObjCContainerStartDefinitionEPNS_4DeclE
__ZN5clang4Decl17castToDeclContextEPKS0_
__ZN5clang6Parser26ParseObjCInterfaceDeclListENS_3tok15ObjCKeywordKindEPNS_4DeclE
__ZN5clang6Parser19ParseObjCMethodDeclENS_14SourceLocationENS_3tok9TokenKindENS2_15ObjCKeywordKindEb
__ZN5clang6Parser17ParseObjCTypeNameERNS_12ObjCDeclSpecENS_10Declarator10TheContextEPNS_16ParsedAttributesE
__ZN5clang4Sema38ActOnObjCTemporaryExitContainerContextEPNS_11DeclContextE
__ZN5clang6Parser26ParseObjCTypeQualifierListERNS_12ObjCDeclSpecENS_10Declarator10TheContextE
__ZN5clang4Sema32ActOnObjCReenterContainerContextEPNS_11DeclContextE
__ZN5clang6Parser22ParseObjCSelectorPieceERNS_14SourceLocationE
__ZN4llvm15SmallVectorImplIN5clang4Sema11ObjCArgInfoEE9push_backERKS3_
__ZN5clang13SelectorTable11getSelectorEjPPNS_14IdentifierInfoE
__ZN5clang4Sema22ActOnMethodDeclarationEPNS_5ScopeENS_14SourceLocationES3_NS_3tok9TokenKindERNS_12ObjCDeclSpecENS_9OpaquePtrINS_8QualTypeEEEN4llvm8ArrayRefIS3_EENS_8SelectorEPNS0_11ObjCArgInfoEPNS_15DeclaratorChunk9ParamInfoEjPNS_13AttributeListENS4_15ObjCKeywordKindEbb
__ZN5clang10ASTContext23getObjCInstanceTypeDeclEv
__ZN5clang14ObjCMethodDecl6CreateERNS_10ASTContextENS_14SourceLocationES3_NS_8SelectorENS_8QualTypeEPNS_14TypeSourceInfoEPNS_11DeclContextEbbbbbNS0_21ImplementationControlEb
__ZN5clang14ObjCMethodDeclC2ENS_14SourceLocationES1_NS_8SelectorENS_8QualTypeEPNS_14TypeSourceInfoEPNS_11DeclContextEbbbbbNS0_21ImplementationControlEb
__ZN5clang15DeclarationNameC1ENS_8SelectorE
__ZNK5clang8Selector10getNumArgsEv
__ZN5clang14ObjCMethodDecl15setMethodParamsERNS_10ASTContextEN4llvm8ArrayRefIPNS_11ParmVarDeclEEENS4_INS_14SourceLocationEEE
__ZNK5clang15DeclarationName15getObjCSelectorEv
__ZN5clang23hasStandardSelectorLocsENS_8SelectorEN4llvm8ArrayRefINS_14SourceLocationEEENS2_IPNS_11ParmVarDeclEEES3_
__ZNK5clang11ParmVarDecl14getSourceRangeEv
__ZNK5clang14DeclaratorDecl14getSourceRangeEv
__ZL17getStandardSelLocjN5clang8SelectorEbNS_14SourceLocationES1_
__ZNK5clang8Selector24getIdentifierInfoForSlotEj
__ZN4llvm12DenseMapInfoIN5clang8SelectorEE12getHashValueES2_
__ZNK5clang14ObjCMethodDecl15getMethodFamilyEv
__ZN5clang8Selector19getMethodFamilyImplES0_
__ZNK5clang5Token15isObjCAtKeywordENS_3tok15ObjCKeywordKindE
__ZN5clang4Sema10ActOnAtEndEPNS_5ScopeENS_11SourceRangeEPPNS_4DeclEjS6_jPNS_9OpaquePtrINS_12DeclGroupRefEEEj
__ZN4llvm8DenseMapIN5clang8SelectorEPKNS1_14ObjCMethodDeclENS_12DenseMapInfoIS2_EENS6_IS5_EEEixERKS2_
__ZN4llvm8DenseMapIN5clang8SelectorEPKNS1_14ObjCMethodDeclENS_12DenseMapInfoIS2_EENS6_IS5_EEE16InsertIntoBucketERKS2_RKS5_PSt4pairIS2_S5_E
__ZN4llvm8DenseMapIN5clang8SelectorEPKNS1_14ObjCMethodDeclENS_12DenseMapInfoIS2_EENS6_IS5_EEE4growEj
__ZN5clang4Sema21AddMethodToGlobalPoolEPNS_14ObjCMethodDeclEbb
__ZN4llvm8DenseMapIN5clang8SelectorESt4pairINS1_14ObjCMethodListES4_ENS_12DenseMapInfoIS2_EENS6_IS5_EEE6insertERKS3_IS2_S5_E
__ZN4llvm8DenseMapIN5clang8SelectorESt4pairINS1_14ObjCMethodListES4_ENS_12DenseMapInfoIS2_EENS6_IS5_EEE16InsertIntoBucketERKS2_RKS5_PS3_IS2_S5_E
__ZN4llvm8DenseMapIN5clang8SelectorESt4pairINS1_14ObjCMethodListES4_ENS_12DenseMapInfoIS2_EENS6_IS5_EEE4growEj
__ZN5clang4Sema33CompareMethodParamsInBaseAndSuperEPNS_4DeclEPNS_14ObjCMethodDeclEb
__ZNK5clang11DeclContext11decls_beginEv
__ZNK5clang11DeclContext9decls_endEv
__ZN5clang4Sema34ActOnObjCContainerFinishDefinitionEv
__ZN12_GLOBAL__N_115CGObjCCommonMac16GenerateProtocolEPKN5clang16ObjCProtocolDeclE
__ZN4llvm8DenseMapIPN5clang14IdentifierInfoEcNS_12DenseMapInfoIS3_EENS4_IcEEE6insertERKSt4pairIS3_cE
__ZN4llvm8DenseMapIPN5clang14IdentifierInfoEcNS_12DenseMapInfoIS3_EENS4_IcEEE16InsertIntoBucketERKS3_RKcPSt4pairIS3_cE
__ZN4llvm8DenseMapIPN5clang14IdentifierInfoEcNS_12DenseMapInfoIS3_EENS4_IcEEE4growEj
__ZN5clang6Parser31ParseObjCAtInterfaceDeclarationENS_14SourceLocationERNS_16ParsedAttributesE
__ZN5clang6Parser27ParseObjCProtocolReferencesERN4llvm15SmallVectorImplIPNS_4DeclEEERNS2_INS_14SourceLocationEEEbRS7_SA_
__ZN5clang4Sema23FindProtocolDeclarationEbPKSt4pairIPNS_14IdentifierInfoENS_14SourceLocationEEjRN4llvm15SmallVectorImplIPNS_4DeclEEE
__ZN5clang4Sema24ActOnStartClassInterfaceENS_14SourceLocationEPNS_14IdentifierInfoES1_S3_S1_PKPNS_4DeclEjPKS1_S1_PNS_13AttributeListE
__ZN5clang16ObjCProtocolList3setEPKPNS_16ObjCProtocolDeclEjPKNS_14SourceLocationERNS_10ASTContextE
__ZN5clang6Parser31ParseObjCClassInstanceVariablesEPNS_4DeclENS_3tok15ObjCKeywordKindENS_14SourceLocationE
__ZN5clang4Sema9ActOnIvarEPNS_5ScopeENS_14SourceLocationERNS_10DeclaratorEPNS_4ExprENS_3tok15ObjCKeywordKindE
__ZN5clang12ObjCIvarDecl6CreateERNS_10ASTContextEPNS_17ObjCContainerDeclENS_14SourceLocationES5_PNS_14IdentifierInfoENS_8QualTypeEPNS_14TypeSourceInfoENS0_13AccessControlEPNS_4ExprEb
__ZN5clang4Sema17ActOnLastBitfieldENS_14SourceLocationERN4llvm15SmallVectorImplIPNS_4DeclEEE
__ZN5clang4Sema31ComparePropertiesInBaseAndSuperEPNS_17ObjCInterfaceDeclE
__ZN5clang4Sema17ComparePropertiesEPNS_4DeclES2_
__ZN5clang4Sema33MatchOneProtocolPropertiesInClassEPNS_4DeclEPNS_16ObjCProtocolDeclE
__ZNK5clang6Parser24isKnownToBeTypeSpecifierERKNS_5TokenE
__ZN5clang4Sema27ActOnStartCategoryInterfaceENS_14SourceLocationEPNS_14IdentifierInfoES1_S3_S1_PKPNS_4DeclEjPKS1_S1_
__ZN5clang4Sema20getObjCInterfaceDeclERPNS_14IdentifierInfoENS_14SourceLocationEb
__ZN5clang16ObjCCategoryDecl6CreateERNS_10ASTContextEPNS_11DeclContextENS_14SourceLocationES5_S5_PNS_14IdentifierInfoEPNS_17ObjCInterfaceDeclE
__ZN5clang16ObjCCategoryDeclC2EPNS_11DeclContextENS_14SourceLocationES3_S3_PNS_14IdentifierInfoEPNS_17ObjCInterfaceDeclE
__ZN5clang6Parser26ParseObjCMessageExpressionEv
__ZN5clang6Parser30ParseObjCMessageExpressionBodyENS_14SourceLocationES1_NS_9OpaquePtrINS_8QualTypeEEEPNS_4ExprE
__ZN5clang4Sema20ActOnInstanceMessageEPNS_5ScopeEPNS_4ExprENS_8SelectorENS_14SourceLocationEN4llvm8ArrayRefIS6_EES6_NS_11ASTMultiPtrIS4_EE
__ZN5clang4Sema20BuildInstanceMessageEPNS_4ExprENS_8QualTypeENS_14SourceLocationENS_8SelectorEPNS_14ObjCMethodDeclES4_N4llvm8ArrayRefIS4_EES4_NS_11ASTMultiPtrIS2_EE
__ZN5clang4Sema24LookupMethodInGlobalPoolENS_8SelectorENS_11SourceRangeEbbb
__ZN5clang4Sema25CheckMessageArgumentTypesENS_8QualTypeEPPNS_4ExprEjNS_8SelectorEPNS_14ObjCMethodDeclEbbNS_14SourceLocationES8_RS1_RNS_13ExprValueKindE
__ZN5clang4Sema24getMessageSendResultTypeENS_8QualTypeEPNS_14ObjCMethodDeclEbb
__ZNK5clang4Type28isObjCQualifiedInterfaceTypeEv
__ZN5clang15ObjCMessageExpr6CreateERNS_10ASTContextENS_8QualTypeENS_13ExprValueKindENS_14SourceLocationEPNS_4ExprENS_8SelectorEN4llvm8ArrayRefIS5_EEPNS_14ObjCMethodDeclENSA_IS7_EES5_
__ZN5clang23hasStandardSelectorLocsENS_8SelectorEN4llvm8ArrayRefINS_14SourceLocationEEENS2_IPNS_4ExprEEES3_
__ZN5clang15ObjCMessageExprC2ENS_8QualTypeENS_13ExprValueKindENS_14SourceLocationEPNS_4ExprENS_8SelectorEN4llvm8ArrayRefIS3_EENS_21SelectorLocationsKindEPNS_14ObjCMethodDeclENS8_IS5_EES3_
__ZN5clang15ObjCMessageExpr18initArgsAndSelLocsEN4llvm8ArrayRefIPNS_4ExprEEENS2_INS_14SourceLocationEEENS_21SelectorLocationsKindE
__ZN5clang15ObjCMessageExpr8childrenEv
__ZN5clang17ObjCInterfaceDecl20completedForwardDeclEv
__ZNK5clang17ObjCInterfaceDecl12lookupMethodENS_8SelectorEb
__ZNK5clang16ObjCProtocolDecl12lookupMethodENS_8SelectorEb
__ZNK4llvm10FoldingSetIN5clang20MultiKeywordSelectorEE10NodeEqualsEPNS_14FoldingSetImpl4NodeERKNS_16FoldingSetNodeIDERS7_
__ZN12_GLOBAL__N_114OverrideSearch19searchFromContainerEPN5clang17ObjCContainerDeclE
__ZN12_GLOBAL__N_114OverrideSearch6searchEPN5clang17ObjCContainerDeclE
__ZNK5clang17ObjCContainerDecl9getMethodENS_8SelectorEb
__ZN5clang4Sema20mergeObjCMethodDeclsEPNS_14ObjCMethodDeclEPKS1_
__ZN5clang4Sema23CheckObjCMethodOverrideEPNS_14ObjCMethodDeclEPKS1_b
__ZN5clang4Sema26MatchTwoMethodDeclarationsEPKNS_14ObjCMethodDeclES3_NS0_19MethodMatchStrategyE
__ZL10matchTypesRN5clang10ASTContextENS_4Sema19MethodMatchStrategyENS_8QualTypeES4_
__ZN5clang11ASTConsumer33HandleTopLevelDeclInObjCContainerENS_12DeclGroupRefE
__ZN5clang4Sema22DiagnoseDuplicateIvarsEPNS_17ObjCInterfaceDeclES2_
__ZN5clang17ObjCInterfaceDecl22lookupInstanceVariableEPNS_14IdentifierInfoERPS0_
__ZNK4llvm10FoldingSetIN5clang20MultiKeywordSelectorEE15ComputeNodeHashEPNS_14FoldingSetImpl4NodeERNS_16FoldingSetNodeIDE
__ZN5clang4Sema32CheckConflictingOverridingMethodEPNS_14ObjCMethodDeclES2_b
__ZL25CheckMethodOverrideReturnRN5clang4SemaEPNS_14ObjCMethodDeclES3_bbb
__ZL24CheckMethodOverrideParamRN5clang4SemaEPNS_14ObjCMethodDeclES3_PNS_11ParmVarDeclES5_bbb
__ZN5clang6Parser27ParseObjCProtocolQualifiersERNS_8DeclSpecE
__ZN5clang8DeclSpec21setProtocolQualifiersEPKPNS_4DeclEjPNS_14SourceLocationES5_
__ZNK4llvm10FoldingSetIN5clang18ObjCObjectTypeImplEE10NodeEqualsEPNS_14FoldingSetImpl4NodeERKNS_16FoldingSetNodeIDERS7_
__ZN5clang18ObjCObjectTypeImpl7ProfileERN4llvm16FoldingSetNodeIDE
__ZN5clang14TypeLocVisitorIN12_GLOBAL__N_117TypeSpecLocFillerEvE5VisitENS_7TypeLocE
__ZN12_GLOBAL__N_117TypeSpecLocFiller22VisitObjCObjectTypeLocEN5clang17ObjCObjectTypeLocE
__ZN5clang6Parser26ParseObjCPropertyAttributeERNS_12ObjCDeclSpecE
__ZN5clang6Parser20ObjCPropertyCallback6invokeERNS_15FieldDeclaratorE
__ZN5clang13SelectorTable19constructSetterNameERNS_15IdentifierTableERS0_PKNS_14IdentifierInfoE
__ZN5clang4Sema13ActOnPropertyEPNS_5ScopeENS_14SourceLocationERNS_15FieldDeclaratorERNS_12ObjCDeclSpecENS_8SelectorES8_PbNS_3tok15ObjCKeywordKindEPNS_11DeclContextE
__ZN5clang4Sema18CreatePropertyDeclEPNS_5ScopeEPNS_17ObjCContainerDeclENS_14SourceLocationERNS_15FieldDeclaratorENS_8SelectorES8_bbjjPNS_14TypeSourceInfoENS_3tok15ObjCKeywordKindEPNS_11DeclContextE
__ZN5clang16ObjCPropertyDecl6CreateERNS_10ASTContextEPNS_11DeclContextENS_14SourceLocationEPNS_14IdentifierInfoES5_PNS_14TypeSourceInfoENS0_15PropertyControlE
__ZN5clang16ObjCPropertyDecl16findPropertyDeclEPKNS_11DeclContextEPNS_14IdentifierInfoE
__ZN5clang4Sema27CheckObjCPropertyAttributesEPNS_4DeclENS_14SourceLocationERj
__ZNK5clang4Type20isObjCRetainableTypeEv
__ZN5clang4Sema19ProcessPropertyDeclEPNS_16ObjCPropertyDeclEPNS_17ObjCContainerDeclES2_S4_
__ZN5clang4Sema32DiagnosePropertyAccessorMismatchEPNS_16ObjCPropertyDeclEPNS_14ObjCMethodDeclENS_14SourceLocationE
__ZL16AddPropertyAttrsRN5clang4SemaEPNS_14ObjCMethodDeclEPNS_16ObjCPropertyDeclE
__ZN5clang4Sema31ActOnForwardProtocolDeclarationENS_14SourceLocationEPKSt4pairIPNS_14IdentifierInfoES1_EjPNS_13AttributeListE
__ZN5clang23ObjCForwardProtocolDecl6CreateERNS_10ASTContextEPNS_11DeclContextENS_14SourceLocationEPKPNS_16ObjCProtocolDeclEjPKS5_
__ZN5clang23ObjCForwardProtocolDeclC2EPNS_11DeclContextENS_14SourceLocationEPKPNS_16ObjCProtocolDeclEjPKS3_RNS_10ASTContextE
__ZN5clang12ObjCListBase3setEPKPvjRNS_10ASTContextE
__ZN5clang4Sema52CheckForwardProtocolDeclarationForCircularDependencyEPNS_14IdentifierInfoERNS_14SourceLocationES3_RKNS_8ObjCListINS_16ObjCProtocolDeclEEE
__ZN5clang16ObjCProtocolDecl20completedForwardDeclEv
__ZL23isObjCTypeSubstitutableRN5clang10ASTContextEPKNS_21ObjCObjectPointerTypeES4_b
__ZN5clang10ASTContext33ObjCQualifiedIdTypesAreCompatibleENS_8QualTypeES1_b
__ZNK5clang4Type17isVoidPointerTypeEv
__ZNK5clang4Type24getAsObjCQualifiedIdTypeEv
__ZNK5clang10ASTContext30ProtocolCompatibleWithProtocolEPNS_16ObjCProtocolDeclES2_
__ZN5clang10ASTContext23canAssignObjCInterfacesEPKNS_21ObjCObjectPointerTypeES3_
__ZN5clang9FixItHint15CreateInsertionENS_14SourceLocationEN4llvm9StringRefE
__ZNK4llvm10FoldingSetIN5clang17ConstantArrayTypeEE15ComputeNodeHashEPNS_14FoldingSetImpl4NodeERNS_16FoldingSetNodeIDE
__ZN5clang4Sema22EmitDeprecationWarningEPNS_9NamedDeclEN4llvm9StringRefENS_14SourceLocationEPKNS_17ObjCInterfaceDeclE
__ZN5clang4sema17DelayedDiagnostic15makeDeprecationENS_14SourceLocationEPKNS_9NamedDeclEN4llvm9StringRefE
__ZN5clang4Sema18DelayedDiagnostics3addERKNS_4sema17DelayedDiagnosticE
__ZN5clang4Sema29HandleDelayedDeprecationCheckERNS_4sema17DelayedDiagnosticEPNS_4DeclE
__ZL16isDeclDeprecatedPN5clang4DeclE
__ZN5clang4sema17DelayedDiagnostic7DestroyEv
__ZNK4llvm5APIntcoEv
__ZNK4llvm10FoldingSetIN5clang9ParenTypeEE15ComputeNodeHashEPNS_14FoldingSetImpl4NodeERNS_16FoldingSetNodeIDE
__ZN4llvm5APIntlSEj
__ZN12_GLOBAL__N_117PragmaMarkHandler12HandlePragmaERN5clang12PreprocessorENS1_20PragmaIntroducerKindERNS1_5TokenE
__ZN5clang5Lexer15ReadToEndOfLineEv
__ZNK4llvm5APInt3shlERKS0_
__ZNK4llvm5APIntmiEy
__ZNK5clang13SourceManager23getExpansionLocSlowCaseENS_14SourceLocationE
__ZNK4llvm6APSIntanERKS0_
__ZNK4llvm6APSIntrsEj
__ZNK4llvm5APInt4ashrEj
__ZN5clang10ASTContext28getCorrespondingUnsignedTypeENS_8QualTypeE
__ZNK5clang8QualType9isPODTypeERNS_10ASTContextE
__ZN5clang20PragmaOptionsHandler12HandlePragmaERNS_12PreprocessorENS_20PragmaIntroducerKindERNS_5TokenE
__ZL16ParseAlignPragmaRN5clang4SemaERNS_12PreprocessorERNS_5TokenEb
__ZN5clang4Sema23ActOnPragmaOptionsAlignENS0_22PragmaOptionsAlignKindENS_14SourceLocationES2_
__ZNK5clang10ASTContext13getVectorTypeENS_8QualTypeEjNS_10VectorType10VectorKindE
__ZN5clang10VectorTypeC1ENS_8QualTypeEjS1_NS0_10VectorKindE
__ZNK4llvm10FoldingSetIN5clang10VectorTypeEE10NodeEqualsEPNS_14FoldingSetImpl4NodeERKNS_16FoldingSetNodeIDERS7_
__ZN5clang4Sema15CheckVectorCastENS_11SourceRangeENS_8QualTypeES2_RNS_8CastKindE
__ZN5clang6Parser30ParseCompoundLiteralExpressionENS_9OpaquePtrINS_8QualTypeEEENS_14SourceLocationES4_
__ZN5clang6Parser21ParseBraceInitializerEv
__ZN5clang4Sema13ActOnInitListENS_14SourceLocationENS_11ASTMultiPtrIPNS_4ExprEEES1_
__ZN5clang12InitListExprC1ERNS_10ASTContextENS_14SourceLocationEPPNS_4ExprEjS3_
__ZN5clang12InitListExprC2ERNS_10ASTContextENS_14SourceLocationEPPNS_4ExprEjS3_
__ZN5clang9ASTVectorIPNS_4StmtEE6insertIPPNS_4ExprEEEPS2_RNS_10ASTContextES8_T_SB_
__ZN5clang9ASTVectorIPNS_4StmtEE6appendIPPNS_4ExprEEEvRNS_10ASTContextET_SA_
__ZN5clang4Sema20ActOnCompoundLiteralENS_14SourceLocationENS_9OpaquePtrINS_8QualTypeEEES1_PNS_4ExprE
__ZN5clang4Sema24BuildCompoundLiteralExprENS_14SourceLocationEPNS_14TypeSourceInfoES1_PNS_4ExprE
__ZNK5clang12InitListExpr14getSourceRangeEv
__ZN12_GLOBAL__N_115InitListCheckerC2ERN5clang4SemaERKNS1_17InitializedEntityEPNS1_12InitListExprERNS1_8QualTypeEbb
__ZN12_GLOBAL__N_115InitListChecker26getStructuredSubobjectInitEPN5clang12InitListExprEjNS1_8QualTypeES3_jNS1_11SourceRangeE
__ZN12_GLOBAL__N_115InitListChecker21CheckExplicitInitListERKN5clang17InitializedEntityEPNS1_12InitListExprERNS1_8QualTypeERjS6_S9_b
__ZN12_GLOBAL__N_115InitListChecker21CheckListElementTypesERKN5clang17InitializedEntityEPNS1_12InitListExprERNS1_8QualTypeEbRjS6_S9_b
__ZN5clang17InitializedEntityC2ERNS_10ASTContextEjRKS0_
__ZN12_GLOBAL__N_115InitListChecker19CheckSubElementTypeERKN5clang17InitializedEntityEPNS1_12InitListExprENS1_8QualTypeERjS6_S8_
__ZN12_GLOBAL__N_115InitListChecker15CheckScalarTypeERKN5clang17InitializedEntityEPNS1_12InitListExprENS1_8QualTypeERjS6_S8_
__ZN5clang4Sema28CanPerformCopyInitializationERKNS_17InitializedEntityENS_12ActionResultIPNS_4ExprELb1EEE
__ZNSt8_Rb_treeIPN5clang12InitListExprESt4pairIKS2_S2_ESt10_Select1stIS5_ESt4lessIS2_ESaIS5_EE8_M_eraseEPSt13_Rb_tree_nodeIS5_E
__ZNSt8_Rb_treeIPN5clang12InitListExprESt4pairIKS2_S2_ESt10_Select1stIS5_ESt4lessIS2_ESaIS5_EE16_M_insert_uniqueESt17_Rb_tree_iteratorIS5_ERKS5_
__ZNSt8_Rb_treeIPN5clang12InitListExprESt4pairIKS2_S2_ESt10_Select1stIS5_ESt4lessIS2_ESaIS5_EE16_M_insert_uniqueERKS5_
__ZN5clang12InitListExpr12reserveInitsERNS_10ASTContextEj
__ZNK5clang22InitializationSequence17endsWithNarrowingERNS_10ASTContextEPKNS_4ExprEPbPNS_7APValueE
__ZN12_GLOBAL__N_115InitListChecker27UpdateStructuredListElementEPN5clang12InitListExprERjPNS1_4ExprE
__ZN5clang12InitListExpr10updateInitERNS_10ASTContextEjPNS_4ExprE
__ZN5clang9ASTVectorIPNS_4StmtEE6insertERNS_10ASTContextEPS2_mRKS2_
__ZN12_GLOBAL__N_115InitListChecker26FillInValueInitializationsERKN5clang17InitializedEntityEPNS1_12InitListExprERb
__ZN5clang4Sema26getCurFunctionOrMethodDeclEv
__ZN5clang19CompoundLiteralExprC2ENS_14SourceLocationEPNS_14TypeSourceInfoENS_8QualTypeENS_13ExprValueKindEPNS_4ExprEb
__ZNK5clang14VisibilityAttr5cloneERNS_10ASTContextE
__ZN5clang4Sema19CheckVectorOperandsERNS_12ActionResultIPNS_4ExprELb1EEES5_NS_14SourceLocationEb
__ZN5clang4Sema24DefaultArgumentPromotionEPNS_4ExprE
__ZN5clang4Sema24SemaBuiltinShuffleVectorEPNS_8CallExprE
__ZN5clang17ShuffleVectorExprC1ERNS_10ASTContextEPPNS_4ExprEjNS_8QualTypeENS_14SourceLocationES7_
__ZN5clang17ShuffleVectorExprC2ERNS_10ASTContextEPPNS_4ExprEjNS_8QualTypeENS_14SourceLocationES7_
__ZN5clang15TypedefNameDecl20getNextRedeclarationEv
__ZN5clang5Lexer24getCharAndSizeSlowNoWarnEPKcRjRKNS_11LangOptionsE
__ZN5clang4Sema26CheckVectorCompareOperandsERNS_12ActionResultIPNS_4ExprELb1EEES5_NS_14SourceLocationEb
__ZNK5clang10ASTContext16getExtVectorTypeENS_8QualTypeEj
__ZN5clang10VectorTypeC2ENS_4Type9TypeClassENS_8QualTypeEjS3_NS0_10VectorKindE
__ZN5clang6Parser17ParseAsmStatementERb
__ZN5clang6Parser21ParseAsmStringLiteralEv
__ZN5clang4Sema12ActOnAsmStmtENS_14SourceLocationEbbjjPPNS_14IdentifierInfoENS_11ASTMultiPtrIPNS_4ExprEEES8_S7_S8_S1_b
__ZN5clang7AsmStmtC1ERNS_10ASTContextENS_14SourceLocationEbbbjjPPNS_14IdentifierInfoEPPNS_13StringLiteralEPPNS_4ExprES8_jS9_S3_
__ZN5clang7AsmStmtC2ERNS_10ASTContextENS_14SourceLocationEbbbjjPPNS_14IdentifierInfoEPPNS_13StringLiteralEPPNS_4ExprES8_jS9_S3_
__ZNK5clang7AsmStmt16AnalyzeAsmStringERN4llvm15SmallVectorImplINS0_14AsmStringPieceEEERNS_10ASTContextERj
__ZN4llvm15SmallVectorImplIN5clang10TargetInfo14ConstraintInfoEED2Ev
__ZN5clang4Sema19ActOnFinishFullStmtEPNS_4StmtE
__ZN5clang4Sema27MaybeCreateStmtWithCleanupsEPNS_4StmtE
__ZNK5clang11AlignedAttr12getAlignmentERNS_10ASTContextE
__ZN12_GLOBAL__N_117PragmaOnceHandler12HandlePragmaERN5clang12PreprocessorENS1_20PragmaIntroducerKindERNS1_5TokenE
__ZN5clang12Preprocessor16HandlePragmaOnceERNS_5TokenE
__ZNK5clang17PreprocessorLexer12getFileEntryEv
__ZNK4llvm10FoldingSetIN5clang21ObjCObjectPointerTypeEE15ComputeNodeHashEPNS_14FoldingSetImpl4NodeERNS_16FoldingSetNodeIDE
__ZN5clang19PragmaUnusedHandler12HandlePragmaERNS_12PreprocessorENS_20PragmaIntroducerKindERNS_5TokenE
__ZNK5clang10TokenLexer30isParsingPreprocessorDirectiveEv
__ZN5clang6Parser18HandlePragmaUnusedEv
__ZN5clang4Sema17ActOnPragmaUnusedERKNS_5TokenEPNS_5ScopeENS_14SourceLocationE
__ZN5clang10ASTContext23canAssignObjCInterfacesEPKNS_14ObjCObjectTypeES3_
__ZN5clang6Parser36ParseObjCAtImplementationDeclarationENS_14SourceLocationE
__ZN5clang4Sema29ActOnStartClassImplementationENS_14SourceLocationEPNS_14IdentifierInfoES1_S3_S1_
__ZN5clang22ObjCImplementationDecl6CreateERNS_10ASTContextEPNS_11DeclContextEPNS_17ObjCInterfaceDeclES6_NS_14SourceLocationES7_
__ZN5clang12ObjCImplDeclC2ENS_4Decl4KindEPNS_11DeclContextEPNS_17ObjCInterfaceDeclENS_14SourceLocationES7_
__ZNK5clang17ObjCInterfaceDecl17getImplementationEv
__ZN5clang10ASTContext21getObjCImplementationEPNS_17ObjCInterfaceDeclE
__ZN5clang17ObjCInterfaceDecl17setImplementationEPNS_22ObjCImplementationDeclE
__ZN5clang10ASTContext21setObjCImplementationEPNS_17ObjCInterfaceDeclEPNS_22ObjCImplementationDeclE
__ZN4llvm8DenseMapIPN5clang17ObjCContainerDeclEPNS1_12ObjCImplDeclENS_12DenseMapInfoIS3_EENS6_IS5_EEE16InsertIntoBucketERKS3_RKS5_PSt4pairIS3_S5_E
__ZN4llvm8DenseMapIPN5clang17ObjCContainerDeclEPNS1_12ObjCImplDeclENS_12DenseMapInfoIS3_EENS6_IS5_EEE4growEj
__ZL35DiagnoseObjCImplementedDeprecationsRN5clang4SemaEPNS_9NamedDeclENS_14SourceLocationEi
__ZN5clang6Parser25ParseObjCAtEndDeclarationENS_11SourceRangeE
__ZN5clang4Sema27DefaultSynthesizePropertiesEPNS_5ScopeEPNS_4DeclE
__ZNK5clang17ObjCInterfaceDecl22getFirstClassExtensionEv
__ZN5clang4Sema25ImplMethodsVsClassMethodsEPNS_5ScopeEPNS_12ObjCImplDeclEPNS_17ObjCContainerDeclEb
__ZN5clang4Sema31DiagnoseUnimplementedPropertiesEPNS_5ScopeEPNS_12ObjCImplDeclEPNS_17ObjCContainerDeclERKN4llvm8DenseSetINS_8SelectorENS7_12DenseMapInfoIS9_EEEE
__ZL35CollectClassPropertyImplementationsPN5clang17ObjCContainerDeclERN4llvm8DenseMapIPNS_14IdentifierInfoEPNS_16ObjCPropertyDeclENS2_12DenseMapInfoIS5_EENS8_IS7_EEEE
__ZN5clang4Sema26CollectImmediatePropertiesEPNS_17ObjCContainerDeclERN4llvm8DenseMapIPNS_14IdentifierInfoEPNS_16ObjCPropertyDeclENS3_12DenseMapInfoIS6_EENS9_IS8_EEEESD_
__ZN5clang4Sema26MatchAllMethodDeclarationsERKN4llvm8DenseSetINS_8SelectorENS1_12DenseMapInfoIS3_EEEES8_RS6_S9_PNS_12ObjCImplDeclEPNS_17ObjCContainerDeclERbbb
__ZN4llvm8DenseMapIN5clang8SelectorEcNS_12DenseMapInfoIS2_EENS3_IcEEE6insertERKSt4pairIS2_cE
__ZN4llvm8DenseMapIN5clang8SelectorEcNS_12DenseMapInfoIS2_EENS3_IcEEE16InsertIntoBucketERKS2_RKcPSt4pairIS2_cE
__ZN4llvm8DenseMapIN5clang8SelectorEcNS_12DenseMapInfoIS2_EENS3_IcEEE4growEj
__ZN5clang4Sema23CheckProtocolMethodDefsENS_14SourceLocationEPNS_16ObjCProtocolDeclERbRKN4llvm8DenseSetINS_8SelectorENS5_12DenseMapInfoIS7_EEEESC_PNS_17ObjCContainerDeclE
__ZN5clang4Sema31AtomicPropertySetterGetterRulesEPNS_12ObjCImplDeclEPNS_17ObjCContainerDeclE
__ZN5clang4Sema37DiagnoseOwningPropertyGetterSynthesisEPKNS_22ObjCImplementationDeclE
__ZN5clang4Sema19SetIvarInitializersEPNS_22ObjCImplementationDeclE
__ZN5clang7CodeGen13CodeGenModule31EmitObjCPropertyImplementationsEPKNS_22ObjCImplementationDeclE
__ZN5clang7CodeGen13CodeGenModule27EmitObjCIvarInitializationsEPNS_22ObjCImplementationDeclE
__ZN5clang17ObjCInterfaceDecl23all_declared_ivar_beginEv
__ZN12_GLOBAL__N_122CGObjCNonFragileABIMac13GenerateClassEPKN5clang22ObjCImplementationDeclE
__ZN4llvm4UsernwEmj
__ZN4llvm3Use8initTagsEPS0_S1_
__ZN4llvm14GlobalVariableC1ERNS_6ModuleEPNS_4TypeEbNS_11GlobalValue12LinkageTypesEPNS_8ConstantERKNS_5TwineEPS0_bj
__ZN4llvm14GlobalVariableC2ERNS_6ModuleEPNS_4TypeEbNS_11GlobalValue12LinkageTypesEPNS_8ConstantERKNS_5TwineEPS0_bj
__ZN4llvm5ValueC2EPNS_4TypeEj
__ZN4llvm5Value7setNameERKNS_5TwineE
__ZN4llvm21SymbolTableListTraitsINS_14GlobalVariableENS_6ModuleEE13addNodeToListEPS1_
__ZN4llvm14GlobalVariable9setParentEPNS_6ModuleE
__ZN4llvm16ValueSymbolTable13reinsertValueEPNS_5ValueE
__ZNK4llvm10TargetData15getStructLayoutEPNS_10StructTypeE
__ZN4llvm8DenseMapIPNS_10StructTypeEPNS_12StructLayoutENS_12DenseMapInfoIS2_EENS5_IS4_EEE16InsertIntoBucketERKS2_RKS4_PSt4pairIS2_S4_E
__ZN4llvm8DenseMapIPNS_10StructTypeEPNS_12StructLayoutENS_12DenseMapInfoIS2_EENS5_IS4_EEE4growEj
__ZN4llvm12StructLayoutC2EPNS_10StructTypeERKNS_10TargetDataE
__ZNK4llvm10TargetData16getAlignmentInfoENS_13AlignTypeEnumEjbPNS_4TypeE
__ZNK5clang9NamedDecl23getLinkageAndVisibilityEv
__ZNK5clang9NamedDecl21getExplicitVisibilityEv
__ZL15getVisibilityOfPKN5clang4DeclE
__ZNK5clang15DeclarationName11getAsStringEv
__ZN12_GLOBAL__N_122CGObjCNonFragileABIMac14GetClassGlobalERKSs
__ZNK4llvm6Module17getGlobalVariableENS_9StringRefEb
__ZNK5clang4Decl14isWeakImportedEv
__ZNK5clang4Decl17canBeWeakImportedERb
__ZN12_GLOBAL__N_122CGObjCNonFragileABIMac24BuildClassRoTInitializerEjjjPKN5clang22ObjCImplementationDeclE
__ZN4llvm11ConstantInt3getEPNS_4TypeEyb
__ZN4llvm4Type13getScalarTypeEv
__ZN4llvm11ConstantInt3getEPNS_11IntegerTypeEyb
__ZN4llvm11ConstantInt3getERNS_11LLVMContextERKNS_5APIntE
__ZNK4llvm8DenseMapINS_20DenseMapAPIntKeyInfo5KeyTyEPNS_11ConstantIntES1_NS_12DenseMapInfoIS4_EEE15LookupBucketForERKS2_RPSt4pairIS2_S4_E
__ZNK4llvm5APInt12getHashValueEv
__ZN4llvm8DenseMapINS_20DenseMapAPIntKeyInfo5KeyTyEPNS_11ConstantIntES1_NS_12DenseMapInfoIS4_EEE16InsertIntoBucketERKS2_RKS4_PSt4pairIS2_S4_E
__ZN4llvm8DenseMapINS_20DenseMapAPIntKeyInfo5KeyTyEPNS_11ConstantIntES1_NS_12DenseMapInfoIS4_EEE4growEj
__ZN4llvm8Constant12getNullValueEPNS_4TypeE
__ZN4llvm17ConstantUniqueMapIccNS_11PointerTypeENS_19ConstantPointerNullELb0EE11getOrCreateEPS1_c
__ZNSt8_Rb_treeISt4pairIPN4llvm11PointerTypeEcES0_IKS4_PNS1_19ConstantPointerNullEESt10_Select1stIS8_ESt4lessIS4_ESaIS8_EE16_M_insert_uniqueERKS8_
__ZNSt8_Rb_treeISt4pairIPN4llvm11PointerTypeEcES0_IKS4_PNS1_19ConstantPointerNullEESt10_Select1stIS8_ESt4lessIS4_ESaIS8_EE16_M_insert_uniqueESt17_Rb_tree_iteratorIS8_ERKS8_
__ZN12_GLOBAL__N_115CGObjCCommonMac12GetClassNameEPN5clang14IdentifierInfoE
__ZN4llvm8DenseMapIPN5clang14IdentifierInfoEPNS_14GlobalVariableENS_12DenseMapInfoIS3_EENS6_IS5_EEE16InsertIntoBucketERKS3_RKS5_PSt4pairIS3_S5_E
__ZN4llvm8DenseMapIPN5clang14IdentifierInfoEPNS_14GlobalVariableENS_12DenseMapInfoIS3_EENS6_IS5_EEE4growEj
__ZN4llvm13ConstantArray3getERNS_11LLVMContextENS_9StringRefEb
__ZN4llvm13ConstantArray3getEPNS_9ArrayTypeENS_8ArrayRefIPNS_8ConstantEEE
__ZN4llvm17ConstantUniqueMapISt6vectorIPNS_8ConstantESaIS3_EENS_8ArrayRefIS3_EENS_9ArrayTypeENS_13ConstantArrayELb1EE11getOrCreateEPS8_S7_
__ZN4llvm17ConstantUniqueMapISt6vectorIPNS_8ConstantESaIS3_EENS_8ArrayRefIS3_EENS_9ArrayTypeENS_13ConstantArrayELb1EE6CreateEPS8_S7_St17_Rb_tree_iteratorISt4pairIKSD_ISB_S5_EPS9_EE
__ZNSt6__copyILb0ESt26random_access_iterator_tagE4copyIPKPN4llvm8ConstantEPNS3_3UseEEET0_T_SB_SA_
__ZNSt8_Rb_treeISt4pairIPN4llvm9ArrayTypeESt6vectorIPNS1_8ConstantESaIS6_EEES0_IKS9_PNS1_13ConstantArrayEESt10_Select1stISD_ESt4lessIS9_ESaISD_EE16_M_insert_uniqueERKSD_
__ZNSt8_Rb_treeISt4pairIPN4llvm9ArrayTypeESt6vectorIPNS1_8ConstantESaIS6_EEES0_IKS9_PNS1_13ConstantArrayEESt10_Select1stISD_ESt4lessIS9_ESaISD_EE16_M_insert_uniqueESt17_Rb_tree_iteratorISD_ERKSD_
__ZNSt8_Rb_treeISt4pairIPN4llvm9ArrayTypeESt6vectorIPNS1_8ConstantESaIS6_EEES0_IKS9_PNS1_13ConstantArrayEESt10_Select1stISD_ESt4lessIS9_ESaISD_EE4findERSA_
__ZNSt8_Rb_treeISt4pairIPN4llvm9ArrayTypeESt6vectorIPNS1_8ConstantESaIS6_EEES0_IKS9_PNS1_13ConstantArrayEESt10_Select1stISD_ESt4lessIS9_ESaISD_EE8_M_eraseEPSt13_Rb_tree_nodeISD_E
__ZNSt8_Rb_treeISt4pairIPN4llvm9ArrayTypeESt6vectorIPNS1_8ConstantESaIS6_EEES0_IKS9_PNS1_13ConstantArrayEESt10_Select1stISD_ESt4lessIS9_ESaISD_EE9_M_insertEPSt18_Rb_tree_node_baseSL_RKSD_
__ZN12_GLOBAL__N_115CGObjCCommonMac17CreateMetadataVarEN4llvm5TwineEPNS1_8ConstantEPKcjb
__ZN4llvm11GlobalValue12setAlignmentEj
__ZN5clang7CodeGen13CodeGenModule13AddUsedGlobalEPN4llvm11GlobalValueE
__ZN4llvm15ValueHandleBase12AddToUseListEv
__ZN4llvm8DenseMapIPNS_5ValueEPNS_15ValueHandleBaseENS_12DenseMapInfoIS2_EENS5_IS4_EEE16InsertIntoBucketERKS2_RKS4_PSt4pairIS2_S4_E
__ZN4llvm8DenseMapIPNS_5ValueEPNS_15ValueHandleBaseENS_12DenseMapInfoIS2_EENS5_IS4_EEE4growEj
__ZNSt6vectorIN4llvm6WeakVHESaIS1_EE13_M_insert_auxEN9__gnu_cxx17__normal_iteratorIPS1_S3_EERKS1_
__ZN4llvm15ValueHandleBase20AddToExistingUseListEPPS0_
__ZN4llvm15ValueHandleBase17RemoveFromUseListEv
__ZN4llvm12ConstantExpr16getGetElementPtrEPNS_8ConstantENS_8ArrayRefIPNS_5ValueEEEb
__ZN4llvm25ConstantFoldGetElementPtrEPNS_8ConstantEbNS_8ArrayRefIPNS_5ValueEEE
__ZNK4llvm8Constant11isNullValueEv
__ZN4llvm13CompositeType14getTypeAtIndexEPKNS_5ValueE
__ZN4llvm17GetElementPtrInst14getIndexedTypeEPNS_4TypeENS_8ArrayRefIPNS_5ValueEEE
__ZNK4llvm4Type18isSizedDerivedTypeEv
__ZNK4llvm13CompositeType10indexValidEPKNS_5ValueE
__ZNK4llvm5Value10getContextEv
__ZN4llvm17ConstantUniqueMapINS_14ExprMapKeyTypeERKS1_NS_4TypeENS_12ConstantExprELb0EE11getOrCreateEPS4_S3_
__ZN4llvm17ConstantUniqueMapINS_14ExprMapKeyTypeERKS1_NS_4TypeENS_12ConstantExprELb0EE6CreateEPS4_S3_St17_Rb_tree_iteratorISt4pairIKS9_IS7_S1_EPS5_EE
__ZN4llvm15ConstantCreatorINS_12ConstantExprENS_4TypeENS_14ExprMapKeyTypeEE6createEPS2_RKS3_t
__ZN4llvm25GetElementPtrConstantExprC2EPNS_8ConstantERKSt6vectorIS2_SaIS2_EEPNS_4TypeE
__ZNSt8_Rb_treeISt4pairIPN4llvm4TypeENS1_14ExprMapKeyTypeEES0_IKS5_PNS1_12ConstantExprEESt10_Select1stIS9_ESt4lessIS5_ESaIS9_EE16_M_insert_uniqueERKS9_
__ZNSt8_Rb_treeISt4pairIPN4llvm4TypeENS1_14ExprMapKeyTypeEES0_IKS5_PNS1_12ConstantExprEESt10_Select1stIS9_ESt4lessIS5_ESaIS9_EE16_M_insert_uniqueESt17_Rb_tree_iteratorIS9_ERKS9_
__ZNSt8_Rb_treeISt4pairIPN4llvm4TypeENS1_14ExprMapKeyTypeEES0_IKS5_PNS1_12ConstantExprEESt10_Select1stIS9_ESt4lessIS5_ESaIS9_EE8_M_eraseEPSt13_Rb_tree_nodeIS9_E
__ZN9__gnu_cxx13new_allocatorISt4pairIKS1_IPN4llvm4TypeENS2_14ExprMapKeyTypeEEPNS2_12ConstantExprEEE9constructEPSA_RKSA_
__ZN12_GLOBAL__N_122CGObjCNonFragileABIMac14EmitMethodListEN4llvm5TwineEPKcRKSt6vectorIPNS1_8ConstantESaIS7_EE
__ZN12_GLOBAL__N_122CGObjCNonFragileABIMac16EmitProtocolListEN4llvm5TwineEPKPN5clang16ObjCProtocolDeclES7_
__ZN12_GLOBAL__N_122CGObjCNonFragileABIMac17GetOrEmitProtocolEPKN5clang16ObjCProtocolDeclE
__ZN12_GLOBAL__N_122CGObjCNonFragileABIMac28GetMethodDescriptionConstantEPKN5clang14ObjCMethodDeclE
__ZN12_GLOBAL__N_115CGObjCCommonMac16GetMethodVarNameEN5clang8SelectorE
__ZN4llvm8DenseMapIN5clang8SelectorEPNS_14GlobalVariableENS_12DenseMapInfoIS2_EENS5_IS4_EEEixERKS2_
__ZN4llvm8DenseMapIN5clang8SelectorEPNS_14GlobalVariableENS_12DenseMapInfoIS2_EENS5_IS4_EEE16InsertIntoBucketERKS2_RKS4_PSt4pairIS2_S4_E
__ZN4llvm8DenseMapIN5clang8SelectorEPNS_14GlobalVariableENS_12DenseMapInfoIS2_EENS5_IS4_EEE4growEj
__ZNK5clang8Selector11getAsStringEv
__ZNK4llvm14ExprMapKeyTypeltERKS0_
__ZN4llvm12ConstantExpr10getBitCastEPNS_8ConstantEPNS_4TypeE
__ZN12_GLOBAL__N_115CGObjCCommonMac16GetMethodVarTypeEPKN5clang14ObjCMethodDeclEb
__ZNK5clang10ASTContext28getObjCEncodingForMethodDeclEPKNS_14ObjCMethodDeclERSsb
__ZNK5clang10ASTContext31getObjCEncodingForTypeQualifierENS_4Decl17ObjCDeclQualifierERSs
__ZNK5clang10ASTContext26getObjCEncodingForTypeImplENS_8QualTypeERSsbbPKNS_9FieldDeclEbbbbb
__ZNK5clang10ASTContext23getObjCEncodingTypeSizeENS_8QualTypeE
__ZL17charUnitsToStringRKN5clang9CharUnitsE
__ZN4llvm9StringMapIPNS_14GlobalVariableENS_15MallocAllocatorEE16GetOrCreateValueIS2_EERNS_14StringMapEntryIS2_EENS_9StringRefET_
__ZN4llvm14ConstantStruct3getEPNS_10StructTypeENS_8ArrayRefIPNS_8ConstantEEE
__ZN4llvm17ConstantUniqueMapISt6vectorIPNS_8ConstantESaIS3_EENS_8ArrayRefIS3_EENS_10StructTypeENS_14ConstantStructELb1EE11getOrCreateEPS8_S7_
__ZN4llvm17ConstantUniqueMapISt6vectorIPNS_8ConstantESaIS3_EENS_8ArrayRefIS3_EENS_10StructTypeENS_14ConstantStructELb1EE6CreateEPS8_S7_St17_Rb_tree_iteratorISt4pairIKSD_ISB_S5_EPS9_EE
__ZNSt8_Rb_treeISt4pairIPN4llvm10StructTypeESt6vectorIPNS1_8ConstantESaIS6_EEES0_IKS9_PNS1_14ConstantStructEESt10_Select1stISD_ESt4lessIS9_ESaISD_EE16_M_insert_uniqueERKSD_
__ZNSt8_Rb_treeISt4pairIPN4llvm10StructTypeESt6vectorIPNS1_8ConstantESaIS6_EEES0_IKS9_PNS1_14ConstantStructEESt10_Select1stISD_ESt4lessIS9_ESaISD_EE16_M_insert_uniqueESt17_Rb_tree_iteratorISD_ERKSD_
__ZNSt8_Rb_treeISt4pairIPN4llvm10StructTypeESt6vectorIPNS1_8ConstantESaIS6_EEES0_IKS9_PNS1_14ConstantStructEESt10_Select1stISD_ESt4lessIS9_ESaISD_EE4findERSA_
__ZNSt8_Rb_treeISt4pairIPN4llvm10StructTypeESt6vectorIPNS1_8ConstantESaIS6_EEES0_IKS9_PNS1_14ConstantStructEESt10_Select1stISD_ESt4lessIS9_ESaISD_EE8_M_eraseEPSt13_Rb_tree_nodeISD_E
__ZNSt8_Rb_treeISt4pairIPN4llvm10StructTypeESt6vectorIPNS1_8ConstantESaIS6_EEES0_IKS9_PNS1_14ConstantStructEESt10_Select1stISD_ESt4lessIS9_ESaISD_EE9_M_insertEPSt18_Rb_tree_node_baseSL_RKSD_
__ZNSt6vectorIPN4llvm8ConstantESaIS2_EE13_M_insert_auxEN9__gnu_cxx17__normal_iteratorIPS2_S4_EERKS2_
__ZNK4llvm5Value7getNameEv
__ZN4llvm9StringMapIPNS_5ValueENS_15MallocAllocatorEE16GetOrCreateValueIS2_EERNS_14StringMapEntryIS2_EENS_9StringRefET_
__ZNSt6vectorIPN4llvm8ConstantESaIS2_EE15_M_range_insertIN9__gnu_cxx17__normal_iteratorIPS2_S4_EEEEvS9_T_SA_St20forward_iterator_tag
__ZN4llvm14ConstantStruct18getTypeForElementsENS_8ArrayRefIPNS_8ConstantEEEb
__ZN4llvm14ConstantStruct18getTypeForElementsERNS_11LLVMContextENS_8ArrayRefIPNS_8ConstantEEEb
__ZN4llvm10StructType3getERNS_11LLVMContextENS_8ArrayRefIPNS_4TypeEEEb
__ZNSt6vectorIPN4llvm4TypeESaIS2_EE13_M_insert_auxEN9__gnu_cxx17__normal_iteratorIPS2_S4_EERKS2_
__ZNSt3mapISt6vectorIPN4llvm4TypeESaIS3_EEPNS1_10StructTypeESt4lessIS5_ESaISt4pairIKS5_S7_EEEixERSB_
__ZNSt8_Rb_treeISt6vectorIPN4llvm4TypeESaIS3_EESt4pairIKS5_PNS1_10StructTypeEESt10_Select1stISA_ESt4lessIS5_ESaISA_EE16_M_insert_uniqueERKSA_
__ZNSt8_Rb_treeISt6vectorIPN4llvm4TypeESaIS3_EESt4pairIKS5_PNS1_10StructTypeEESt10_Select1stISA_ESt4lessIS5_ESaISA_EE16_M_insert_uniqueESt17_Rb_tree_iteratorISA_ERKSA_
__ZNSt8_Rb_treeISt6vectorIPN4llvm4TypeESaIS3_EESt4pairIKS5_PNS1_10StructTypeEESt10_Select1stISA_ESt4lessIS5_ESaISA_EE9_M_insertEPSt18_Rb_tree_node_baseSI_RKSA_
__ZL13getFoldedCastN4llvm11Instruction7CastOpsEPNS_8ConstantEPNS_4TypeE
__ZN4llvm27ConstantFoldCastInstructionEjPNS_8ConstantEPNS_4TypeE
__ZN12_GLOBAL__N_115CGObjCCommonMac16EmitPropertyListEN4llvm5TwineEPKN5clang4DeclEPKNS3_17ObjCContainerDeclERKNS_21ObjCCommonTypesHelperE
__ZN12_GLOBAL__N_115CGObjCCommonMac23EmitProtocolMethodTypesEN4llvm5TwineERKSt6vectorIPNS1_8ConstantESaIS5_EERKNS_21ObjCCommonTypesHelperE
__ZNK5clang10ASTContext29getLegacyIntegralTypeEncodingERNS_8QualTypeE
__ZNK5clang10ASTContext31getObjCEncodingForStructureImplEPNS_10RecordDeclERSsPKNS_9FieldDeclEb
__ZN12_GLOBAL__N_122CGObjCNonFragileABIMac18BuildClassMetaDataERSsPN4llvm8ConstantES4_S4_b
__ZN4llvm14GlobalVariable14setInitializerEPNS_8ConstantE
__ZNSt6vectorIPN4llvm11GlobalValueESaIS2_EE13_M_insert_auxEN9__gnu_cxx17__normal_iteratorIPS2_S4_EERKS2_
__ZL25hasObjCExceptionAttributeRN5clang10ASTContextEPKNS_17ObjCInterfaceDeclE
__ZNK5clang10ASTContext30getASTObjCImplementationLayoutEPKNS_22ObjCImplementationDeclE
__ZNK5clang10ASTContext13getObjCLayoutEPKNS_17ObjCInterfaceDeclEPKNS_22ObjCImplementationDeclE
__ZN4llvm8DenseMapIPKN5clang17ObjCContainerDeclEPKNS1_15ASTRecordLayoutENS_12DenseMapInfoIS4_EENS8_IS7_EEE16InsertIntoBucketERKS4_RKS7_PSt4pairIS4_S7_E
__ZN4llvm8DenseMapIPKN5clang17ObjCContainerDeclEPKNS1_15ASTRecordLayoutENS_12DenseMapInfoIS4_EENS8_IS7_EEE4growEj
__ZNK5clang10ASTContext18CountNonClassIvarsEPKNS_17ObjCInterfaceDeclE
__ZNK5clang22ObjCImplementationDecl9ivar_sizeEv
__ZNK5clang10ASTContext25getASTObjCInterfaceLayoutEPKNS_17ObjCInterfaceDeclE
__ZN12_GLOBAL__N_115CGObjCCommonMac15BuildIvarLayoutEPKN5clang22ObjCImplementationDeclEb
__ZN12_GLOBAL__N_115CGObjCCommonMac22PushProtocolPropertiesERN4llvm11SmallPtrSetIPKN5clang14IdentifierInfoELj16EEERSt6vectorIPNS1_8ConstantESaISB_EEPKNS3_4DeclEPKNS3_16ObjCProtocolDeclERKNS_21ObjCCommonTypesHelperE
__ZN4llvm8DenseMapIPKN5clang14ObjCMethodDeclEPNS_8FunctionENS_12DenseMapInfoIS4_EENS7_IS6_EEE5clearEv
__ZN5clang4Sema9CheckMainEPNS_12FunctionDeclERKNS_8DeclSpecE
__ZNK5clang12FunctionDecl7getBodyEv
__ZN5clang19AnalysisDeclContextC1EPNS_26AnalysisDeclContextManagerEPKNS_4DeclEPNS_3idx15TranslationUnitE
__ZNK5clang12FunctionDecl14getSourceRangeEv
__ZN5clang19AnalysisDeclContextD1Ev
__ZN5clang19AnalysisDeclContextD2Ev
__ZN4llvm9OwningPtrIN5clang35CFGReverseBlockReachabilityAnalysisEED2Ev
__ZNK5clang12FunctionDecl9isInlinedEv
__ZN5clang7CodeGen13CodeGenModule20EmitGlobalDefinitionENS_10GlobalDeclE
__ZN5clang7CodeGen13CodeGenModule18shouldEmitFunctionEPKNS_12FunctionDeclE
__ZN5clang7CodeGen13CodeGenModule18getFunctionLinkageEPKNS_12FunctionDeclE
__ZN5clang7CodeGen13CodeGenModule28EmitGlobalFunctionDefinitionENS_10GlobalDeclE
__ZN5clang7CodeGen12CodeGenTypes15getFunctionInfoENS_10GlobalDeclE
__ZN5clang7CodeGen12CodeGenTypes15getFunctionInfoEPKNS_12FunctionDeclE
__ZN5clang7CodeGen12CodeGenTypes15getFunctionInfoENS_7CanQualINS_17FunctionProtoTypeEEE
__ZN4llvm15SmallVectorImplIN5clang7CanQualINS1_4TypeEEEE9push_backERKS4_
__ZN5clang7CodeGen12CodeGenTypes15getFunctionInfoENS_7CanQualINS_4TypeEEERKN4llvm15SmallVectorImplIS4_EERKNS_12FunctionType7ExtInfoE
__ZN5clang7CodeGen14CGFunctionInfo7ProfileIPKNS_7CanQualINS_4TypeEEEEEvRN4llvm16FoldingSetNodeIDERKNS_12FunctionType7ExtInfoES5_T_SF_
__ZNK12_GLOBAL__N_113X86_64ABIInfo11computeInfoERN5clang7CodeGen14CGFunctionInfoE
__ZNK12_GLOBAL__N_113X86_64ABIInfo8classifyEN5clang8QualTypeEyRNS0_5ClassES4_
__ZNK12_GLOBAL__N_113X86_64ABIInfo22GetINTEGERTypeAtOffsetEPN4llvm4TypeEjN5clang8QualTypeEj
__ZL21BitsContainNoUserDataN5clang8QualTypeEjjRNS_10ASTContextE
__ZNK12_GLOBAL__N_113X86_64ABIInfo20classifyArgumentTypeEN5clang8QualTypeERjS3_
__ZN5clang7CodeGen12CodeGenTypes15GetFunctionTypeERKNS0_14CGFunctionInfoEb
__ZN5clang7CodeGen13CodeGenModule23GetOrCreateLLVMFunctionEN4llvm9StringRefEPNS2_4TypeENS_10GlobalDeclEbj
__ZN4llvm8FunctionC1EPNS_12FunctionTypeENS_11GlobalValue12LinkageTypesERKNS_5TwineEPNS_6ModuleE
__ZN4llvm8FunctionC2EPNS_12FunctionTypeENS_11GlobalValue12LinkageTypesERKNS_5TwineEPNS_6ModuleE
__ZNK4llvm8Function14getIntrinsicIDEv
__ZN5clang7CodeGen13CodeGenModule21SetFunctionAttributesENS_10GlobalDeclEPN4llvm8FunctionEb
__ZNK4llvm10FoldingSetIN5clang7CodeGen14CGFunctionInfoEE10NodeEqualsEPNS_14FoldingSetImpl4NodeERKNS_16FoldingSetNodeIDERS8_
__ZN5clang7CodeGen14CGFunctionInfo7ProfileERN4llvm16FoldingSetNodeIDE
__ZN5clang7CodeGen13CodeGenModule25SetLLVMFunctionAttributesEPKNS_4DeclERKNS0_14CGFunctionInfoEPN4llvm8FunctionE
__ZN5clang7CodeGen13CodeGenModule22ConstructAttributeListERKNS0_14CGFunctionInfoEPKNS_4DeclERN4llvm11SmallVectorINS8_18AttributeWithIndexELj8EEERj
__ZN4llvm11AttrListPtr3getEPKNS_18AttributeWithIndexEj
__ZN4llvm11AttrListPtraSERKS0_
__ZN4llvm11AttrListPtrD1Ev
__ZN5clang7CodeGen15CodeGenFunctionC1ERNS0_13CodeGenModuleE
__ZN12_GLOBAL__N_120ItaniumMangleContext16startNewFunctionEv
__ZN4llvm8DenseMapIPKN5clang9BlockDeclEjNS_12DenseMapInfoIS4_EENS5_IjEEE5clearEv
__ZN5clang7CodeGen15CodeGenFunction12GenerateCodeENS_10GlobalDeclEPN4llvm8FunctionERKNS0_14CGFunctionInfoE
__ZN5clang7CodeGen15CodeGenFunction13StartFunctionENS_10GlobalDeclENS_8QualTypeEPN4llvm8FunctionERKNS0_14CGFunctionInfoERKNS0_15FunctionArgListENS_14SourceLocationE
__ZN4llvm10BasicBlockC1ERNS_11LLVMContextERKNS_5TwineEPNS_8FunctionEPS0_
__ZN4llvm10BasicBlockC2ERNS_11LLVMContextERKNS_5TwineEPNS_8FunctionEPS0_
__ZN4llvm4Type10getLabelTyERNS_11LLVMContextE
__ZN4llvm21SymbolTableListTraitsINS_11InstructionENS_10BasicBlockEE15setSymTabObjectIPNS_8FunctionEEEvPT_S7_
__ZN4llvm10UndefValue3getEPNS_4TypeE
__ZN4llvm17ConstantUniqueMapIccNS_4TypeENS_10UndefValueELb0EE11getOrCreateEPS1_c
__ZNSt8_Rb_treeISt4pairIPN4llvm4TypeEcES0_IKS4_PNS1_10UndefValueEESt10_Select1stIS8_ESt4lessIS4_ESaIS8_EE16_M_insert_uniqueESt17_Rb_tree_iteratorIS8_ERKS8_
__ZNSt8_Rb_treeISt4pairIPN4llvm4TypeEcES0_IKS4_PNS1_10UndefValueEESt10_Select1stIS8_ESt4lessIS4_ESaIS8_EE16_M_insert_uniqueERKS8_
__ZN4llvm11BitCastInstC1EPNS_5ValueEPNS_4TypeERKNS_5TwineEPNS_10BasicBlockE
__ZN4llvm8CastInstC2EPNS_4TypeEjPNS_5ValueERKNS_5TwineEPNS_10BasicBlockE
__ZN4llvm11InstructionC2EPNS_4TypeEjPNS_3UseEjPNS_10BasicBlockE
__ZN4llvm21SymbolTableListTraitsINS_11InstructionENS_10BasicBlockEE13addNodeToListEPS1_
__ZN4llvm11Instruction9setParentEPNS_10BasicBlockE
__ZN5clang7CodeGen15CodeGenFunction12CreateIRTempENS_8QualTypeERKN4llvm5TwineE
__ZN5clang7CodeGen15CodeGenFunction11ConvertTypeENS_8QualTypeE
__ZN4llvm10AllocaInstC1EPNS_4TypeEPNS_5ValueERKNS_5TwineEPNS_11InstructionE
__ZN4llvm10AllocaInstC2EPNS_4TypeEPNS_5ValueERKNS_5TwineEPNS_11InstructionE
__ZN4llvm11InstructionC2EPNS_4TypeEjPNS_3UseEjPS0_
__ZNK5clang10ASTContext19getTypeAlignInCharsENS_8QualTypeE
__ZN4llvm10AllocaInst12setAlignmentEj
__ZN5clang7CodeGen15CodeGenFunction15EmitStartEHSpecEPKNS_4DeclE
__ZN5clang7CodeGen15CodeGenFunction18EmitFunctionPrologERKNS0_14CGFunctionInfoEPN4llvm8FunctionERKNS0_15FunctionArgListE
__ZN4llvm9IRBuilderILb0ENS_14ConstantFolderENS_24IRBuilderDefaultInserterILb0EEEE11CreateStoreEPNS_5ValueES6_b
__ZN4llvm9StoreInstC1EPNS_5ValueES2_bPNS_11InstructionE
__ZN4llvm9StoreInstC2EPNS_5ValueES2_bPNS_11InstructionE
__ZNK4llvm8Function18BuildLazyArgumentsEv
__ZN5clang7CodeGen15CodeGenFunction12EmitParmDeclERKNS_7VarDeclEPN4llvm5ValueEj
__ZN4llvm16ValueSymbolTable15createValueNameENS_9StringRefEPNS_5ValueE
__ZN5clang7CodeGen15CodeGenFunction20hasAggregateLLVMTypeENS_8QualTypeE
__ZN5clang7CodeGen15CodeGenFunction17ConvertTypeForMemENS_8QualTypeE
__ZN5clang7CodeGen15CodeGenFunction16CreateTempAllocaEPN4llvm4TypeERKNS2_5TwineE
__ZNK5clang10ASTContext12getDeclAlignEPKNS_4DeclEb
__ZNK5clang10ASTContext21getPreferredTypeAlignEPKNS_4TypeE
__ZN5clang7CodeGen13CodeGenModule11getTBAAInfoENS_8QualTypeE
__ZNK5clang10ASTContext17getObjCGCAttrKindENS_8QualTypeE
__ZN5clang7CodeGen15CodeGenFunction17EmitStoreOfScalarEPN4llvm5ValueENS0_6LValueE
__ZN5clang7CodeGen15CodeGenFunction12EmitToMemoryEPN4llvm5ValueENS_8QualTypeE
__ZN4llvm9StoreInst12setAlignmentEj
__ZN4llvm8DenseMapIPKN5clang4DeclEPNS_5ValueENS_12DenseMapInfoIS4_EENS7_IS6_EEE16InsertIntoBucketERKS4_RKS6_PSt4pairIS4_S6_E
__ZN4llvm8DenseMapIPKN5clang4DeclEPNS_5ValueENS_12DenseMapInfoIS4_EENS7_IS6_EEE4growEj
__ZN5clang7CodeGen15CodeGenFunction8EmitStmtEPKNS_4StmtE
__ZN5clang7CodeGen15CodeGenFunction14EmitSimpleStmtEPKNS_4StmtE
__ZN5clang7CodeGen15CodeGenFunction16EmitCompoundStmtERKNS_12CompoundStmtEbNS0_12AggValueSlotE
__ZN5clang7CodeGen15CodeGenFunction14EmitReturnStmtERKNS_10ReturnStmtE
__ZNK5clang10ReturnStmt11getRetValueEv
__ZN5clang7CodeGen15CodeGenFunction14EmitScalarExprEPKNS_4ExprEb
__ZN5clang15StmtVisitorBaseINS_8make_ptrEN12_GLOBAL__N_117ScalarExprEmitterEPN4llvm5ValueEE5VisitEPNS_4StmtE
__ZN5clang7CodeGen15CodeGenFunction24EmitBranchThroughCleanupENS1_8JumpDestE
__ZN4llvm9IRBuilderILb0ENS_14ConstantFolderENS_24IRBuilderDefaultInserterILb0EEEE8CreateBrEPNS_10BasicBlockE
__ZN4llvm10BranchInstC1EPNS_10BasicBlockEPNS_11InstructionE
__ZN4llvm10BranchInstC2EPNS_10BasicBlockEPNS_11InstructionE
__ZNK4llvm10BasicBlock10getContextEv
__ZN5clang7CodeGen15CodeGenFunction16PopCleanupBlocksENS0_12EHScopeStack15stable_iteratorE
__ZN5clang7CodeGen15CodeGenFunction14FinishFunctionENS_14SourceLocationE
__ZN5clang7CodeGen15CodeGenFunction15EmitReturnBlockEv
__ZNK4llvm3Use7getUserEv
__ZN4llvm11Instruction15eraseFromParentEv
__ZN4llvm21SymbolTableListTraitsINS_11InstructionENS_10BasicBlockEE18removeNodeFromListEPS1_
__ZN4llvm10BranchInstD0Ev
__ZN4llvm11InstructionD2Ev
__ZN4llvm3Use3zapEPS0_PKS0_b
__ZN4llvm5ValueD2Ev
__ZN4llvm4UserdlEPv
__ZN4llvm10BasicBlockD0Ev
__ZN4llvm10BasicBlockD2Ev
__ZN5clang7CodeGen15CodeGenFunction18EmitFunctionEpilogERKNS0_14CGFunctionInfoE
__ZN4llvm9StoreInstD0Ev
__ZN4llvm9IRBuilderILb0ENS_14ConstantFolderENS_24IRBuilderDefaultInserterILb0EEEE9CreateRetEPNS_5ValueE
__ZN4llvm10ReturnInstC1ERNS_11LLVMContextEPNS_5ValueEPNS_11InstructionE
__ZN4llvm10ReturnInstC2ERNS_11LLVMContextEPNS_5ValueEPNS_11InstructionE
__ZN5clang7CodeGen15CodeGenFunction13EmitEndEHSpecEPKNS_4DeclE
__ZN4llvm11BitCastInstD0Ev
__ZNK4llvm11AttrListPtr13getAttributesEj
__ZN4llvm8Function12addAttributeEjj
__ZN4llvm11AttrListPtrC1ERKS0_
__ZNK4llvm11AttrListPtr7addAttrEjj
__ZN4llvm15SmallVectorImplINS_18AttributeWithIndexEE9push_backERKS1_
__ZN4llvm14object_creatorINS_10FoldingSetINS_17AttributeListImplEEEEEPvv
__ZN4llvm15SmallVectorImplINS_18AttributeWithIndexEE6appendIPKS1_EEvT_S6_
__ZN4llvm17AttributeListImpl6AddRefEv
__ZN4llvm17AttributeListImpl7DropRefEv
__ZN5clang7CodeGen15CodeGenFunctionD1Ev
__ZN5clang7CodeGen15CodeGenFunctionD2Ev
__ZN5clang7CodeGen13CodeGenModule19SetCommonAttributesEPKNS_4DeclEPN4llvm11GlobalValueE
__ZNK5clang17TargetCodeGenInfo19SetTargetAttributesEPKNS_4DeclEPN4llvm11GlobalValueERNS_7CodeGen13CodeGenModuleE
__ZN5clang7CodeGen13CodeGenModule38SetLLVMFunctionAttributesForDefinitionEPKNS_4DeclEPN4llvm8FunctionE
__ZN4llvm15SmallVectorImplINS_18AttributeWithIndexEE6insertIPKS1_EEPS1_S6_T_S7_
__ZN4llvm17AttributeListImplD2Ev
__ZN4llvm14FoldingSetImpl10RemoveNodeEPNS0_4NodeE
__ZN5clang4Sema25ActOnEndOfTranslationUnitEv
__ZN5clang4Sema17DefineUsedVTablesEv
__ZN5clang4Sema22LoadExternalVTableUsesEv
__ZN5clang4Sema28PerformPendingInstantiationsEb
__ZSt9remove_ifIN5clang10LazyVectorIPKNS0_14DeclaratorDeclENS0_18ExternalSemaSourceEXadL_ZNS5_25ReadUnusedFileScopedDeclsERN4llvm15SmallVectorImplIS4_EEEELj2ELj2EE8iteratorESt9binder1stISt26pointer_to_binary_functionIPNS0_4SemaES4_bEEET_SI_SI_T0_
__ZSt9__find_ifIN5clang10LazyVectorIPKNS0_14DeclaratorDeclENS0_18ExternalSemaSourceEXadL_ZNS5_25ReadUnusedFileScopedDeclsERN4llvm15SmallVectorImplIS4_EEEELj2ELj2EE8iteratorESt9binder1stISt26pointer_to_binary_functionIPNS0_4SemaES4_bEEET_SI_SI_T0_St26random_access_iterator_tag
__ZN5clang6Parser24FinishPendingObjCActionsEv
__ZN5clang4Sema35DiagnoseUseOfUnimplementedSelectorsEv
__ZN5clang15BackendConsumer21HandleTranslationUnitERNS_10ASTContextE
__ZN12_GLOBAL__N_117CodeGeneratorImpl21HandleTranslationUnitERN5clang10ASTContextE
__ZN5clang7CodeGen13CodeGenModule7ReleaseEv
__ZN5clang7CodeGen13CodeGenModule12EmitDeferredEv
__ZN5clang7CodeGen13CodeGenModule21EmitCXXGlobalInitFuncEv
__ZN5clang7CodeGen13CodeGenModule21EmitCXXGlobalDtorFuncEv
__ZN12_GLOBAL__N_122CGObjCNonFragileABIMac18ModuleInitFunctionEv
__ZN12_GLOBAL__N_122CGObjCNonFragileABIMac18AddModuleClassListERKSt6vectorIPN4llvm11GlobalValueESaIS4_EEPKcSA_
__ZN12_GLOBAL__N_115CGObjCCommonMac13EmitImageInfoEv
__ZN5clang7CodeGen13CodeGenModule12EmitCtorListERKSt6vectorISt4pairIPN4llvm8ConstantEiESaIS7_EEPKc
__ZN4llvm12FunctionType3getEPNS_4TypeEb
__ZN4llvm10StructType3getEPNS_4TypeEz
__ZN5clang7CodeGen13CodeGenModule21EmitGlobalAnnotationsEv
__ZN5clang7CodeGen13CodeGenModule12EmitLLVMUsedEv
__ZNSt6vectorIPN4llvm8ConstantESaIS2_EE14_M_fill_insertEN9__gnu_cxx17__normal_iteratorIPS2_S4_EEmRKS2_
__ZN5clang7CodeGen13CodeGenModule19SimplifyPersonalityEv
__ZN12_GLOBAL__N_117CodeGeneratorImpl13ReleaseModuleEv
__ZNK4llvm11LLVMContext29getInlineAsmDiagnosticHandlerEv
__ZNK4llvm11LLVMContext29getInlineAsmDiagnosticContextEv
__ZN4llvm11LLVMContext29setInlineAsmDiagnosticHandlerEPFvRKNS_12SMDiagnosticEPvjES4_
__ZN5clang17EmitBackendOutputERNS_17DiagnosticsEngineERKNS_14CodeGenOptionsERKNS_13TargetOptionsERKNS_11LangOptionsEPN4llvm6ModuleENS_13BackendActionEPNSB_11raw_ostreamE
__ZN4llvm18PassManagerBuilderC1Ev
__ZN4llvm17TargetLibraryInfoC1ERKNS_6TripleE
__ZL10initializeRN4llvm17TargetLibraryInfoERKNS_6TripleE
__ZN4llvm31initializeTargetLibraryInfoPassERNS_12PassRegistryE
__ZNK4llvm2cl6parserIPKNS_8PassInfoEE9getOptionEj
__ZN4llvm23createAlwaysInlinerPassEv
__ZN4llvm7InlinerC2ERci
__ZN4llvm10CallbackVHD2Ev
__ZN4llvm27initializeAlwaysInlinerPassERNS_12PassRegistryE
__ZN4llvm32initializeCallGraphAnalysisGroupERNS_12PassRegistryE
__ZN4llvm28initializeBasicCallGraphPassERNS_12PassRegistryE
__ZN4llvm12PassRegistry21registerAnalysisGroupEPKvS2_RNS_8PassInfoEbb
__ZNK4llvm12PassRegistry11getPassInfoEPKv
__ZN4llvm8DenseMapIPKNS_8PassInfoEN12_GLOBAL__N_116PassRegistryImpl17AnalysisGroupInfoENS_12DenseMapInfoIS3_EENS7_IS6_EEE4growEj
__ZN4llvm15SmallPtrSetImplC2EPPKvRKS0_
__ZN4llvm19FunctionPassManagerC1EPNS_6ModuleE
__ZN4llvm23FunctionPassManagerImplC2Ev
__ZNSt8_Rb_treeIPKvSt4pairIKS1_PN4llvm4PassEESt10_Select1stIS7_ESt4lessIS1_ESaIS7_EE8_M_eraseEPSt13_Rb_tree_nodeIS7_E
__ZN4llvm7PMStack4pushEPNS_13PMDataManagerE
__ZNSt6vectorIPN4llvm13PMDataManagerESaIS2_EE13_M_insert_auxEN9__gnu_cxx17__normal_iteratorIPS2_S4_EERKS2_
__ZN4llvm4Pass11setResolverEPNS_16AnalysisResolverE
__ZN4llvm10TargetDataC1EPKNS_6ModuleE
__ZN4llvm10TargetDataC2EPKNS_6ModuleE
__ZN4llvm19FunctionPassManager3addEPNS_4PassE
__ZNK4llvm4Pass9getPassIDEv
__ZN4llvm17PMTopLevelManager12schedulePassEPNS_4PassE
__ZN4llvm4Pass18preparePassManagerERNS_7PMStackE
__ZN4llvm17PMTopLevelManager16findAnalysisPassEPKv
__ZN4llvm17PMTopLevelManager17findAnalysisUsageEPNS_4PassE
__ZNK4llvm4Pass16getAnalysisUsageERNS_13AnalysisUsageE
__ZN4llvm8DenseMapIPNS_4PassEPNS_13AnalysisUsageENS_12DenseMapInfoIS2_EENS5_IS4_EEE16InsertIntoBucketERKS2_RKS4_PSt4pairIS2_S4_E
__ZN4llvm8DenseMapIPNS_4PassEPNS_13AnalysisUsageENS_12DenseMapInfoIS2_EENS5_IS4_EEE4growEj
__ZThn432_N4llvm23FunctionPassManagerImpl15addTopLevelPassEPNS_4PassE
__ZN4llvm23FunctionPassManagerImpl15addTopLevelPassEPNS_4PassE
__ZN4llvm13ImmutablePass18getAsImmutablePassEv
__ZN4llvm13PMDataManager22initializeAnalysisImplEPNS_4PassE
__ZN4llvm13ImmutablePass14initializePassEv
__ZN4llvm13PMDataManager23recordAvailableAnalysisEPNS_4PassE
__ZNSt8_Rb_treeIPKvSt4pairIKS1_PN4llvm4PassEESt10_Select1stIS7_ESt4lessIS1_ESaIS7_EE16_M_insert_uniqueESt17_Rb_tree_iteratorIS7_ERKS7_
__ZNSt8_Rb_treeIPKvSt4pairIKS1_PN4llvm4PassEESt10_Select1stIS7_ESt4lessIS1_ESaIS7_EE16_M_insert_uniqueERKS7_
__ZN4llvm18PassManagerBuilder27populateFunctionPassManagerERNS_19FunctionPassManagerE
__ZNK4llvm18PassManagerBuilder17addExtensionsToPMENS0_16ExtensionPointTyERNS_15PassManagerBaseE
__ZN4llvm14object_creatorINS_11SmallVectorISt4pairINS_18PassManagerBuilder16ExtensionPointTyEPFvRKS3_RNS_15PassManagerBaseEEELj8EEEEEPvv
__ZN4llvm17TargetLibraryInfoC1ERKS0_
__ZN4llvm8DenseMapIjSsNS_12DenseMapInfoIjEENS1_ISsEEE8CopyFromERKS4_
__ZN4llvm11PassManagerC1Ev
__ZN4llvm15PassManagerImplC2Ev
__ZN4llvm11PassManager3addEPNS_4PassE
__ZThn432_N4llvm15PassManagerImpl15addTopLevelPassEPNS_4PassE
__ZN4llvm15PassManagerImpl15addTopLevelPassEPNS_4PassE
__ZN4llvm18PassManagerBuilder25populateModulePassManagerERNS_15PassManagerBaseE
__ZNK4llvm7Inliner16getAnalysisUsageERNS_13AnalysisUsageE
__ZNK4llvm16CallGraphSCCPass16getAnalysisUsageERNS_13AnalysisUsageE
__ZN4llvm13AnalysisUsage13addRequiredIDERc
__ZNK4llvm8PassInfo10createPassEv
__ZN4llvm15callDefaultCtorIN12_GLOBAL__N_114BasicCallGraphEEEPNS_4PassEv
__ZNK4llvm16CallGraphSCCPass27getPotentialPassManagerTypeEv
__ZNK4llvm10ModulePass27getPotentialPassManagerTypeEv
__ZNK12_GLOBAL__N_114BasicCallGraph16getAnalysisUsageERN4llvm13AnalysisUsageE
__ZN4llvm4Pass18getAsImmutablePassEv
__ZN4llvm10ModulePass17assignPassManagerERNS_7PMStackENS_15PassManagerTypeE
__ZThn32_NK4llvm13MPPassManager18getPassManagerTypeEv
__ZN4llvm13PMDataManager3addEPNS_4PassEb
__ZN4llvm13PMDataManager23collectRequiredAnalysisERNS_15SmallVectorImplIPNS_4PassEEERNS1_IPKvEES3_
__ZN4llvm4Pass18getAsPMDataManagerEv
__ZN4llvm17PMTopLevelManager11setLastUserERKNS_15SmallVectorImplIPNS_4PassEEES3_
__ZN4llvm8DenseMapIPNS_4PassES2_NS_12DenseMapInfoIS2_EES4_E16InsertIntoBucketERKS2_S7_PSt4pairIS2_S2_E
__ZN4llvm8DenseMapIPNS_4PassES2_NS_12DenseMapInfoIS2_EES4_E4growEj
__ZN4llvm13PMDataManager26removeNotPreservedAnalysisEPNS_4PassE
__ZN4llvm16CallGraphSCCPass17assignPassManagerERNS_7PMStackENS_15PassManagerTypeE
__ZNK12_GLOBAL__N_113CGPassManager16getAnalysisUsageERN4llvm13AnalysisUsageE
__ZN12_GLOBAL__N_113CGPassManager18getAsPMDataManagerEv
__ZThn32_N4llvm13MPPassManager9getAsPassEv
__ZThn32_N12_GLOBAL__N_113CGPassManager9getAsPassEv
__ZN4llvm18PassManagerBuilderD1Ev
__ZN4llvm17TargetLibraryInfoD0Ev
__ZN4llvm13ImmutablePassD2Ev
__ZN4llvm21formatted_raw_ostream9setStreamERNS_11raw_ostreamEb
__ZN4llvm21formatted_raw_ostream13releaseStreamEv
__ZNK4llvm14raw_fd_ostream21preferred_buffer_sizeEv
__ZN4llvm11raw_ostream16SetBufferAndModeEPcmNS0_10BufferKindE
__ZN4llvm14TargetRegistry12lookupTargetERKSsRSs
__ZN4llvm14RegisterTargetILNS_6Triple8ArchTypeE13ELb1EE21getTripleMatchQualityERKSs
__ZN4llvm14RegisterTargetILNS_6Triple8ArchTypeE1ELb1EE21getTripleMatchQualityERKSs
__ZN4llvm14RegisterTargetILNS_6Triple8ArchTypeE15ELb1EE21getTripleMatchQualityERKSs
__ZN4llvm14RegisterTargetILNS_6Triple8ArchTypeE14ELb1EE21getTripleMatchQualityERKSs
__ZN4llvm13TargetMachine22setAsmVerbosityDefaultEb
__ZN4llvm13TargetMachine19setFunctionSectionsEb
__ZN4llvm13TargetMachine15setDataSectionsEb
__ZNSt6vectorIPKcSaIS1_EE13_M_insert_auxEN9__gnu_cxx17__normal_iteratorIPS1_S3_EERKS1_
__ZN4llvm2cl23ParseCommandLineOptionsEiPPcPKcb
__ZL13GetOptionInfoRN4llvm15SmallVectorImplIPNS_2cl6OptionEEES5_RNS_9StringMapIS3_NS_15MallocAllocatorEEE
__ZN4llvm2cl3optIbLb0ENS0_6parserIbEEE19getExtraOptionNamesERNS_15SmallVectorImplIPKcEE
__ZN4llvm9StringMapIPNS_2cl6OptionENS_15MallocAllocatorEE16GetOrCreateValueIS3_EERNS_14StringMapEntryIS3_EENS_9StringRefET_
__ZN4llvm2cl3optISsLb0ENS0_6parserISsEEE19getExtraOptionNamesERNS_15SmallVectorImplIPKcEE
__ZN4llvm2cl3optIN12_GLOBAL__N_111SpillerNameELb0ENS0_6parserIS3_EEE19getExtraOptionNamesERNS_15SmallVectorImplIPKcEE
__ZN4llvm2cl19generic_parser_base19getExtraOptionNamesERNS_15SmallVectorImplIPKcEE
__ZN4llvm2cl3optIN12_GLOBAL__N_112RewriterNameELb0ENS0_6parserIS3_EEE19getExtraOptionNamesERNS_15SmallVectorImplIPKcEE
__ZN4llvm2cl3optIbLb1ENS0_6parserIbEEE19getExtraOptionNamesERNS_15SmallVectorImplIPKcEE
__ZN4llvm2cl3optI20ShrinkWrapDebugLevelLb0ENS0_6parserIS2_EEE19getExtraOptionNamesERNS_15SmallVectorImplIPKcEE
__ZN4llvm2cl3optIiLb0ENS0_6parserIiEEE19getExtraOptionNamesERNS_15SmallVectorImplIPKcEE
__ZN4llvm2cl3optINS_11SplitEditor19ComplementSpillModeELb0ENS0_6parserIS3_EEE19getExtraOptionNamesERNS_15SmallVectorImplIPKcEE
__ZN4llvm2cl3optIjLb0ENS0_6parserIjEEE19getExtraOptionNamesERNS_15SmallVectorImplIPKcEE
__ZN4llvm2cl3optIPFPNS_12FunctionPassEvELb0ENS_18RegisterPassParserINS_16RegisterRegAllocEEEE19getExtraOptionNamesERNS_15SmallVectorImplIPKcEE
__ZN4llvm2cl3optINS0_13boolOrDefaultELb0ENS0_6parserIS2_EEE19getExtraOptionNamesERNS_15SmallVectorImplIPKcEE
__ZN4llvm2cl3optIjLb1ENS0_6parserIjEEE19getExtraOptionNamesERNS_15SmallVectorImplIPKcEE
__ZN4llvm2cl3optI17AsmWriterFlavorTyLb0ENS0_6parserIS2_EEE19getExtraOptionNamesERNS_15SmallVectorImplIPKcEE
__ZN4llvm2cl3optINS_8FloatABI7ABITypeELb1ENS0_6parserIS3_EEE19getExtraOptionNamesERNS_15SmallVectorImplIPKcEE
__ZN4llvm2cl3optIN12_GLOBAL__N_114VersionPrinterELb1ENS0_6parserIbEEE19getExtraOptionNamesERNS_15SmallVectorImplIPKcEE
__ZN4llvm2cl3optIN12_GLOBAL__N_111HelpPrinterELb1ENS0_6parserIbEEE19getExtraOptionNamesERNS_15SmallVectorImplIPKcEE
__ZN4llvm2cl3optINS_6Region10PrintStyleELb0ENS0_6parserIS3_EEE19getExtraOptionNamesERNS_15SmallVectorImplIPKcEE
__ZN4llvm2cl3optIdLb0ENS0_6parserIdEEE19getExtraOptionNamesERNS_15SmallVectorImplIPKcEE
__ZN4llvm2cl4listISsbNS0_6parserISsEEE19getExtraOptionNamesERNS_15SmallVectorImplIPKcEE
__ZN4llvm2cl4listIPKNS_8PassInfoEbNS_14PassNameParserEE19getExtraOptionNamesERNS_15SmallVectorImplIPKcEE
__ZN4llvm2cl3optINS_14PassDebugLevelELb0ENS0_6parserIS2_EEE19getExtraOptionNamesERNS_15SmallVectorImplIPKcEE
__ZN4llvm2cl3optISsLb1ENS0_6parserISsEEE19getExtraOptionNamesERNS_15SmallVectorImplIPKcEE
__ZN4llvm14object_creatorISt6vectorIPKcSaIS3_EEEEPvv
__ZN4llvm17SubtargetFeaturesC1ENS_9StringRefE
__ZN4llvm17SubtargetFeaturesC2ENS_9StringRefE
__ZN4llvm17SubtargetFeatures10AddFeatureENS_9StringRefEb
__ZNK4llvm9StringRef5lowerEv
__ZNK4llvm17SubtargetFeatures9getStringEv
__ZN4llvm21RegisterTargetMachineINS_19X86_64TargetMachineEE9AllocatorERKNS_6TargetENS_9StringRefES6_S6_NS_5Reloc5ModelENS_9CodeModel5ModelE
__ZN4llvm19X86_64TargetMachineC2ERKNS_6TargetENS_9StringRefES4_S4_NS_5Reloc5ModelENS_9CodeModel5ModelE
__ZN4llvm16X86TargetMachineC2ERKNS_6TargetENS_9StringRefES4_S4_NS_5Reloc5ModelENS_9CodeModel5ModelEb
__ZN4llvm17LLVMTargetMachineC2ERKNS_6TargetENS_9StringRefES4_S4_NS_5Reloc5ModelENS_9CodeModel5ModelE
__ZN4llvm13TargetMachineC2ERKNS_6TargetENS_9StringRefES4_S4_
__ZL22createX86MCCodeGenInfoN4llvm9StringRefENS_5Reloc5ModelENS_9CodeModel5ModelE
__ZN4llvm13MCCodeGenInfo17InitMCCodeGenInfoENS_5Reloc5ModelENS_9CodeModel5ModelE
__ZL18createX86MCAsmInfoRKN4llvm6TargetENS_9StringRefE
__ZN4llvm21X86_64MCAsmInfoDarwinC1ERKNS_6TripleE
__ZN4llvm15MCAsmInfoDarwinC2Ev
__ZN4llvm9MCAsmInfoC2Ev
__ZNSt6vectorIN4llvm11MachineMoveESaIS1_EE13_M_insert_auxEN9__gnu_cxx17__normal_iteratorIPS1_S3_EERKS1_
__ZN4llvm12X86SubtargetC1ERKSsS2_S2_jb
__ZN4llvm12X86SubtargetC2ERKSsS2_S2_jb
__ZN4llvm19TargetSubtargetInfoC2Ev
__ZN4llvm15MCSubtargetInfo19InitMCSubtargetInfoENS_9StringRefES1_S1_PKNS_18SubtargetFeatureKVES4_PKNS_15SubtargetInfoKVEPKNS_10InstrStageEPKjSC_jj
__ZN4llvm17SubtargetFeatures14getFeatureBitsENS_9StringRefEPKNS_18SubtargetFeatureKVEmS4_m
__Z4FindIN4llvm18SubtargetFeatureKVEEPKT_NS0_9StringRefES4_m
__ZL14SetImpliedBitsRyPKN4llvm18SubtargetFeatureKVES3_m
__ZL16ClearImpliedBitsRyPKN4llvm18SubtargetFeatureKVES3_m
__ZN4llvm12X86Subtarget22ParseSubtargetFeaturesENS_9StringRefES1_
__ZN4llvm15MCSubtargetInfo21ReInitMCSubtargetInfoENS_9StringRefES1_
__ZN4llvm15MCSubtargetInfo13ToggleFeatureEy
__ZN4llvm16X86ELFWriterInfoC1Ebb
__ZN4llvm19TargetELFWriterInfoC2Ebb
__ZNK4llvm13TargetMachine18getRelocationModelEv
__ZN4llvm12X86InstrInfoC1ERNS_16X86TargetMachineE
__ZN4llvm12X86InstrInfoC2ERNS_16X86TargetMachineE
__ZNK4llvm16X86TargetMachine16getSubtargetImplEv
__ZN4llvm15X86RegisterInfoC1ERNS_16X86TargetMachineERKNS_15TargetInstrInfoE
__ZN4llvm15X86RegisterInfoC2ERNS_16X86TargetMachineERKNS_15TargetInstrInfoE
__ZN4llvm6X86_MC18getDwarfRegFlavourENS_9StringRefEb
__ZN4llvm18X86GenRegisterInfoC2Ejjj
__ZN4llvm18TargetRegisterInfoC2EPKNS_22TargetRegisterInfoDescEPKPKNS_19TargetRegisterClassES8_PKPKc
__ZN4llvm14MCRegisterInfo20mapDwarfRegToLLVMRegEjjb
__ZN4llvm8DenseMapIjjNS_12DenseMapInfoIjEES2_E16InsertIntoBucketERKjS5_PSt4pairIjjE
__ZN4llvm8DenseMapIjjNS_12DenseMapInfoIjEES2_E4growEj
__ZN4llvm14MCRegisterInfo20mapLLVMRegToDwarfRegEjib
__ZN4llvm8DenseMapIjiNS_12DenseMapInfoIjEENS1_IiEEE16InsertIntoBucketERKjRKiPSt4pairIjiE
__ZN4llvm8DenseMapIjiNS_12DenseMapInfoIjEENS1_IiEEE4growEj
__ZN4llvm6X86_MC27InitLLVM2SEHRegisterMappingEPNS_14MCRegisterInfoE
__ZNK4llvm12X86Subtarget13isTargetWin64Ev
__ZN4llvm12X86InstrInfo13AddTableEntryERNS_8DenseMapIjSt4pairIjjENS_12DenseMapInfoIjEENS4_IS3_EEEES8_jjj
__ZN4llvm8DenseMapIjSt4pairIjjENS_12DenseMapInfoIjEENS3_IS2_EEE16InsertIntoBucketERKjRKS2_PS1_IjS2_E
__ZN4llvm8DenseMapIjSt4pairIjjENS_12DenseMapInfoIjEENS3_IS2_EEE4growEj
__ZN4llvm19X86SelectionDAGInfoC1ERKNS_16X86TargetMachineE
__ZN4llvm22TargetSelectionDAGInfoC2ERKNS_13TargetMachineE
__ZNK4llvm19X86_64TargetMachine13getTargetDataEv
__ZNK4llvm19X86_64TargetMachine17getTargetLoweringEv
__ZN4llvm17X86TargetLoweringC1ERNS_16X86TargetMachineE
__ZN4llvm17X86TargetLoweringC2ERNS_16X86TargetMachineE
__ZNK4llvm12X86Subtarget16isTargetEnvMachoEv
__ZN4llvm14TargetLoweringC2ERKNS_13TargetMachineEPKNS_24TargetLoweringObjectFileE
__ZNK4llvm16X86TargetMachine15getRegisterInfoEv
__ZNK4llvm19X86_64TargetMachine12getInstrInfoEv
__ZNK4llvm12X86InstrInfo15getRegisterInfoEv
__ZNSt6vectorISt4pairIN4llvm3EVTEPNS1_19TargetRegisterClassEESaIS5_EE13_M_insert_auxEN9__gnu_cxx17__normal_iteratorIPS5_S7_EERKS5_
__ZNSt6vectorIN4llvm7APFloatESaIS1_EE13_M_insert_auxEN9__gnu_cxx17__normal_iteratorIPS1_S3_EERKS1_
__ZN4llvm7APFloatC1ERKS0_
__ZN4llvm7APFloatC1Ef
__ZN4llvm7APFloat10changeSignEv
__ZN4llvm7APFloat7convertERKNS_12fltSemanticsENS0_12roundingModeEPb
__ZN4llvm5APInt5tcSetEPyyj
__ZNSt8_Rb_treeISt4pairIjN4llvm3MVT15SimpleValueTypeEES0_IKS4_S3_ESt10_Select1stIS6_ESt4lessIS4_ESaIS6_EE16_M_insert_uniqueESt17_Rb_tree_iteratorIS6_ERKS6_
__ZNSt8_Rb_treeISt4pairIjN4llvm3MVT15SimpleValueTypeEES0_IKS4_S3_ESt10_Select1stIS6_ESt4lessIS4_ESaIS6_EE16_M_insert_uniqueERKS6_
__ZN4llvm14TargetLowering25computeRegisterPropertiesEv
__ZNK4llvm3EVT6bitsLTES0_
__ZNK4llvm17X86TargetLowering23findRepresentativeClassENS_3EVTE
__ZNK4llvm14TargetLowering23findRepresentativeClassENS_3EVTE
__ZN4llvm10X86JITInfoC1ERNS_16X86TargetMachineE
__ZN4llvm17LLVMTargetMachine19addPassesToEmitFileERNS_15PassManagerBaseERNS_21formatted_raw_ostreamENS_13TargetMachine15CodeGenFileTypeENS_10CodeGenOpt5LevelEb
__ZN4llvm17LLVMTargetMachine22addCommonCodeGenPassesERNS_15PassManagerBaseENS_10CodeGenOpt5LevelEbRPNS_9MCContextE
__ZN4llvm32createTypeBasedAliasAnalysisPassEv
__ZN4llvm36initializeTypeBasedAliasAnalysisPassERNS_12PassRegistryE
__ZN4llvm36initializeAliasAnalysisAnalysisGroupERNS_12PassRegistryE
__ZN4llvm18initializeNoAAPassERNS_12PassRegistryE
__ZNK12_GLOBAL__N_122TypeBasedAliasAnalysis16getAnalysisUsageERN4llvm13AnalysisUsageE
__ZNK4llvm13AliasAnalysis16getAnalysisUsageERNS_13AnalysisUsageE
__ZN4llvm15callDefaultCtorIN12_GLOBAL__N_14NoAAEEEPNS_4PassEv
__ZNK12_GLOBAL__N_14NoAA16getAnalysisUsageERN4llvm13AnalysisUsageE
__ZN12_GLOBAL__N_14NoAA14initializePassEv
__ZNK4llvm16AnalysisResolver22getAnalysisIfAvailableEPKvb
__ZN4llvm4Pass26getAdjustedAnalysisPointerEPKv
__ZNSt6vectorISt4pairIPKvPN4llvm4PassEESaIS6_EE13_M_insert_auxEN9__gnu_cxx17__normal_iteratorIPS6_S8_EERKS6_
__ZN12_GLOBAL__N_122TypeBasedAliasAnalysis14initializePassEv
__ZN4llvm13AliasAnalysis23InitializeAliasAnalysisEPNS_4PassE
__ZN12_GLOBAL__N_14NoAA26getAdjustedAnalysisPointerEPKv
__ZN4llvm28createBasicAliasAnalysisPassEv
__ZN12_GLOBAL__N_118BasicAliasAnalysisC1Ev
__ZN4llvm32initializeBasicAliasAnalysisPassERNS_12PassRegistryE
__ZNK12_GLOBAL__N_118BasicAliasAnalysis16getAnalysisUsageERN4llvm13AnalysisUsageE
__ZN4llvm15callDefaultCtorINS_17TargetLibraryInfoEEEPNS_4PassEv
__ZN12_GLOBAL__N_118BasicAliasAnalysis14initializePassEv
__ZN12_GLOBAL__N_122TypeBasedAliasAnalysis26getAdjustedAnalysisPointerEPKv
__ZN4llvm20createGCLoweringPassEv
__ZN4llvm29initializeLowerIntrinsicsPassERNS_12PassRegistryE
__ZN4llvm26initializeGCModuleInfoPassERNS_12PassRegistryE
__ZN4llvm23SmallVectorTemplateBaseINS_2cl6parserIPKNS_8PassInfoEE10OptionInfoELb0EE4growEm
__ZNK12_GLOBAL__N_115LowerIntrinsics16getAnalysisUsageERN4llvm13AnalysisUsageE
__ZN4llvm15callDefaultCtorINS_12GCModuleInfoEEEPNS_4PassEv
__ZNK4llvm12FunctionPass27getPotentialPassManagerTypeEv
__ZN4llvm12FunctionPass17assignPassManagerERNS_7PMStackENS_15PassManagerTypeE
__ZNK4llvm13FPPassManager16getAnalysisUsageERNS_13AnalysisUsageE
__ZN4llvm13FPPassManager18getAsPMDataManagerEv
__ZThn32_N4llvm13FPPassManager9getAsPassEv
__ZN4llvm37createUnreachableBlockEliminationPassEv
__ZN4llvm34initializeUnreachableBlockElimPassERNS_12PassRegistryE
__ZNK12_GLOBAL__N_120UnreachableBlockElim16getAnalysisUsageERN4llvm13AnalysisUsageE
__ZThn32_NK4llvm13FPPassManager18getPassManagerTypeEv
__ZN4llvm17createDwarfEHPassEPKNS_13TargetMachineE
__ZN4llvm27initializeDominatorTreePassERNS_12PassRegistryE
__ZNK12_GLOBAL__N_114DwarfEHPrepare16getAnalysisUsageERN4llvm13AnalysisUsageE
__ZN4llvm24createStackProtectorPassEPKNS_14TargetLoweringE
__ZN4llvm28initializeStackProtectorPassERNS_12PassRegistryE
__ZNK12_GLOBAL__N_114StackProtector16getAnalysisUsageERN4llvm13AnalysisUsageE
__ZN4llvm17LLVMTargetMachine10addPreISelERNS_15PassManagerBaseENS_10CodeGenOpt5LevelE
__ZN4llvm17MachineModuleInfoC1ERKNS_9MCAsmInfoERKNS_14MCRegisterInfoEPKNS_16MCObjectFileInfoE
__ZN4llvm17MachineModuleInfoC2ERKNS_9MCAsmInfoERKNS_14MCRegisterInfoEPKNS_16MCObjectFileInfoE
__ZN4llvm9MCContextC1ERKNS_9MCAsmInfoERKNS_14MCRegisterInfoEPKNS_16MCObjectFileInfoE
__ZN4llvm31initializeMachineModuleInfoPassERNS_12PassRegistryE
__ZNSt6vectorIPKN4llvm8FunctionESaIS3_EE13_M_insert_auxEN9__gnu_cxx17__normal_iteratorIPS3_S5_EERKS3_
__ZN4llvm23MachineFunctionAnalysisC1ERKNS_13TargetMachineENS_10CodeGenOpt5LevelE
__ZNK4llvm23MachineFunctionAnalysis16getAnalysisUsageERNS_13AnalysisUsageE
__ZN4llvm16X86TargetMachine15addInstSelectorERNS_15PassManagerBaseENS_10CodeGenOpt5LevelE
__ZN4llvm16createX86ISelDagERNS_16X86TargetMachineENS_10CodeGenOpt5LevelE
__ZN4llvm16SelectionDAGISelC2ERKNS_13TargetMachineENS_10CodeGenOpt5LevelE
__ZN4llvm20FunctionLoweringInfoC1ERKNS_14TargetLoweringE
__ZN4llvm12SelectionDAGC1ERKNS_13TargetMachineE
__ZN4llvm12SelectionDAGC2ERKNS_13TargetMachineE
__ZNK4llvm19X86_64TargetMachine19getSelectionDAGInfoEv
__ZN4llvm6SDNode16getValueTypeListENS_3EVTE
__ZN4llvm14object_creatorIN12_GLOBAL__N_18EVTArrayEEEPvv
__ZN4llvm35initializeBranchProbabilityInfoPassERNS_12PassRegistryE
__ZN4llvm22initializeLoopInfoPassERNS_12PassRegistryE
__ZNK4llvm16SelectionDAGISel16getAnalysisUsageERNS_13AnalysisUsageE
__ZNK4llvm19MachineFunctionPass16getAnalysisUsageERNS_13AnalysisUsageE
__ZN4llvm13AnalysisUsage12addPreservedENS_9StringRefE
__ZNK4llvm12PassRegistry11getPassInfoENS_9StringRefE
__ZL14printAndVerifyRN4llvm15PassManagerBaseEPKc
__ZN4llvm27createExpandISelPseudosPassEv
__ZNK12_GLOBAL__N_117ExpandISelPseudos16getAnalysisUsageERN4llvm13AnalysisUsageE
__ZN4llvm34createLocalStackSlotAllocationPassEv
__ZNK12_GLOBAL__N_118LocalStackSlotPass16getAnalysisUsageERN4llvm13AnalysisUsageE
__ZN4llvm13AnalysisUsage15setPreservesCFGEv
__ZN12_GLOBAL__N_116GetCFGOnlyPasses13passEnumerateEPKN4llvm8PassInfoE
__ZN4llvm16X86TargetMachine14addPreRegAllocERNS_15PassManagerBaseENS_10CodeGenOpt5LevelE
__ZN4llvm39createX86MaxStackAlignmentHeuristicPassEv
__ZNK12_GLOBAL__N_14MSAH16getAnalysisUsageERN4llvm13AnalysisUsageE
__ZN4llvm23createRegisterAllocatorENS_10CodeGenOpt5LevelE
__ZN4llvm27createFastRegisterAllocatorEv
__ZN4llvm17RegisterClassInfoC1Ev
__ZN4llvm28initializePHIEliminationPassERNS_12PassRegistryE
__ZN4llvm39initializeTwoAddressInstructionPassPassERNS_12PassRegistryE
__ZNK12_GLOBAL__N_16RAFast16getAnalysisUsageERN4llvm13AnalysisUsageE
__ZN4llvm15callDefaultCtorIN12_GLOBAL__N_114PHIEliminationEEEPNS_4PassEv
__ZNK12_GLOBAL__N_114PHIElimination16getAnalysisUsageERN4llvm13AnalysisUsageE
__ZN4llvm15callDefaultCtorIN12_GLOBAL__N_125TwoAddressInstructionPassEEEPNS_4PassEv
__ZNK12_GLOBAL__N_125TwoAddressInstructionPass16getAnalysisUsageERN4llvm13AnalysisUsageE
__ZN4llvm16X86TargetMachine15addPostRegAllocERNS_15PassManagerBaseENS_10CodeGenOpt5LevelE
__ZN4llvm36createX86FloatingPointStackifierPassEv
__ZN4llvm25initializeEdgeBundlesPassERNS_12PassRegistryE
__ZNK12_GLOBAL__N_13FPS16getAnalysisUsageERN4llvm13AnalysisUsageE
__ZN4llvm15callDefaultCtorINS_11EdgeBundlesEEEPNS_4PassEv
__ZN4llvm12IntEqClasses4growEj
__ZNK4llvm11EdgeBundles16getAnalysisUsageERNS_13AnalysisUsageE
__ZN4llvm29createExpandPostRAPseudosPassEv
__ZNK12_GLOBAL__N_112ExpandPostRA16getAnalysisUsageERN4llvm13AnalysisUsageE
__ZN4llvm30createPrologEpilogCodeInserterEv
__ZN4llvm17initializePEIPassERNS_12PassRegistryE
__ZN4llvm29initializeMachineLoopInfoPassERNS_12PassRegistryE
__ZN4llvm34initializeMachineDominatorTreePassERNS_12PassRegistryE
__ZNK4llvm3PEI16getAnalysisUsageERNS_13AnalysisUsageE
__ZN4llvm17LLVMTargetMachine12addPreSched2ERNS_15PassManagerBaseENS_10CodeGenOpt5LevelE
__ZN4llvm31createGCMachineCodeAnalysisPassEv
__ZNK12_GLOBAL__N_119MachineCodeAnalysis16getAnalysisUsageERN4llvm13AnalysisUsageE
__ZN4llvm16X86TargetMachine14addPreEmitPassERNS_15PassManagerBaseENS_10CodeGenOpt5LevelE
__ZN4llvm22createX86MCCodeEmitterERKNS_11MCInstrInfoERKNS_15MCSubtargetInfoERNS_9MCContextE
__ZN4llvm13MCCodeEmitterC2Ev
__ZN4llvm22createX86_64AsmBackendERKNS_6TargetENS_9StringRefE
__ZN4llvm12MCAsmBackendC2Ev
__ZL16createMCStreamerRKN4llvm6TargetENS_9StringRefERNS_9MCContextERNS_12MCAsmBackendERNS_11raw_ostreamEPNS_13MCCodeEmitterEbb
__ZN4llvm19createMachOStreamerERNS_9MCContextERNS_12MCAsmBackendERNS_11raw_ostreamEPNS_13MCCodeEmitterEb
__ZN4llvm16MCObjectStreamerC2ERNS_9MCContextERNS_12MCAsmBackendERNS_11raw_ostreamEPNS_13MCCodeEmitterE
__ZN4llvm10MCStreamerC2ERNS_9MCContextE
__ZNK12_GLOBAL__N_122DarwinX86_64AsmBackend18createObjectWriterERN4llvm11raw_ostreamE
__ZN4llvm25createX86MachObjectWriterERNS_11raw_ostreamEbjj
__ZN4llvm24MCMachObjectTargetWriterC2Ebjjb
__ZN4llvm22createMachObjectWriterEPNS_24MCMachObjectTargetWriterERNS_11raw_ostreamEb
__ZN4llvm11MCAssemblerC1ERNS_9MCContextERNS_12MCAsmBackendERNS_13MCCodeEmitterERNS_14MCObjectWriterERNS_11raw_ostreamE
__ZN12_GLOBAL__N_115MCMachOStreamer12InitSectionsEv
__ZN4llvm9MCContext15getMachOSectionENS_9StringRefES1_jjNS_11SectionKindE
__ZN4llvm9StringMapIPKNS_14MCSectionMachOENS_15MallocAllocatorEE16GetOrCreateValueIS3_EERNS_14StringMapEntryIS3_EENS_9StringRefET_
__ZN4llvm14MCSectionMachOC1ENS_9StringRefES1_jjNS_11SectionKindE
__ZN4llvm16MCObjectStreamer13ChangeSectionEPKNS_9MCSectionE
__ZN4llvm11MCAssembler22getOrCreateSectionDataERKNS_9MCSectionEPb
__ZN4llvm8DenseMapIPKNS_9MCSectionEPNS_13MCSectionDataENS_12DenseMapInfoIS3_EENS6_IS5_EEE16InsertIntoBucketERKS3_RKS5_PSt4pairIS3_S5_E
__ZN4llvm8DenseMapIPKNS_9MCSectionEPNS_13MCSectionDataENS_12DenseMapInfoIS3_EENS6_IS5_EEE4growEj
__ZN4llvm13MCSectionDataC1ERKNS_9MCSectionEPNS_11MCAssemblerE
__ZN4llvm13MCSectionDataC2ERKNS_9MCSectionEPNS_11MCAssemblerE
__ZN4llvm18RegisterAsmPrinterINS_13X86AsmPrinterEE9AllocatorERNS_13TargetMachineERNS_10MCStreamerE
__ZN4llvm10AsmPrinterC2ERNS_13TargetMachineERNS_10MCStreamerE
__ZNK4llvm10MCStreamer12isVerboseAsmEv
__ZNK4llvm10AsmPrinter16getAnalysisUsageERNS_13AnalysisUsageE
__ZN4llvm19createGCInfoDeleterEv
__ZNK12_GLOBAL__N_17Deleter16getAnalysisUsageERN4llvm13AnalysisUsageE
__ZN4llvm2cl17PrintOptionValuesEv
__ZN4llvm19FunctionPassManager16doInitializationEv
__ZN4llvm23FunctionPassManagerImpl16doInitializationERNS_6ModuleE
__ZNK4llvm17PMTopLevelManager13dumpArgumentsEv
__ZNK4llvm17PMTopLevelManager10dumpPassesEv
__ZNK4llvm17PMTopLevelManager23getNumContainedManagersEv
__ZNK4llvm13PMDataManager21getNumContainedPassesEv
__ZNK4llvm11GlobalValue13isDeclarationEv
__ZN4llvm19FunctionPassManager3runERNS_8FunctionE
__ZNK4llvm11GlobalValue16isMaterializableEv
__ZNK4llvm6Module16isMaterializableEPKNS_11GlobalValueE
__ZN4llvm23FunctionPassManagerImpl3runERNS_8FunctionE
__ZN4llvm14object_creatorINS_18DebugInfoProbeInfoEEEPvv
__ZN4llvm17PMTopLevelManager25initializeAllAnalysisInfoEv
__ZN4llvm13FPPassManager13runOnFunctionERNS_8FunctionE
__ZN4llvm19FunctionPassManager14doFinalizationEv
__ZN4llvm23FunctionPassManagerImpl14doFinalizationERNS_6ModuleE
__ZN4llvm11PassManager3runERNS_6ModuleE
__ZN4llvm15PassManagerImpl3runERNS_6ModuleE
__ZN4llvm8DenseMapIPNS_4PassENS_11SmallPtrSetIS2_Lj8EEENS_12DenseMapInfoIS2_EENS5_IS4_EEE16FindAndConstructERKS2_
__ZN4llvm8DenseMapIPNS_4PassENS_11SmallPtrSetIS2_Lj8EEENS_12DenseMapInfoIS2_EENS5_IS4_EEE16InsertIntoBucketERKS2_RKS4_PSt4pairIS2_S4_E
__ZN4llvm8DenseMapIPNS_4PassENS_11SmallPtrSetIS2_Lj8EEENS_12DenseMapInfoIS2_EENS5_IS4_EEE4growEj
__ZN4llvm15SmallPtrSetImpl8CopyFromERKS0_
__ZN4llvm13MPPassManager11runOnModuleERNS_6ModuleE
__ZN4llvm13PMDataManager12dumpPassInfoEPNS_4PassENS_19PassDebuggingStringES3_NS_9StringRefE
__ZNK4llvm13PMDataManager15dumpRequiredSetEPKNS_4PassE
__ZN4llvm12getPassTimerEPNS_4PassE
__ZN12_GLOBAL__N_114BasicCallGraph11runOnModuleERN4llvm6ModuleE
__ZNSt8_Rb_treeIPKN4llvm8FunctionESt4pairIKS3_PNS0_13CallGraphNodeEESt10_Select1stIS8_ESt4lessIS3_ESaIS8_EE16_M_insert_uniqueESt17_Rb_tree_iteratorIS8_ERKS8_
__ZNSt8_Rb_treeIPKN4llvm8FunctionESt4pairIKS3_PNS0_13CallGraphNodeEESt10_Select1stIS8_ESt4lessIS3_ESaIS8_EE16_M_insert_uniqueERKS8_
__ZN4llvm13CallGraphNode17addCalledFunctionENS_8CallSiteEPS0_
__ZNSt6vectorISt4pairIN4llvm6WeakVHEPNS1_13CallGraphNodeEESaIS5_EE13_M_insert_auxEN9__gnu_cxx17__normal_iteratorIPS5_S7_EERKS5_
__ZNK4llvm8Function15hasAddressTakenEPPKNS_4UserE
__ZNK4llvm13PMDataManager16dumpPreservedSetEPKNS_4PassE
__ZN4llvm13PMDataManager16removeDeadPassesEPNS_4PassENS_9StringRefENS_19PassDebuggingStringE
__ZN4llvm17PMTopLevelManager15collectLastUsesERNS_15SmallVectorImplIPNS_4PassEEES3_
__ZN12_GLOBAL__N_113CGPassManager11runOnModuleERN4llvm6ModuleE
__ZN12_GLOBAL__N_114BasicCallGraph26getAdjustedAnalysisPointerEPKv
__ZN12_GLOBAL__N_113AlwaysInliner16doInitializationERN4llvm9CallGraphE
__ZThn32_NK12_GLOBAL__N_114BasicCallGraph22getExternalCallingNodeEv
__ZN4llvm12scc_iteratorIPNS_9CallGraphENS_11GraphTraitsIS2_EEE11DFSVisitOneEPNS_13CallGraphNodeE
__ZN4llvm8DenseMapIPNS_13CallGraphNodeEjNS_12DenseMapInfoIS2_EENS3_IjEEE16InsertIntoBucketERKS2_RKjPSt4pairIS2_jE
__ZN4llvm8DenseMapIPNS_13CallGraphNodeEjNS_12DenseMapInfoIS2_EENS3_IjEEE4growEj
__ZNSt6vectorIPN4llvm13CallGraphNodeESaIS2_EE13_M_insert_auxEN9__gnu_cxx17__normal_iteratorIPS2_S4_EERKS2_
__ZNSt6vectorIjSaIjEE13_M_insert_auxEN9__gnu_cxx17__normal_iteratorIPjS1_EERKj
__ZNSt6vectorISt4pairIPN4llvm13CallGraphNodeENS1_15mapped_iteratorIN9__gnu_cxx17__normal_iteratorIPS0_INS1_6WeakVHES3_ES_IS8_SaIS8_EEEESt25pointer_to_unary_functionIS8_S3_EEEESaISG_EE13_M_insert_auxENS6_IPSG_SI_EERKSG_
__ZN4llvm12scc_iteratorIPNS_9CallGraphENS_11GraphTraitsIS2_EEE10GetNextSCCEv
__ZN4llvm12scc_iteratorIPNS_9CallGraphENS_11GraphTraitsIS2_EEE16DFSVisitChildrenEv
__ZNK4llvm15mapped_iteratorIN9__gnu_cxx17__normal_iteratorIPSt4pairINS_6WeakVHEPNS_13CallGraphNodeEESt6vectorIS7_SaIS7_EEEESt25pointer_to_unary_functionIS7_S6_EEdeEv
__ZN4llvm11GraphTraitsIPNS_13CallGraphNodeEE8CGNDerefESt4pairINS_6WeakVHES2_E
__ZNSt6vectorIPN4llvm13CallGraphNodeESaIS2_EE13_M_assign_auxIPKS2_EEvT_S8_St20forward_iterator_tag
__ZNK4llvm13PMDataManager31isPassDebuggingExecutionsOrMoreEv
__ZN4llvm7Inliner8runOnSCCERNS_12CallGraphSCCE
__ZN4llvm13PMDataManager23verifyPreservedAnalysisEPNS_4PassE
__ZN4llvm13PMDataManager8freePassEPNS_4PassENS_9StringRefENS_19PassDebuggingStringE
__ZN12_GLOBAL__N_113AlwaysInliner13releaseMemoryEv
__ZN4llvm18InlineCostAnalyzer5clearEv
__ZNSt8_Rb_treeIPKvSt4pairIKS1_PN4llvm4PassEESt10_Select1stIS7_ESt4lessIS1_ESaIS7_EE5eraseESt17_Rb_tree_iteratorIS7_ESF_
__ZN4llvm9Statistic17RegisterStatisticEv
__ZN12_GLOBAL__N_113AlwaysInliner14doFinalizationERN4llvm9CallGraphE
__ZN4llvm7Inliner19removeDeadFunctionsERNS_9CallGraphEPNS_11SmallPtrSetIPKNS_8FunctionELj16EEE
__ZNK4llvm8Constant23removeDeadConstantUsersEv
__ZN12_GLOBAL__N_114BasicCallGraph13releaseMemoryEv
__ZN12_GLOBAL__N_114BasicCallGraph7destroyEv
__ZN4llvm9CallGraph7destroyEv
__ZNSt8_Rb_treeIPKN4llvm8FunctionESt4pairIKS3_PNS0_13CallGraphNodeEESt10_Select1stIS8_ESt4lessIS3_ESaIS8_EE8_M_eraseEPSt13_Rb_tree_nodeIS8_E
__ZN4llvm13FPPassManager11runOnModuleERNS_6ModuleE
__ZN12_GLOBAL__N_115LowerIntrinsics16doInitializationERN4llvm6ModuleE
__ZNK4llvm8Function5hasGCEv
__ZN4llvm14object_creatorINS_3sys12SmartRWMutexILb1EEEEEPvv
__ZN4llvm3sys11RWMutexImplC2Ev
__ZN4llvm12FunctionPass16doInitializationERNS_6ModuleE
__ZN4llvm23MachineFunctionAnalysis16doInitializationERNS_6ModuleE
__ZN4llvm10AsmPrinter16doInitializationERNS_6ModuleE
__ZN4llvm17MachineModuleInfo13AnalyzeModuleERKNS_6ModuleE
__ZN4llvm5Value17stripPointerCastsEv
__ZN4llvm24TargetLoweringObjectFile10InitializeERNS_9MCContextERKNS_13TargetMachineE
__ZNK4llvm13TargetMachine12getCodeModelEv
__ZN4llvm16MCObjectFileInfo20InitMCObjectFileInfoENS_9StringRefENS_5Reloc5ModelENS_9CodeModel5ModelERNS_9MCContextE
__ZN4llvm16MCObjectFileInfo25InitMachOMCObjectFileInfoENS_6TripleE
__ZN4llvm13X86AsmPrinter18EmitStartOfAsmFileERNS_6ModuleE
__ZNK4llvm10AsmPrinter18getObjFileLoweringEv
__ZN4llvm10DwarfDebugC1EPNS_10AsmPrinterEPNS_6ModuleE
__ZN4llvm10DwarfDebugC2EPNS_10AsmPrinterEPNS_6ModuleE
__ZN4llvm16NamedRegionTimerC1ENS_9StringRefES1_b
__ZN4llvm16NamedRegionTimerC2ENS_9StringRefES1_b
__ZN4llvm10DwarfDebug11beginModuleEPNS_6ModuleE
__ZNK4llvm6Module16getNamedMetadataERKNS_5TwineE
__ZN4llvm10DwarfDebug22collectLegacyDebugInfoEPNS_6ModuleE
__ZN4llvm15DebugInfoFinder13processModuleERNS_6ModuleE
__ZN4llvm17DwarfCFIExceptionC1EPNS_10AsmPrinterE
__ZN4llvm14DwarfExceptionC2EPNS_10AsmPrinterE
__ZN4llvm18DebugInfoProbeInfo10initializeEPNS_4PassERNS_8FunctionE
__ZN12_GLOBAL__N_115LowerIntrinsics13runOnFunctionERN4llvm8FunctionE
__ZN4llvm18DebugInfoProbeInfo8finalizeEPNS_4PassERNS_8FunctionE
__ZN4llvm4Pass13releaseMemoryEv
__ZN12_GLOBAL__N_120UnreachableBlockElim13runOnFunctionERN4llvm8FunctionE
__ZN4llvm12df_ext_beginIPNS_8FunctionENS_11SmallPtrSetIPNS_10BasicBlockELj8EEEEENS_15df_ext_iteratorIT_T0_EERKS8_RS9_
__ZN4llvm10BasicBlock13getTerminatorEv
__ZNSt6vectorISt4pairIN4llvm14PointerIntPairIPNS1_10BasicBlockELj1EjNS1_21PointerLikeTypeTraitsIS4_EEEENS1_12SuccIteratorIPNS1_14TerminatorInstES3_EEESaISC_EE13_M_insert_auxEN9__gnu_cxx17__normal_iteratorIPSC_SE_EERKSC_
__ZN4llvm11df_iteratorIPNS_8FunctionENS_11SmallPtrSetIPNS_10BasicBlockELj8EEELb1ENS_11GraphTraitsIS2_EEE6toNextEv
__ZNK4llvm10ReturnInst17getNumSuccessorsVEv
__ZN12_GLOBAL__N_114DwarfEHPrepare13runOnFunctionERN4llvm8FunctionE
__ZN12_GLOBAL__N_114StackProtector13runOnFunctionERN4llvm8FunctionE
__ZNK4llvm10AllocaInst17isArrayAllocationEv
__ZNK4llvm10AllocaInst16getAllocatedTypeEv
__ZN4llvm23MachineFunctionAnalysis13runOnFunctionERNS_8FunctionE
__ZN4llvm15MachineFunctionC1EPKNS_8FunctionERKNS_13TargetMachineEjRNS_17MachineModuleInfoEPNS_12GCModuleInfoE
__ZN4llvm15MachineFunctionC2EPKNS_8FunctionERKNS_13TargetMachineEjRNS_17MachineModuleInfoEPNS_12GCModuleInfoE
__ZN4llvm19MachineRegisterInfoC1ERKNS_18TargetRegisterInfoE
__ZNSt6vectorISt4pairIjjESaIS1_EE7reserveEm
__ZN4llvm9BitVector6resizeEjb
__ZNK4llvm16X86TargetMachine16getFrameLoweringEv
__ZN4llvm19MachineFunctionPass13runOnFunctionERNS_8FunctionE
__ZN4llvm16SelectionDAGISel20runOnMachineFunctionERNS_15MachineFunctionE
__ZN12_GLOBAL__N_118BasicAliasAnalysis26getAdjustedAnalysisPointerEPKv
__ZN4llvm12SelectionDAG4initERNS_15MachineFunctionE
__ZNK4llvm8Function10getContextEv
__ZN4llvm20FunctionLoweringInfo3setERKNS_8FunctionERNS_15MachineFunctionE
__ZNK4llvm8Function13getReturnTypeEv
__ZN4llvm13GetReturnInfoEPNS_4TypeEjRNS_15SmallVectorImplINS_3ISD9OutputArgEEERKNS_14TargetLoweringEPNS2_IyEE
__ZN4llvm15ComputeValueVTsERKNS_14TargetLoweringEPNS_4TypeERNS_15SmallVectorImplINS_3EVTEEEPNS5_IyEEy
__ZN4llvm3EVT6getEVTEPNS_4TypeEb
__ZN4llvm15SmallVectorImplINS_3EVTEE9push_backERKS1_
__ZNK4llvm14TargetLowering15getNumRegistersERNS_11LLVMContextENS_3EVTE
__ZNK4llvm14TargetLowering15getRegisterTypeERNS_11LLVMContextENS_3EVTE
__ZNK4llvm3EVT13getTypeForEVTERNS_11LLVMContextE
__ZN4llvm15SmallVectorImplINS_3ISD9OutputArgEE9push_backERKS2_
__ZNK4llvm8Function8isVarArgEv
__ZNK4llvm17X86TargetLowering14CanLowerReturnENS_11CallingConv2IDERNS_15MachineFunctionEbRKNS_15SmallVectorImplINS_3ISD9OutputArgEEERNS_11LLVMContextE
__ZN4llvm7CCStateC1ENS_11CallingConv2IDEbRNS_15MachineFunctionERKNS_13TargetMachineERNS_11SmallVectorINS_11CCValAssignELj16EEERNS_11LLVMContextE
__ZN4llvm7CCStateC2ENS_11CallingConv2IDEbRNS_15MachineFunctionERKNS_13TargetMachineERNS_11SmallVectorINS_11CCValAssignELj16EEERNS_11LLVMContextE
__ZN4llvm7CCState11CheckReturnERKNS_15SmallVectorImplINS_3ISD9OutputArgEEEPFbjNS_3MVTES7_NS_11CCValAssign7LocInfoENS2_10ArgFlagsTyERS0_E
__ZL9RetCC_X86jN4llvm3MVTES0_NS_11CCValAssign7LocInfoENS_3ISD10ArgFlagsTyERNS_7CCStateE
__ZL14RetCC_X86_64_CjN4llvm3MVTES0_NS_11CCValAssign7LocInfoENS_3ISD10ArgFlagsTyERNS_7CCStateE
__ZL15RetCC_X86CommonjN4llvm3MVTES0_NS_11CCValAssign7LocInfoENS_3ISD10ArgFlagsTyERNS_7CCStateE
__ZN4llvm7CCState13MarkAllocatedEj
__ZN4llvm15SmallVectorImplINS_11CCValAssignEE9push_backERKS1_
__ZNK4llvm10TargetData20getPrefTypeAlignmentEPNS_4TypeE
__ZNSt6vectorIN4llvm16MachineFrameInfo11StackObjectESaIS2_EE13_M_insert_auxEN9__gnu_cxx17__normal_iteratorIPS2_S4_EERKS2_
__ZN4llvm8DenseMapIPKNS_10AllocaInstEiNS_12DenseMapInfoIS3_EENS4_IiEEE16InsertIntoBucketERKS3_RKiPSt4pairIS3_iE
__ZN4llvm8DenseMapIPKNS_10AllocaInstEiNS_12DenseMapInfoIS3_EENS4_IiEEE4growEj
__ZN4llvm15MachineFunction23CreateMachineBasicBlockEPKNS_10BasicBlockE
__ZN4llvm17MachineBasicBlockC1ERNS_15MachineFunctionEPKNS_10BasicBlockE
__ZN4llvm8DenseMapIPKNS_10BasicBlockEPNS_17MachineBasicBlockENS_12DenseMapInfoIS3_EENS6_IS5_EEE16InsertIntoBucketERKS3_RKS5_PSt4pairIS3_S5_E
__ZN4llvm8DenseMapIPKNS_10BasicBlockEPNS_17MachineBasicBlockENS_12DenseMapInfoIS3_EENS6_IS5_EEE4growEj
__ZN4llvm12ilist_traitsINS_17MachineBasicBlockEE13addNodeToListEPS1_
__ZNSt6vectorIPN4llvm17MachineBasicBlockESaIS2_EE13_M_insert_auxEN9__gnu_cxx17__normal_iteratorIPS2_S4_EERKS2_
__ZNK4llvm10BasicBlock13getTerminatorEv
__ZN4llvm19SelectionDAGBuilder4initEPNS_14GCFunctionInfoERNS_13AliasAnalysisE
__ZN4llvm8DenseMapIPNS_17MachineBasicBlockENS_11SmallVectorIjLj4EEENS_12DenseMapInfoIS2_EENS5_IS4_EEE5clearEv
__ZN4llvm16SelectionDAGISel20SelectAllBasicBlocksERKNS_8FunctionE
__ZNK4llvm17X86TargetLowering14createFastISelERNS_20FunctionLoweringInfoE
__ZN4llvm3X8614createFastISelERNS_20FunctionLoweringInfoE
__ZN4llvm8FastISelC2ERNS_20FunctionLoweringInfoE
__ZN4llvm25ReversePostOrderTraversalIPKNS_8FunctionENS_11GraphTraitsIS3_EEEC2ES3_
__ZN4llvm8po_beginIPKNS_10BasicBlockEEENS_11po_iteratorIT_NS_11SmallPtrSetIPNS_11GraphTraitsIS5_E8NodeTypeELj8EEELb0ES8_EES5_
__ZNSt6vectorISt4pairIPKN4llvm10BasicBlockENS1_12SuccIteratorIPKNS1_14TerminatorInstES3_EEESaISA_EE13_M_insert_auxEN9__gnu_cxx17__normal_iteratorIPSA_SC_EERKSA_
__ZN4llvm11po_iteratorIPKNS_10BasicBlockENS_11SmallPtrSetIS3_Lj8EEELb0ENS_11GraphTraitsIS3_EEE13traverseChildEv
__ZSt4copyIN4llvm11po_iteratorIPKNS0_10BasicBlockENS0_11SmallPtrSetIS4_Lj8EEELb0ENS0_11GraphTraitsIS4_EEEESt20back_insert_iteratorISt6vectorIS4_SaIS4_EEEET0_T_SG_SF_
__ZNSt13__copy_normalILb0ELb0EE8__copy_nIN4llvm11po_iteratorIPKNS2_10BasicBlockENS2_11SmallPtrSetIS6_Lj8EEELb0ENS2_11GraphTraitsIS6_EEEESt20back_insert_iteratorISt6vectorIS6_SaIS6_EEEEET0_T_SI_SH_
__ZSt10__copy_auxIN4llvm11po_iteratorIPKNS0_10BasicBlockENS0_11SmallPtrSetIS4_Lj8EEELb0ENS0_11GraphTraitsIS4_EEEESt20back_insert_iteratorISt6vectorIS4_SaIS4_EEEET0_T_SG_SF_
__ZNSt6__copyILb0ESt20forward_iterator_tagE4copyIN4llvm11po_iteratorIPKNS3_10BasicBlockENS3_11SmallPtrSetIS7_Lj8EEELb0ENS3_11GraphTraitsIS7_EEEESt20back_insert_iteratorISt6vectorIS7_SaIS7_EEEEET0_T_SJ_SI_
__ZNSt6vectorIPKN4llvm10BasicBlockESaIS3_EE13_M_insert_auxEN9__gnu_cxx17__normal_iteratorIPS3_S5_EERKS3_
__ZN4llvm17MachineBasicBlock14getFirstNonPHIEv
__ZN4llvm10BasicBlock14getFirstNonPHIEv
__ZN4llvm16SelectionDAGISel14LowerArgumentsEPKNS_10BasicBlockE
__ZN4llvm15SmallVectorImplINS_3ISD8InputArgEE9push_backERKS2_
__ZNK4llvm17X86TargetLowering20LowerFormalArgumentsENS_7SDValueENS_11CallingConv2IDEbRKNS_15SmallVectorImplINS_3ISD8InputArgEEENS_8DebugLocERNS_12SelectionDAGERNS4_IS1_EE
__ZN4llvm7CCState22AnalyzeFormalArgumentsERKNS_15SmallVectorImplINS_3ISD8InputArgEEEPFbjNS_3MVTES7_NS_11CCValAssign7LocInfoENS2_10ArgFlagsTyERS0_E
__ZL6CC_X86jN4llvm3MVTES0_NS_11CCValAssign7LocInfoENS_3ISD10ArgFlagsTyERNS_7CCStateE
__ZN4llvm15MachineFunction9addLiveInEjPKNS_19TargetRegisterClassE
__ZNK4llvm19MachineRegisterInfo16getLiveInVirtRegEj
__ZN4llvm19MachineRegisterInfo21createVirtualRegisterEPKNS_19TargetRegisterClassE
__ZNSt6vectorISt4pairIPKN4llvm19TargetRegisterClassEPNS1_14MachineOperandEESaIS7_EE14_M_fill_insertEN9__gnu_cxx17__normal_iteratorIPS7_S9_EEmRKS7_
__ZNSt6vectorISt4pairIjjESaIS1_EE14_M_fill_insertEN9__gnu_cxx17__normal_iteratorIPS1_S3_EEmRKS1_
__ZNSt6vectorISt4pairIjjESaIS1_EE13_M_insert_auxEN9__gnu_cxx17__normal_iteratorIPS1_S3_EERKS1_
__ZN4llvm12SelectionDAG9getVTListENS_3EVTES1_
__ZNSt6vectorIN4llvm8SDVTListESaIS1_EE13_M_insert_auxEN9__gnu_cxx17__normal_iteratorIPS1_S3_EERKS1_
__ZN4llvm12SelectionDAG11getRegisterEjNS_3EVTE
__ZN4llvm12SelectionDAG7getNodeEjNS_8DebugLocENS_8SDVTListEPKNS_7SDValueEj
__ZN4llvm14checkForCyclesEPKNS_6SDNodeE
__ZN4llvm14checkForCyclesEPKNS_12SelectionDAGE
__ZL16getCopyFromPartsRN4llvm12SelectionDAGENS_8DebugLocEPKNS_7SDValueEjNS_3EVTES6_NS_3ISD8NodeTypeE
__ZN4llvm12SelectionDAG14getMergeValuesEPKNS_7SDValueEjNS_8DebugLocE
__ZN4llvm8DenseMapIPKNS_5ValueENS_7SDValueENS_12DenseMapInfoIS3_EENS5_IS4_EEE16InsertIntoBucketERKS3_RKS4_PSt4pairIS3_S4_E
__ZN4llvm8DenseMapIPKNS_5ValueENS_7SDValueENS_12DenseMapInfoIS3_EENS5_IS4_EEE4growEj
__ZN4llvm20FunctionLoweringInfo21InitializeRegForValueEPKNS_5ValueE
__ZN4llvm8DenseMapIPKNS_5ValueEjNS_12DenseMapInfoIS3_EENS4_IjEEE16InsertIntoBucketERKS3_RKjPSt4pairIS3_jE
__ZN4llvm8DenseMapIPKNS_5ValueEjNS_12DenseMapInfoIS3_EENS4_IjEEE4growEj
__ZN4llvm20FunctionLoweringInfo10CreateRegsEPNS_4TypeE
__ZNK4llvm14TargetLowering14getRegClassForENS_3EVTE
__ZN4llvm19SelectionDAGBuilder24CopyToExportRegsIfNeededEPKNS_5ValueE
__ZNK4llvm4Type9isEmptyTyEv
__ZN4llvm19SelectionDAGBuilder26CopyValueToVirtualRegisterEPKNS_5ValueEj
__ZN4llvm19SelectionDAGBuilder19getNonRegisterValueEPKNS_5ValueE
__ZN12_GLOBAL__N_112RegsForValueC1ERN4llvm11LLVMContextERKNS1_14TargetLoweringEjPNS1_4TypeE
__ZNK12_GLOBAL__N_112RegsForValue13getCopyToRegsEN4llvm7SDValueERNS1_12SelectionDAGENS1_8DebugLocERS2_PS2_
__ZL14getCopyToPartsRN4llvm12SelectionDAGENS_8DebugLocENS_7SDValueEPS3_jNS_3EVTENS_3ISD8NodeTypeE
__ZN4llvm12SelectionDAG7getNodeEjNS_8DebugLocENS_3EVTENS_7SDValueES3_S3_
__ZN12_GLOBAL__N_115X86DAGToDAGISel21EmitFunctionEntryCodeEv
__ZN4llvm8FastISel13startNewBlockEv
__ZN4llvm8DenseMapIPKNS_5ValueEjNS_12DenseMapInfoIS3_EENS4_IjEEE5clearEv
__ZN4llvm19SelectionDAGBuilder14getControlRootEv
__ZN4llvm12SelectionDAG7getNodeEjNS_8DebugLocENS_3EVTEPKNS_7SDValueEj
__ZN4llvm12SelectionDAG7getNodeEjNS_8DebugLocENS_3EVTENS_7SDValueES3_
__ZN4llvm19SelectionDAGBuilder5clearEv
__ZN4llvm8DenseMapIPKNS_5ValueENS_7SDValueENS_12DenseMapInfoIS3_EENS5_IS4_EEE5clearEv
__ZN4llvm16SelectionDAGISel17CodeGenAndEmitDAGEv
__ZN4llvm12SelectionDAG7CombineENS_12CombineLevelERNS_13AliasAnalysisENS_10CodeGenOpt5LevelE
__ZN12_GLOBAL__N_111DAGCombiner7combineEPN4llvm6SDNodeE
__ZN12_GLOBAL__N_111DAGCombiner5visitEPN4llvm6SDNodeE
__ZL20getInputChainForNodePN4llvm6SDNodeE
__ZN4llvm12HandleSDNodeD1Ev
__ZN4llvm12SelectionDAG13LegalizeTypesEv
__ZN4llvm16DAGTypeLegalizer3runEv
__ZNK4llvm14TargetLowering17getTypeConversionERNS_11LLVMContextENS_3EVTE
__ZN4llvm12SelectionDAG15RemoveDeadNodesEv
__ZN4llvm12SelectionDAG15RemoveDeadNodesERNS_15SmallVectorImplIPNS_6SDNodeEEEPNS0_17DAGUpdateListenerE
__ZN4llvm16DAGTypeLegalizerD2Ev
__ZN4llvm12SelectionDAG15LegalizeVectorsEv
__ZN4llvm12SelectionDAG22AssignTopologicalOrderEv
__ZN12_GLOBAL__N_115VectorLegalizer10LegalizeOpEN4llvm7SDValueE
__ZN4llvm8DenseMapINS_7SDValueES1_NS_12DenseMapInfoIS1_EES3_E4findERKS1_
__ZN4llvm12SelectionDAG18UpdateNodeOperandsEPNS_6SDNodeEPKNS_7SDValueEj
__ZN12_GLOBAL__N_115VectorLegalizer24TranslateLegalizeResultsEN4llvm7SDValueES2_
__ZN4llvm8DenseMapINS_7SDValueES1_NS_12DenseMapInfoIS1_EES3_E6insertERKSt4pairIS1_S1_E
__ZN4llvm8DenseMapINS_7SDValueES1_NS_12DenseMapInfoIS1_EES3_E16InsertIntoBucketERKS1_S6_PSt4pairIS1_S1_E
__ZN4llvm8DenseMapINS_7SDValueES1_NS_12DenseMapInfoIS1_EES3_E4growEj
__ZN4llvm8DenseMapINS_7SDValueES1_NS_12DenseMapInfoIS1_EES3_E16FindAndConstructERKS1_
__ZN4llvm8DenseMapINS_7SDValueES1_NS_12DenseMapInfoIS1_EES3_E5clearEv
__ZN4llvm12SelectionDAG8LegalizeEv
__ZN12_GLOBAL__N_120SelectionDAGLegalize10LegalizeOpEN4llvm7SDValueE
__ZN4llvm12SelectionDAG17TransferDbgValuesENS_7SDValueES1_
__ZN4llvm16SelectionDAGISel22DoInstructionSelectionEv
__ZN12_GLOBAL__N_115X86DAGToDAGISel17PreprocessISelDAGEv
__ZN12_GLOBAL__N_115X86DAGToDAGISel6SelectEPN4llvm6SDNodeE
__ZN4llvm16SelectionDAGISel16SelectCodeCommonEPNS_6SDNodeEPKhj
__ZN4llvm16SelectionDAGISel18PostprocessISelDAGEv
__ZN4llvm22createDefaultSchedulerEPNS_16SelectionDAGISelENS_10CodeGenOpt5LevelE
__ZN4llvm28createSourceListDAGSchedulerEPNS_16SelectionDAGISelENS_10CodeGenOpt5LevelE
__ZN12_GLOBAL__N_118RegReductionPQBaseC2ERN4llvm15MachineFunctionEbbPKNS1_15TargetInstrInfoEPKNS1_18TargetRegisterInfoEPKNS1_14TargetLoweringE
__ZN12_GLOBAL__N_117ScheduleDAGRRListC1ERN4llvm15MachineFunctionEbPNS1_23SchedulingPriorityQueueENS1_10CodeGenOpt5LevelE
__ZN4llvm18ScheduleDAGSDNodesC2ERNS_15MachineFunctionE
__ZN4llvm11ScheduleDAGC2ERNS_15MachineFunctionE
__ZNK4llvm13TargetMachine21getInstrItineraryDataEv
__ZN4llvm26ScheduleDAGTopologicalSortC1ERSt6vectorINS_5SUnitESaIS2_EE
__ZN4llvm18ScheduleDAGSDNodes3RunEPNS_12SelectionDAGEPNS_17MachineBasicBlockENS_14ilist_iteratorINS_12MachineInstrEEE
__ZN4llvm11ScheduleDAG3RunEPNS_17MachineBasicBlockENS_14ilist_iteratorINS_12MachineInstrEEE
__ZN4llvm15SmallVectorImplINS_4SDepEEaSERKS2_
__ZN12_GLOBAL__N_117ScheduleDAGRRList8ScheduleEv
__ZNSt6vectorIPN4llvm5SUnitESaIS2_EE14_M_fill_insertEN9__gnu_cxx17__normal_iteratorIPS2_S4_EEmRKS2_
__ZN4llvm18ScheduleDAGSDNodes15BuildSchedGraphEPNS_13AliasAnalysisE
__ZN4llvm18ScheduleDAGSDNodes15BuildSchedUnitsEv
__ZNSt6vectorIN4llvm5SUnitESaIS1_EE7reserveEm
__ZN4llvm18ScheduleDAGSDNodes8NewSUnitEPNS_6SDNodeE
__ZN4llvm5SUnitC2ERKS0_
__ZNK4llvm14TargetLowering23getSchedulingPreferenceEPNS_6SDNodeE
__ZN4llvm18ScheduleDAGSDNodes18InitNumRegDefsLeftEPNS_5SUnitE
__ZN4llvm18ScheduleDAGSDNodes10RegDefIter7AdvanceEv
__ZN4llvm18ScheduleDAGSDNodes14ComputeLatencyEPNS_5SUnitE
__ZNK12_GLOBAL__N_117ScheduleDAGRRList18ForceUnitLatenciesEv
__ZNK4llvm6SDNode16hasAnyUseOfValueEj
__ZN4llvm18ScheduleDAGSDNodes13AddSchedEdgesEv
__ZN4llvm5SUnit7addPredERKNS_4SDepE
__ZN4llvm5SUnit13setDepthDirtyEv
__ZN4llvm5SUnit14setHeightDirtyEv
__ZN4llvm26ScheduleDAGTopologicalSort25InitDAGTopologicalSortingEv
__ZNSt6vectorIiSaIiEE14_M_fill_insertEN9__gnu_cxx17__normal_iteratorIPiS1_EEmRKi
__ZN12_GLOBAL__N_118RegReductionPQBase9initNodesERSt6vectorIN4llvm5SUnitESaIS3_EE
__ZNSt6vectorIjSaIjEE14_M_fill_assignEmRKj
__ZL25CalcNodeSethiUllmanNumberPKN4llvm5SUnitERSt6vectorIjSaIjEE
__ZNK4llvm17MachineBasicBlock11isSuccessorEPKS0_
__ZN4llvm24ScheduleHazardRecognizer5ResetEv
__ZN12_GLOBAL__N_117ScheduleDAGRRList20ListScheduleBottomUpEv
__ZN12_GLOBAL__N_117ScheduleDAGRRList19ReleasePredecessorsEPN4llvm5SUnitE
__ZN12_GLOBAL__N_118RegReductionPQBase4pushEPN4llvm5SUnitE
__ZNSt6vectorIPN4llvm5SUnitESaIS2_EE13_M_insert_auxEN9__gnu_cxx17__normal_iteratorIPS2_S4_EERKS2_
__ZNK12_GLOBAL__N_118RegReductionPQBase5emptyEv
__ZN12_GLOBAL__N_125RegReductionPriorityQueueINS_14src_ls_rr_sortEE3popEv
__ZN12_GLOBAL__N_112popFromQueueINS_14src_ls_rr_sortEEEPN4llvm5SUnitERSt6vectorIS4_SaIS4_EERT_PNS2_11ScheduleDAGE
__ZN4llvm5SUnit13ComputeHeightEv
__ZN4llvm24ScheduleHazardRecognizer13getHazardTypeEPNS_5SUnitEi
__ZN4llvm5SUnit18setHeightToAtLeastEj
__ZN12_GLOBAL__N_118RegReductionPQBase13ScheduledNodeEPN4llvm5SUnitE
__ZN12_GLOBAL__N_117ScheduleDAGRRList14ReleasePendingEv
__ZNK4llvm12SelectionDAG11GetOrderingEPKNS_6SDNodeE
__ZN4llvm8DenseMapIPKNS_6SDNodeEjNS_12DenseMapInfoIS3_EENS4_IjEEE16InsertIntoBucketERKS3_RKjPSt4pairIS3_jE
__ZN4llvm8DenseMapIPKNS_6SDNodeEjNS_12DenseMapInfoIS3_EENS4_IjEEE4growEj
__ZL8BURRSortPN4llvm5SUnitES1_PN12_GLOBAL__N_118RegReductionPQBaseE
__ZL11closestSuccPKN4llvm5SUnitE
__ZL16BUCompareLatencyPN4llvm5SUnitES1_bPN12_GLOBAL__N_118RegReductionPQBaseE
__ZN4llvm5SUnit12ComputeDepthEv
__ZN12_GLOBAL__N_118RegReductionPQBase12releaseStateEv
__ZN4llvm18ScheduleDAGSDNodes12EmitScheduleEv
__ZN4llvm12InstrEmitterC1EPNS_17MachineBasicBlockENS_14ilist_iteratorINS_12MachineInstrEEE
__ZN4llvm12InstrEmitter15EmitSpecialNodeEPNS_6SDNodeEbbRNS_8DenseMapINS_7SDValueEjNS_12DenseMapInfoIS4_EENS5_IjEEEE
__ZN4llvm12InstrEmitter15EmitCopyFromRegEPNS_6SDNodeEjbbjRNS_8DenseMapINS_7SDValueEjNS_12DenseMapInfoIS4_EENS5_IjEEEE
__ZN4llvm8DenseMapINS_7SDValueEjNS_12DenseMapInfoIS1_EENS2_IjEEE6insertERKSt4pairIS1_jE
__ZN4llvm8DenseMapINS_7SDValueEjNS_12DenseMapInfoIS1_EENS2_IjEEE16InsertIntoBucketERKS1_RKjPSt4pairIS1_jE
__ZN4llvm8DenseMapINS_7SDValueEjNS_12DenseMapInfoIS1_EENS2_IjEEE4growEj
__ZN4llvm12InstrEmitter5getVRENS_7SDValueERNS_8DenseMapIS1_jNS_12DenseMapInfoIS1_EENS3_IjEEEE
__ZN4llvm8DenseMapINS_7SDValueEjNS_12DenseMapInfoIS1_EENS2_IjEEE4findERKS1_
__ZN4llvm15MachineFunction18CreateMachineInstrERKNS_11MCInstrDescENS_8DebugLocEb
__ZN4llvm12MachineInstrC1ERKNS_11MCInstrDescENS_8DebugLocEb
__ZN4llvm12MachineInstrC2ERKNS_11MCInstrDescENS_8DebugLocEb
__ZNSt6vectorIN4llvm14MachineOperandESaIS1_EE7reserveEm
__ZN4llvm12MachineInstr25addImplicitDefUseOperandsEv
__ZN4llvm12ilist_traitsINS_12MachineInstrEE13addNodeToListEPS1_
__ZN4llvm12MachineInstr24AddRegOperandsToUseListsERNS_19MachineRegisterInfoE
__ZN4llvm12MachineInstr10addOperandERKNS_14MachineOperandE
__ZNSt8_Rb_treeIjjSt9_IdentityIjESt4lessIjESaIjEE8_M_eraseEPSt13_Rb_tree_nodeIjE
__ZN12_GLOBAL__N_117ScheduleDAGRRListD0Ev
__ZN12_GLOBAL__N_117ScheduleDAGRRListD1Ev
__ZN4llvm24ScheduleHazardRecognizerD0Ev
__ZN12_GLOBAL__N_125RegReductionPriorityQueueINS_14src_ls_rr_sortEED0Ev
__ZN4llvm11ScheduleDAGD2Ev
__ZN4llvm12SelectionDAG5clearEv
__ZN4llvm12SelectionDAG14DeallocateNodeEPNS_6SDNodeE
__ZN4llvm14SDNodeOrdering6removeEPKNS_6SDNodeE
__ZN4llvm9SDDbgInfo14getSDDbgValuesEPKNS_6SDNodeE
__ZN4llvm14FoldingSetImpl5clearEv
__ZNSt8_Rb_treeIN4llvm3EVTESt4pairIKS1_PNS0_6SDNodeEESt10_Select1stIS6_ENS1_14compareRawBitsESaIS6_EE8_M_eraseEPSt13_Rb_tree_nodeIS6_E
__ZNSt8_Rb_treeISt4pairISshES0_IKS1_PN4llvm6SDNodeEESt10_Select1stIS6_ESt4lessIS1_ESaIS6_EE8_M_eraseEPSt13_Rb_tree_nodeIS6_E
__ZN4llvm8DenseMapIPKNS_6SDNodeEjNS_12DenseMapInfoIS3_EENS4_IjEEE5clearEv
__ZN4llvm8DenseMapIPKNS_6SDNodeENS_11SmallVectorIPNS_10SDDbgValueELj2EEENS_12DenseMapInfoIS3_EENS8_IS7_EEE5clearEv
__ZNK4llvm11Instruction16mayWriteToMemoryEv
__ZN4llvm8FastISel17recomputeInsertPtEv
__ZN4llvm8FastISel17SelectInstructionEPKNS_11InstructionE
__ZN4llvm8FastISel31HandlePHINodesInSuccessorBlocksEPKNS_10BasicBlockE
__ZN4llvm8FastISel14SelectOperatorEPKNS_4UserEj
__ZN12_GLOBAL__N_111X86FastISel23TargetSelectInstructionEPKN4llvm11InstructionE
__ZN4llvm7CCState13AnalyzeReturnERKNS_15SmallVectorImplINS_3ISD9OutputArgEEEPFbjNS_3MVTES7_NS_11CCValAssign7LocInfoENS2_10ArgFlagsTyERS0_E
__ZN4llvm8FastISel14getRegForValueEPKNS_5ValueE
__ZN4llvm8FastISel19enterLocalValueAreaEv
__ZN4llvm8FastISel22materializeRegForValueEPKNS_5ValueENS_3MVTE
__ZN12_GLOBAL__N_111X86FastISel10FastEmit_iEN4llvm3MVTES2_jy
__ZN4llvm8FastISel14FastEmitInst_iEjPKNS_19TargetRegisterClassEy
__ZNK4llvm19MachineRegisterInfo10getVRegDefEj
__ZN4llvm3sys15AtomicIncrementEPVj
__ZN12_GLOBAL__N_111X86FastISel16X86SelectAddressEPKN4llvm5ValueERNS1_14X86AddressModeE
__ZN12_GLOBAL__N_111X86FastISel16X86FastEmitStoreEN4llvm3EVTEPKNS1_5ValueERKNS1_14X86AddressModeE
__ZN12_GLOBAL__N_111X86FastISel16X86FastEmitStoreEN4llvm3EVTEjRKNS1_14X86AddressModeE
__ZN4llvmL14addFullAddressERKNS_19MachineInstrBuilderERKNS_14X86AddressModeE
__ZN4llvm16SelectionDAGISel16FinishBasicBlockEv
__ZN12_GLOBAL__N_111X86FastISelD0Ev
__ZN4llvm8FastISelD2Ev
__ZN4llvm19SelectionDAGBuilder22clearDanglingDebugInfoEv
__ZN4llvm8DenseMapIPKNS_5ValueENS_19SelectionDAGBuilder17DanglingDebugInfoENS_12DenseMapInfoIS3_EENS6_IS5_EEE5clearEv
__ZN4llvm19MachineRegisterInfo16EmitLiveInCopiesEPNS_17MachineBasicBlockERKNS_18TargetRegisterInfoERKNS_15TargetInstrInfoE
__ZNK4llvm12MachineInstr24isStackAligningInlineAsmEv
__ZNK4llvm8Function29callsFunctionThatReturnsTwiceEv
__ZN4llvm20FunctionLoweringInfo5clearEv
__ZN4llvm8DenseMapIPKNS_10BasicBlockEPNS_17MachineBasicBlockENS_12DenseMapInfoIS3_EENS6_IS5_EEE5clearEv
__ZN4llvm8DenseMapIPKNS_10AllocaInstEiNS_12DenseMapInfoIS3_EENS4_IiEEE5clearEv
__ZN4llvm8DenseMapIPKNS_10BasicBlockEcNS_12DenseMapInfoIS3_EENS4_IcEEE5clearEv
__ZN4llvm8DenseMapIPKNS_8ArgumentEiNS_12DenseMapInfoIS3_EENS4_IiEEE5clearEv
__ZN4llvm8DenseMapIjjNS_12DenseMapInfoIjEES2_E5clearEv
__ZN12_GLOBAL__N_117ExpandISelPseudos20runOnMachineFunctionERN4llvm15MachineFunctionE
__ZN12_GLOBAL__N_118LocalStackSlotPass20runOnMachineFunctionERN4llvm15MachineFunctionE
__ZNK4llvm18TargetRegisterInfo28requiresVirtualBaseRegistersERKNS_15MachineFunctionE
__ZN12_GLOBAL__N_14MSAH20runOnMachineFunctionERN4llvm15MachineFunctionE
__ZN12_GLOBAL__N_114PHIElimination20runOnMachineFunctionERN4llvm15MachineFunctionE
__ZN4llvm8DenseMapIPNS_12MachineInstrEjNS_27MachineInstrExpressionTraitENS_12DenseMapInfoIjEEE5clearEv
__ZN4llvm8DenseMapISt4pairIjjEjNS_12DenseMapInfoIS2_EENS3_IjEEE5clearEv
__ZN12_GLOBAL__N_125TwoAddressInstructionPass20runOnMachineFunctionERN4llvm15MachineFunctionE
__ZN4llvm8DenseMapIPNS_12MachineInstrEjNS_12DenseMapInfoIS2_EENS3_IjEEE5clearEv
__ZN4llvm8DenseMapIPNS_12MachineInstrEjNS_12DenseMapInfoIS2_EENS3_IjEEE6insertERKSt4pairIS2_jE
__ZN4llvm8DenseMapIPNS_12MachineInstrEjNS_12DenseMapInfoIS2_EENS3_IjEEE16InsertIntoBucketERKS2_RKjPSt4pairIS2_jE
__ZN4llvm8DenseMapIPNS_12MachineInstrEjNS_12DenseMapInfoIS2_EENS3_IjEEE4growEj
__ZN4llvm8DenseMapIjjNS_12DenseMapInfoIjEES2_E6insertERKSt4pairIjjE
__ZN12_GLOBAL__N_125TwoAddressInstructionPass8ScanUsesEjPN4llvm17MachineBasicBlockERNS1_11SmallPtrSetIPNS1_12MachineInstrELj8EEE
__ZNK4llvm19MachineRegisterInfo15hasOneNonDBGUseEj
__ZNK4llvm12MachineInstr21isRegTiedToDefOperandEjPj
__ZN4llvm8DenseMapIjNS_11SmallVectorISt4pairIjjELj4EEENS_12DenseMapInfoIjEENS5_IS4_EEE5clearEv
__ZN12_GLOBAL__N_16RAFast20runOnMachineFunctionERN4llvm15MachineFunctionE
__ZN4llvm17RegisterClassInfo20runOnMachineFunctionERKNS_15MachineFunctionE
__ZNK4llvm15X86RegisterInfo18getCalleeSavedRegsEPKNS_15MachineFunctionE
__ZNK4llvm15X86RegisterInfo15getReservedRegsERKNS_15MachineFunctionE
__ZNK4llvm16X86FrameLowering5hasFPERKNS_15MachineFunctionE
__ZN4llvm23DisableFramePointerElimERKNS_15MachineFunctionE
__ZN4llvm9BitVectoraSERKS0_
__ZN4llvm12MachineInstr17addRegisterKilledEjPKNS_18TargetRegisterInfoEb
__ZNSt6vectorIN4llvm14MachineOperandESaIS1_EE13_M_insert_auxEN9__gnu_cxx17__normal_iteratorIPS1_S3_EERKS1_
__ZN12_GLOBAL__N_16RAFast13definePhysRegEPN4llvm12MachineInstrEjNS0_8RegStateE
__ZN12_GLOBAL__N_16RAFast13defineVirtRegEPN4llvm12MachineInstrEjjj
__ZN4llvm8DenseMapIjN12_GLOBAL__N_16RAFast7LiveRegENS_12DenseMapInfoIjEENS4_IS3_EEE6insertERKSt4pairIjS3_E
__ZN4llvm8DenseMapIjN12_GLOBAL__N_16RAFast7LiveRegENS_12DenseMapInfoIjEENS4_IS3_EEE4growEj
__ZN12_GLOBAL__N_16RAFast12allocVirtRegEPN4llvm12MachineInstrERSt4pairIjNS0_7LiveRegEEj
__ZNK12_GLOBAL__N_16RAFast13calcSpillCostEj
__ZN12_GLOBAL__N_16RAFast10setPhysRegEPN4llvm12MachineInstrEjj
__ZN4llvm14MachineOperand6setRegEj
__ZN12_GLOBAL__N_16RAFast13reloadVirtRegEPN4llvm12MachineInstrEjjj
__ZN4llvm17MachineBasicBlock18getFirstTerminatorEv
__ZN12_GLOBAL__N_16RAFast8spillAllEPN4llvm12MachineInstrE
__ZN4llvm12ilist_traitsINS_12MachineInstrEE18removeNodeFromListEPS1_
__ZN4llvm12MachineInstr29RemoveRegOperandsFromUseListsEv
__ZN4llvm12ilist_traitsINS_12MachineInstrEE10deleteNodeEPS1_
__ZN4llvm15MachineFunction18DeleteMachineInstrEPNS_12MachineInstrE
__ZN4llvm12MachineInstrD1Ev
__ZN4llvm3sys9AtomicAddEPVjj
__ZN4llvm19MachineRegisterInfo17closePhysRegsUsedERKNS_18TargetRegisterInfoE
__ZN4llvm8DenseMapIjNS_11SmallVectorIPNS_12MachineInstrELj4EEENS_12DenseMapInfoIjEENS5_IS4_EEE5clearEv
__ZN4llvm11EdgeBundles20runOnMachineFunctionERNS_15MachineFunctionE
__ZN4llvm12IntEqClasses8compressEv
__ZN4llvm15SmallVectorImplINS_11SmallVectorIjLj8EEEE6resizeEj
__ZN12_GLOBAL__N_13FPS20runOnMachineFunctionERN4llvm15MachineFunctionE
__ZN12_GLOBAL__N_112ExpandPostRA20runOnMachineFunctionERN4llvm15MachineFunctionE
__ZN4llvm3PEI20runOnMachineFunctionERNS_15MachineFunctionE
__ZNK4llvm18TargetRegisterInfo26requiresRegisterScavengingERKNS_15MachineFunctionE
__ZNK4llvm18TargetRegisterInfo28requiresFrameIndexScavengingERKNS_15MachineFunctionE
__ZN4llvm3PEI25calculateCallsInformationERNS_15MachineFunctionE
__ZNK4llvm16X86FrameLowering36processFunctionBeforeCalleeSavedScanERNS_15MachineFunctionEPNS_12RegScavengerE
__ZN4llvm16MachineFrameInfo17CreateFixedObjectEyxb
__ZN4llvm3PEI29calculateCalleeSavedRegistersERNS_15MachineFunctionE
__ZN4llvm3PEI25placeCSRSpillsAndRestoresERNS_15MachineFunctionE
__ZN4llvm3PEI12clearAllSetsEv
__ZN4llvm3PEI19clearAnticAvailSetsEv
__ZN4llvm8DenseMapIPNS_17MachineBasicBlockEPNS_11MachineLoopENS_12DenseMapInfoIS2_EENS5_IS4_EEE5clearEv
__ZN4llvm3PEI13calculateSetsERNS_15MachineFunctionE
__ZN4llvm3PEI26insertCSRSpillsAndRestoresERNS_15MachineFunctionE
__ZNK4llvm19TargetFrameLowering35processFunctionBeforeFrameFinalizedERNS_15MachineFunctionE
__ZN4llvm3PEI27calculateFrameObjectOffsetsERNS_15MachineFunctionE
__ZNK4llvm19TargetFrameLowering31targetHandlesStackFrameRoundingEv
__ZNK4llvm15X86RegisterInfo21needsStackRealignmentERKNS_15MachineFunctionE
__ZNSt8_Rb_treeIiiSt9_IdentityIiESt4lessIiESaIiEE8_M_eraseEPSt13_Rb_tree_nodeIiE
__ZN4llvm3PEI22insertPrologEpilogCodeERNS_15MachineFunctionE
__ZNK4llvm16X86FrameLowering12emitPrologueERNS_15MachineFunctionE
__ZNK4llvm15X86RegisterInfo16getFrameRegisterERKNS_15MachineFunctionE
__ZN4llvm9MCContext16CreateTempSymbolEv
__ZN4llvm9MCContext12CreateSymbolENS_9StringRefE
__ZN4llvm9StringMapIbRNS_16BumpPtrAllocatorEE16GetOrCreateValueIbEERNS_14StringMapEntryIbEENS_9StringRefET_
__ZN4llvm17MachineBasicBlock12findDebugLocERNS_14ilist_iteratorINS_12MachineInstrEEE
__ZL14mergeSPUpdatesRN4llvm17MachineBasicBlockERNS_14ilist_iteratorINS_12MachineInstrEEEjb
__ZNK4llvm16X86FrameLowering24getCompactUnwindEncodingERNS_15MachineFunctionE
__ZNK4llvm16X86FrameLowering12emitEpilogueERNS_15MachineFunctionERNS_17MachineBasicBlockE
__ZN4llvm17MachineBasicBlock20getLastNonDebugInstrEv
__ZN4llvm3PEI19replaceFrameIndicesERNS_15MachineFunctionE
__ZNK4llvm15X86RegisterInfo19eliminateFrameIndexENS_14ilist_iteratorINS_12MachineInstrEEEiPNS_12RegScavengerE
__ZN4llvm14MachineOperand16ChangeToRegisterEjbbbbbb
__ZNK4llvm16X86FrameLowering19getFrameIndexOffsetERKNS_15MachineFunctionEi
__ZN4llvm14MachineOperand17ChangeToImmediateEx
__ZN12_GLOBAL__N_119MachineCodeAnalysis20runOnMachineFunctionERN4llvm15MachineFunctionE
__ZN4llvm13X86AsmPrinter20runOnMachineFunctionERNS_15MachineFunctionE
__ZN4llvm10AsmPrinter20SetupMachineFunctionERNS_15MachineFunctionE
__ZN4llvm7Mangler9getSymbolEPKNS_11GlobalValueE
__ZN4llvm7Mangler17getNameWithPrefixERNS_15SmallVectorImplIcEEPKNS_11GlobalValueEb
__ZN4llvm7Mangler17getNameWithPrefixERNS_15SmallVectorImplIcEERKNS_5TwineENS0_15ManglerPrefixTyE
__ZN4llvm9MCContext17GetOrCreateSymbolENS_9StringRefE
__ZN4llvm9StringMapIPNS_8MCSymbolERNS_16BumpPtrAllocatorEE16GetOrCreateValueIS2_EERNS_14StringMapEntryIS2_EENS_9StringRefET_
__ZN4llvm10AsmPrinter18EmitFunctionHeaderEv
__ZN4llvm10AsmPrinter16EmitConstantPoolEv
__ZN4llvm24TargetLoweringObjectFile16getKindForGlobalEPKNS_11GlobalValueERKNS_13TargetMachineE
__ZNK4llvm24TargetLoweringObjectFile16SectionForGlobalEPKNS_11GlobalValueENS_11SectionKindEPNS_7ManglerERKNS_13TargetMachineE
__ZNK4llvm29TargetLoweringObjectFileMachO22SelectSectionForGlobalEPKNS_11GlobalValueENS_11SectionKindEPNS_7ManglerERKNS_13TargetMachineE
__ZNK4llvm10AsmPrinter11EmitLinkageEjPNS_8MCSymbolE
__ZN12_GLOBAL__N_115MCMachOStreamer19EmitSymbolAttributeEPN4llvm8MCSymbolENS1_12MCSymbolAttrE
__ZN4llvm11MCAssembler21getOrCreateSymbolDataERKNS_8MCSymbolEPb
__ZN4llvm8DenseMapIPKNS_8MCSymbolEPNS_12MCSymbolDataENS_12DenseMapInfoIS3_EENS6_IS5_EEE16InsertIntoBucketERKS3_RKS5_PSt4pairIS3_S5_E
__ZN4llvm8DenseMapIPKNS_8MCSymbolEPNS_12MCSymbolDataENS_12DenseMapInfoIS3_EENS6_IS5_EEE4growEj
__ZN4llvm12MCSymbolDataC1ERKNS_8MCSymbolEPNS_10MCFragmentEyPNS_11MCAssemblerE
__ZN4llvm12MCSymbolDataC2ERKNS_8MCSymbolEPNS_10MCFragmentEyPNS_11MCAssemblerE
__ZNK4llvm10AsmPrinter13EmitAlignmentEjPKNS_11GlobalValueE
__ZN12_GLOBAL__N_115MCMachOStreamer17EmitCodeAlignmentEjj
__ZN4llvm10MCFragmentC2ENS0_12FragmentTypeEPNS_13MCSectionDataE
__ZN4llvm10AsmPrinter22EmitFunctionEntryLabelEv
__ZN12_GLOBAL__N_115MCMachOStreamer9EmitLabelEPN4llvm8MCSymbolE
__ZNK4llvm11MCAssembler21isSymbolLinkerVisibleERKNS_8MCSymbolE
__ZN4llvm16MCObjectStreamer9EmitLabelEPNS_8MCSymbolE
__ZN4llvm10MCStreamer9EmitLabelEPNS_8MCSymbolE
__ZN4llvm17MachineModuleInfo29takeDeletedSymbolsForFunctionEPKNS_8FunctionERSt6vectorIPNS_8MCSymbolESaIS6_EE
__ZN4llvm17DwarfCFIException13BeginFunctionEPKNS_15MachineFunctionE
__ZN4llvm10AsmPrinter13needsCFIMovesEv
__ZNK4llvm17MachineModuleInfo19getPersonalityIndexEv
__ZN4llvm10MCStreamer16EmitCFIStartProcEv
__ZNK12_GLOBAL__N_122DarwinX86_64AsmBackend25doesSectionRequireSymbolsERKN4llvm9MCSectionE
__ZNSt6vectorIN4llvm16MCDwarfFrameInfoESaIS1_EE13_M_insert_auxEN9__gnu_cxx17__normal_iteratorIPS1_S3_EERKS1_
__ZSt24__uninitialized_copy_auxIPN4llvm16MCDwarfFrameInfoES2_ET0_T_S4_S3_St12__false_type
__ZN9__gnu_cxx13new_allocatorIN4llvm16MCDwarfFrameInfoEE9constructEPS2_RKS2_
__ZN4llvm10DwarfDebug13beginFunctionEPKNS_15MachineFunctionE
__ZN4llvm10AsmPrinter16EmitFunctionBodyEv
__ZN4llvm10AsmPrinter21EmitFunctionBodyStartEv
__ZNK4llvm10AsmPrinter19EmitBasicBlockStartEPKNS_17MachineBasicBlockE
__ZN4llvm13X86AsmPrinter15EmitInstructionEPKNS_12MachineInstrE
__ZN4llvm10MCStreamer14EmitCodeRegionEv
__ZNK4llvm14X86MCInstLower5LowerEPKNS_12MachineInstrERNS_6MCInstE
__ZN4llvm16MCObjectStreamer15EmitInstructionERKNS_6MCInstE
__ZN4llvm11MCLineEntry4MakeEPNS_10MCStreamerEPKNS_9MCSectionE
__ZNK12_GLOBAL__N_113X86AsmBackend17MayNeedRelaxationERKN4llvm6MCInstE
__ZL21getRelaxedOpcodeArithj
__ZN12_GLOBAL__N_115MCMachOStreamer14EmitInstToDataERKN4llvm6MCInstE
__ZNK4llvm16MCObjectStreamer23getOrCreateDataFragmentEv
__ZNK12_GLOBAL__N_116X86MCCodeEmitter17EncodeInstructionERKN4llvm6MCInstERNS1_11raw_ostreamERNS1_15SmallVectorImplINS1_7MCFixupEEE
__ZNK12_GLOBAL__N_116X86MCCodeEmitter25EmitSegmentOverridePrefixEyRjiRKN4llvm6MCInstERNS2_11raw_ostreamE
__ZN4llvm6X86_MC12getX86RegNumEj
__ZN4llvm10AsmPrinter15emitPrologLabelERKNS_12MachineInstrE
__ZN4llvm10MCStreamer25EmitCompactUnwindEncodingEj
__ZNK4llvm10AsmPrinter16EmitCFIFrameMoveERKNS_11MachineMoveE
__ZN4llvm10MCStreamer19EmitCFIDefCfaOffsetEx
__ZNSt6vectorIN4llvm16MCCFIInstructionESaIS1_EE13_M_insert_auxEN9__gnu_cxx17__normal_iteratorIPS1_S3_EERKS1_
__ZNK4llvm14MCRegisterInfo14getDwarfRegNumEjb
__ZN4llvm10MCStreamer13EmitCFIOffsetExx
__ZN4llvm10MCStreamer21EmitCFIDefCfaRegisterEx
__ZNK12_GLOBAL__N_116X86MCCodeEmitter13EmitImmediateERKN4llvm9MCOperandEjNS1_11MCFixupKindERjRNS1_11raw_ostreamERNS1_15SmallVectorImplINS1_7MCFixupEEEi
__ZNK12_GLOBAL__N_116X86MCCodeEmitter16EmitMemModRMByteERKN4llvm6MCInstEjjyRjRNS1_11raw_ostreamERNS1_15SmallVectorImplINS1_7MCFixupEEE
__ZL21SimplifyShortMoveFormRN4llvm13X86AsmPrinterERNS_6MCInstEj
__ZN4llvm10AsmPrinter19EmitFunctionBodyEndEv
__ZN4llvm10DwarfDebug11endFunctionEPKNS_15MachineFunctionE
__ZN4llvm17DwarfCFIException11EndFunctionEv
__ZN4llvm10MCStreamer14EmitCFIEndProcEv
__ZNK4llvm10AsmPrinter17getFunctionNumberEv
__ZNK4llvm10AsmPrinter13GetTempSymbolENS_9StringRefEj
__ZN4llvm9MCContext17GetOrCreateSymbolERKNS_5TwineE
__ZN4llvm17MachineModuleInfo15TidyLandingPadsEPNS_8DenseMapIPNS_8MCSymbolEmNS_12DenseMapInfoIS3_EENS4_ImEEEE
__ZN4llvm17MachineModuleInfo11EndFunctionEv
__ZN4llvm8DenseMapIPNS_8MCSymbolEjNS_12DenseMapInfoIS2_EENS3_IjEEE5clearEv
__ZN4llvm10AsmPrinter17EmitJumpTableInfoEv
__ZN4llvm10MCStreamer12AddBlankLineEv
__ZN4llvm23MachineFunctionAnalysis13releaseMemoryEv
__ZN4llvm15MachineFunctionD1Ev
__ZN4llvm15MachineFunctionD2Ev
__ZN4llvm6iplistINS_17MachineBasicBlockENS_12ilist_traitsIS1_EEE5clearEv
__ZN4llvm12ilist_traitsINS_17MachineBasicBlockEE18removeNodeFromListEPS1_
__ZN4llvm17MachineBasicBlockD1Ev
__ZN4llvm17MachineBasicBlockD2Ev
__ZN4llvm19MachineRegisterInfoD1Ev
__ZN4llvm19MachineRegisterInfoD2Ev
__ZN4llvm22X86MachineFunctionInfoD1Ev
__ZN4llvm19MachineFunctionInfoD2Ev
__ZN4llvm19MachineConstantPoolD2Ev
__ZN4llvm19MallocSlabAllocator10DeallocateEPNS_7MemSlabE
__ZN12_GLOBAL__N_17Deleter13runOnFunctionERN4llvm8FunctionE
__ZN4llvm12FunctionPass14doFinalizationERNS_6ModuleE
__ZN4llvm10AsmPrinter14doFinalizationERNS_6ModuleE
__ZN4llvm10AsmPrinter18EmitGlobalVariableEPKNS_14GlobalVariableE
__ZN4llvm10AsmPrinter21EmitSpecialLLVMGlobalEPKNS_14GlobalVariableE
__ZNK4llvm8Constant17getRelocationInfoEv
__ZNK4llvm10TargetData24getPreferredAlignmentLogEPKNS_14GlobalVariableE
__ZNK4llvm10TargetData21getPreferredAlignmentEPKNS_14GlobalVariableE
__ZNK4llvm29TargetLoweringObjectFileMachO24getExplicitSectionGlobalEPKNS_11GlobalValueENS_11SectionKindEPNS_7ManglerERKNS_13TargetMachineE
__ZN4llvm14MCSectionMachO21ParseSectionSpecifierENS_9StringRefERS1_S2_RjRbS3_
__ZL11StripSpacesRN4llvm9StringRefE
__ZN4llvm10AsmPrinter18EmitGlobalConstantEPKNS_8ConstantEj
__ZL22EmitGlobalConstantImplPKN4llvm8ConstantEjRNS_10AsmPrinterE
__ZNK4llvm13ConstantArray8isStringEv
__ZN12_GLOBAL__N_115MCMachOStreamer9EmitBytesEN4llvm9StringRefEj
__ZN12_GLOBAL__N_115MCMachOStreamer20EmitValueToAlignmentEjxjj
__ZN4llvm10MCStreamer12EmitIntValueEyjj
__ZN4llvm10MCStreamer8EmitFillEyhj
__ZN4llvm14MCConstantExpr6CreateExRNS_9MCContextE
__ZL22isRepeatedByteSequencePKN4llvm5ValueERNS_13TargetMachineE
__ZL13LowerConstantPKN4llvm8ConstantERNS_10AsmPrinterE
__ZNK4llvm10TargetData16getIndexedOffsetEPNS_4TypeENS_8ArrayRefIPNS_5ValueEEE
__ZN4llvm15MCSymbolRefExpr6CreateEPKNS_8MCSymbolENS0_11VariantKindERNS_9MCContextE
__ZN4llvm10MCStreamer9EmitValueEPKNS_6MCExprEjj
__ZN4llvm16MCObjectStreamer13EmitValueImplEPKNS_6MCExprEjj
__ZN4llvm16MCObjectStreamer15AddValueSymbolsEPKNS_6MCExprE
__ZNK4llvm6MCExpr18EvaluateAsAbsoluteERxRKNS_11MCAssemblerE
__ZNK4llvm6MCExpr25EvaluateAsRelocatableImplERNS_7MCValueEPKNS_11MCAssemblerEPKNS_11MCAsmLayoutEPKNS_8DenseMapIPKNS_13MCSectionDataEyNS_12DenseMapInfoISC_EENSD_IyEEEEb
__ZNSt6vectorIN4llvm7MCFixupESaIS1_EE13_M_insert_auxEN9__gnu_cxx17__normal_iteratorIPS1_S3_EERKS1_
__ZN4llvm10AsmPrinter16EmitLLVMUsedListEPKNS_8ConstantE
__ZNK4llvm29TargetLoweringObjectFileMachO26shouldEmitUsedDirectiveForEPKNS_11GlobalValueEPNS_7ManglerE
__ZN4llvm17DwarfCFIException9EndModuleEv
__ZN4llvm17DwarfCFIExceptionD0Ev
__ZN4llvm14DwarfExceptionD2Ev
__ZN4llvm10DwarfDebug9endModuleEv
__ZN4llvm10DwarfDebugD1Ev
__ZN4llvm10DwarfDebugD2Ev
__ZN4llvm13LexicalScopesD1Ev
__ZN4llvm13LexicalScopesD2Ev
__ZN4llvm22DeleteContainerSecondsINS_8DenseMapIPKNS_6MDNodeEPNS_12LexicalScopeENS_12DenseMapInfoIS4_EENS7_IS6_EEEEEEvRT_
__ZN4llvm8DenseMapIPKNS_6MDNodeEPNS_12LexicalScopeENS_12DenseMapInfoIS3_EENS6_IS5_EEE5clearEv
__ZN4llvm8DenseMapINS_8DebugLocEPNS_12LexicalScopeENS_12DenseMapInfoIS1_EENS4_IS3_EEE5clearEv
__ZN4llvm8DenseMapINS_8DebugLocEPNS_12LexicalScopeENS_12DenseMapInfoIS1_EENS4_IS3_EEED2Ev
__ZN4llvm12DenseMapInfoINS_8DebugLocEE11getEmptyKeyEv
__ZN4llvm12DenseMapInfoINS_8DebugLocEE15getTombstoneKeyEv
__ZNSt8_Rb_treeIPKN4llvm9MCSectionESt4pairIKS3_jESt10_Select1stIS6_ESt4lessIS3_ESaIS6_EE8_M_eraseEPSt13_Rb_tree_nodeIS6_E
__ZNSt8_Rb_treeISt4pairISsSsES0_IKS1_jESt10_Select1stIS3_ESt4lessIS1_ESaIS3_EE8_M_eraseEPSt13_Rb_tree_nodeIS3_E
__ZN4llvm14FoldingSetImplD2Ev
__ZNK4llvm6Module11getFunctionENS_9StringRefE
__ZNK4llvm9MCAsmInfo28getNonexecutableStackSectionERNS_9MCContextE
__ZN4llvm13X86AsmPrinter16EmitEndOfAsmFileERNS_6ModuleE
__ZN4llvm21MachineModuleInfoImpl14GetSortedStubsERKNS_8DenseMapIPNS_8MCSymbolENS_14PointerIntPairIS3_Lj1EbNS_21PointerLikeTypeTraitsIS3_EEEENS_12DenseMapInfoIS3_EENS8_IS7_EEEE
__ZNSt6vectorISt4pairIPN4llvm8MCSymbolENS1_14PointerIntPairIS3_Lj1EbNS1_21PointerLikeTypeTraitsIS3_EEEEESaIS8_EEaSERKSA_
__ZN12_GLOBAL__N_115MCMachOStreamer17EmitAssemblerFlagEN4llvm15MCAssemblerFlagE
__ZN4llvm12MCAsmBackend19HandleAssemblerFlagENS_15MCAssemblerFlagE
__ZNK4llvm12X86Subtarget11isTargetELFEv
__ZN12_GLOBAL__N_115MCMachOStreamer6FinishEv
__ZN4llvm10MCStreamer10EmitFramesEb
__ZN4llvm19MCDwarfFrameEmitter4EmitERNS_10MCStreamerEbb
__ZN4llvm16MCObjectFileInfo18InitEHFrameSectionEv
__ZNK4llvm8DenseMapIN12_GLOBAL__N_16CIEKeyEPKNS_8MCSymbolENS_12DenseMapInfoIS2_EENS6_IS5_EEE15LookupBucketForERKS2_RPSt4pairIS2_S5_E
__ZN4llvm8DenseMapIN12_GLOBAL__N_16CIEKeyEPKNS_8MCSymbolENS_12DenseMapInfoIS2_EENS6_IS5_EEE4growEj
__ZN4llvm12MCBinaryExpr6CreateENS0_6OpcodeEPKNS_6MCExprES4_RNS_9MCContextE
__ZN4llvm10MCStreamer12EmitAbsValueEPKNS_6MCExprEjj
__ZN12_GLOBAL__N_115MCMachOStreamer14EmitAssignmentEPN4llvm8MCSymbolEPKNS1_6MCExprE
__ZN4llvm8MCSymbol16setVariableValueEPKNS_6MCExprE
__ZNK4llvm6MCExpr21FindAssociatedSectionEv
__ZL19EvaluateSymbolicAddPKN4llvm11MCAssemblerEPKNS_11MCAsmLayoutEPKNS_8DenseMapIPKNS_13MCSectionDataEyNS_12DenseMapInfoIS9_EENSA_IyEEEEbRKNS_7MCValueEPKNS_15MCSymbolRefExprESL_xRSG_
__ZL35AttemptToFoldSymbolOffsetDifferencePKN4llvm11MCAssemblerEPKNS_11MCAsmLayoutEPKNS_8DenseMapIPKNS_13MCSectionDataEyNS_12DenseMapInfoIS9_EENSA_IyEEEEbRPKNS_15MCSymbolRefExprESJ_Rx
__ZN4llvm10MCStreamer19EmitULEB128IntValueEyjj
__ZN4llvm14MCObjectWriter13EncodeULEB128EyRNS_11raw_ostreamEj
__ZN4llvm10MCStreamer19EmitSLEB128IntValueExj
__ZN4llvm14MCObjectWriter13EncodeSLEB128ExRNS_11raw_ostreamE
__ZL16EmitEncodingByteRN4llvm10MCStreamerEjNS_9StringRefE
__ZN12_GLOBAL__N_116FrameEmitterImpl19EmitCFIInstructionsERN4llvm10MCStreamerERKSt6vectorINS1_16MCCFIInstructionESaIS5_EEPNS1_8MCSymbolE
__ZN12_GLOBAL__N_115MCMachOStreamer19EmitEHSymAttributesEPKN4llvm8MCSymbolEPS2_
__ZNK4llvm14MCObjectWriter34IsSymbolRefDifferenceFullyResolvedERKNS_11MCAssemblerEPKNS_15MCSymbolRefExprES6_b
__ZNK4llvm8MCSymbol13AliasedSymbolEv
__ZNK4llvm16MachObjectWriter38IsSymbolRefDifferenceFullyResolvedImplERKNS_11MCAssemblerERKNS_12MCSymbolDataERKNS_10MCFragmentEbb
__ZL10EmitSymbolRN4llvm10MCStreamerERKNS_8MCSymbolEjPKc
__ZNK4llvm9MCAsmInfo19getExprForFDESymbolEPKNS_8MCSymbolEjRNS_10MCStreamerE
__ZN4llvm16MCObjectStreamer25EmitDwarfAdvanceFrameAddrEPKNS_8MCSymbolES3_
__ZN4llvm10MCStreamer15BuildSymbolDiffERNS_9MCContextEPKNS_8MCSymbolES5_
__ZN4llvm10MCStreamer11ForceExpAbsEPKNS_6MCExprE
__ZN4llvm8DenseMapIPKNS_10MCFragmentEPNS_12MCSymbolDataENS_12DenseMapInfoIS3_EENS6_IS5_EEE16InsertIntoBucketERKS3_RKS5_PSt4pairIS3_S5_E
__ZN4llvm8DenseMapIPKNS_10MCFragmentEPNS_12MCSymbolDataENS_12DenseMapInfoIS3_EENS6_IS5_EEE4growEj
__ZN4llvm16MCObjectStreamer6FinishEv
__ZN4llvm11MCAssembler6FinishEv
__ZN4llvm11MCAsmLayoutC2ERNS_11MCAssemblerE
__ZNK4llvm14MCSectionMachO16isVirtualSectionEv
__ZN4llvm11MCAssembler10LayoutOnceERNS_11MCAsmLayoutE
__ZN4llvm11MCAssembler17LayoutSectionOnceERNS_11MCAsmLayoutERNS_13MCSectionDataE
__ZN4llvm11MCAssembler27RelaxDwarfCallFrameFragmentERNS_11MCAsmLayoutERNS_24MCDwarfCallFrameFragmentE
__ZNK4llvm6MCExpr18EvaluateAsAbsoluteERxRKNS_11MCAsmLayoutE
__ZN4llvm19MCDwarfFrameEmitter16EncodeAdvanceLocEyRNS_11raw_ostreamE
__ZN4llvm11MCAsmLayout10InvalidateEPNS_10MCFragmentE
__ZN4llvm11MCAssembler12FinishLayoutERNS_11MCAsmLayoutE
__ZNK4llvm11MCAsmLayout11EnsureValidEPKNS_10MCFragmentE
__ZN4llvm8DenseMapIPKNS_13MCSectionDataEPNS_10MCFragmentENS_12DenseMapInfoIS3_EENS6_IS5_EEE16InsertIntoBucketERKS3_RKS5_PSt4pairIS3_S5_E
__ZN4llvm8DenseMapIPKNS_13MCSectionDataEPNS_10MCFragmentENS_12DenseMapInfoIS3_EENS6_IS5_EEE4growEj
__ZN4llvm11MCAsmLayout14LayoutFragmentEPNS_10MCFragmentE
__ZNK4llvm11MCAssembler19ComputeFragmentSizeERKNS_11MCAsmLayoutERKNS_10MCFragmentE
__ZNK4llvm21formatted_raw_ostream11current_posEv
__ZNK4llvm14raw_fd_ostream11current_posEv
__ZN4llvm16MachObjectWriter24ExecutePostLayoutBindingERNS_11MCAssemblerERKNS_11MCAsmLayoutE
__ZN4llvm16MachObjectWriter23computeSectionAddressesERKNS_11MCAssemblerERKNS_11MCAsmLayoutE
__ZN4llvm8DenseMapIPKNS_13MCSectionDataEyNS_12DenseMapInfoIS3_EENS4_IyEEE16InsertIntoBucketERKS3_RKyPSt4pairIS3_yE
__ZN4llvm8DenseMapIPKNS_13MCSectionDataEyNS_12DenseMapInfoIS3_EENS4_IyEEE4growEj
__ZNK4llvm11MCAsmLayout21getSectionAddressSizeEPKNS_13MCSectionDataE
__ZNK4llvm16MachObjectWriter14getPaddingSizeEPKNS_13MCSectionDataERKNS_11MCAsmLayoutE
__ZN4llvm16MachObjectWriter19BindIndirectSymbolsERNS_11MCAssemblerE
__ZN4llvm16MachObjectWriter18ComputeSymbolTableERNS_11MCAssemblerERNS_11SmallStringILj256EEERSt6vectorINS0_14MachSymbolDataESaIS7_EESA_SA_
__ZN4llvm8DenseMapIPKNS_9MCSectionEhNS_12DenseMapInfoIS3_EENS4_IhEEE16InsertIntoBucketERKS3_RKhPSt4pairIS3_hE
__ZN4llvm8DenseMapIPKNS_9MCSectionEhNS_12DenseMapInfoIS3_EENS4_IhEEE4growEj
__ZN4llvm9StringMapIyNS_15MallocAllocatorEE16GetOrCreateValueIyEERNS_14StringMapEntryIyEENS_9StringRefET_
__ZNSt6vectorIN4llvm16MachObjectWriter14MachSymbolDataESaIS2_EE13_M_insert_auxEN9__gnu_cxx17__normal_iteratorIPS2_S4_EERKS2_
__ZSt16__introsort_loopIN9__gnu_cxx17__normal_iteratorIPN4llvm16MachObjectWriter14MachSymbolDataESt6vectorIS4_SaIS4_EEEElEvT_SA_T0_
__ZSt22__final_insertion_sortIN9__gnu_cxx17__normal_iteratorIPN4llvm16MachObjectWriter14MachSymbolDataESt6vectorIS4_SaIS4_EEEEEvT_SA_
__ZSt16__insertion_sortIN9__gnu_cxx17__normal_iteratorIPN4llvm16MachObjectWriter14MachSymbolDataESt6vectorIS4_SaIS4_EEEEEvT_SA_
__ZNK4llvm11MCAssembler13EvaluateFixupERKNS_11MCAsmLayoutERKNS_7MCFixupEPKNS_10MCFragmentERNS_7MCValueERy
__ZNK4llvm6MCExpr21EvaluateAsRelocatableERNS_7MCValueERKNS_11MCAsmLayoutE
__ZNK12_GLOBAL__N_113X86AsmBackend16getFixupKindInfoEN4llvm11MCFixupKindE
__ZNK4llvm12MCAsmBackend16getFixupKindInfoENS_11MCFixupKindE
__ZNK4llvm11MCAsmLayout15getSymbolOffsetEPKNS_12MCSymbolDataE
__ZN4llvm16MachObjectWriter16RecordRelocationERKNS_11MCAssemblerERKNS_11MCAsmLayoutEPKNS_10MCFragmentERKNS_7MCFixupENS_7MCValueERy
__ZN12_GLOBAL__N_119X86MachObjectWriter16RecordRelocationEPN4llvm16MachObjectWriterERKNS1_11MCAssemblerERKNS1_11MCAsmLayoutEPKNS1_10MCFragmentERKNS1_7MCFixupENS1_7MCValueERy
__ZN4llvm16MachObjectWriter16isFixupKindPCRelERKNS_11MCAssemblerEj
__ZNK4llvm11MCAsmLayout17getFragmentOffsetEPKNS_10MCFragmentE
__ZNK4llvm16MachObjectWriter18getFragmentAddressEPKNS_10MCFragmentERKNS_11MCAsmLayoutE
__ZNK4llvm11MCAssembler7getAtomEPKNS_12MCSymbolDataE
__ZN4llvm8DenseMapIPKNS_13MCSectionDataESt6vectorINS_6object5macho15RelocationEntryESaIS7_EENS_12DenseMapInfoIS3_EENSA_IS9_EEE16FindAndConstructERKS3_
__ZN4llvm8DenseMapIPKNS_13MCSectionDataESt6vectorINS_6object5macho15RelocationEntryESaIS7_EENS_12DenseMapInfoIS3_EENSA_IS9_EEE16InsertIntoBucketERKS3_RKS9_PSt4pairIS3_S9_E
__ZN4llvm8DenseMapIPKNS_13MCSectionDataESt6vectorINS_6object5macho15RelocationEntryESaIS7_EENS_12DenseMapInfoIS3_EENSA_IS9_EEE4growEj
__ZNSt6vectorIN4llvm6object5macho15RelocationEntryESaIS3_EEC2ERKS5_
__ZNSt6vectorIN4llvm6object5macho15RelocationEntryESaIS3_EE13_M_insert_auxEN9__gnu_cxx17__normal_iteratorIPS3_S5_EERKS3_
__ZNK12_GLOBAL__N_113X86AsmBackend10ApplyFixupERKN4llvm7MCFixupEPcjy
__ZNK4llvm6MCExpr18EvaluateAsAbsoluteERxRKNS_11MCAsmLayoutERKNS_8DenseMapIPKNS_13MCSectionDataEyNS_12DenseMapInfoIS8_EENS9_IyEEEE
__ZN4llvm16MachObjectWriter11WriteObjectERNS_11MCAssemblerERKNS_11MCAsmLayoutE
__ZNK4llvm11MCAsmLayout18getSectionFileSizeEPKNS_13MCSectionDataE
__ZN4llvm16MachObjectWriter11WriteHeaderEjjb
__ZN4llvm14MCObjectWriter9WriteLE32Ej
__ZN4llvm16MachObjectWriter23WriteSegmentLoadCommandEjyyy
__ZN4llvm14MCObjectWriter10WriteZerosEj
__ZN4llvm16MachObjectWriter12WriteSectionERKNS_11MCAssemblerERKNS_11MCAsmLayoutERKNS_13MCSectionDataEyyj
__ZN4llvm16MachObjectWriter22WriteSymtabLoadCommandEjjjj
__ZN4llvm16MachObjectWriter24WriteDysymtabLoadCommandEjjjjjjjj
__ZNK4llvm11MCAssembler16WriteSectionDataEPKNS_13MCSectionDataERKNS_11MCAsmLayoutE
__ZNK12_GLOBAL__N_113X86AsmBackend12WriteNopDataEyPN4llvm14MCObjectWriterE
__ZN4llvm16MachObjectWriter10WriteNlistERNS0_14MachSymbolDataERKNS_11MCAsmLayoutE
__ZNK4llvm16MachObjectWriter16getSymbolAddressEPKNS_12MCSymbolDataERKNS_11MCAsmLayoutE
__ZN4llvm14MCObjectWriter7Write16Et
__ZN12_GLOBAL__N_17Deleter14doFinalizationERN4llvm6ModuleE
__ZN4llvm12GCModuleInfo5clearEv
__ZN4llvm8DenseMapIPKNS_8FunctionEPNS_14GCFunctionInfoENS_12DenseMapInfoIS3_EENS6_IS5_EEE5clearEv
__ZN4llvm21formatted_raw_ostream10write_implEPKcm
__ZN4llvm11raw_ostreamD2Ev
__ZN4llvm11PassManagerD0Ev
__ZN4llvm15PassManagerImplD0Ev
__ZN4llvm17PMTopLevelManagerD2Ev
__ZThn32_N4llvm13MPPassManagerD0Ev
__ZN4llvm13MPPassManagerD2Ev
__ZNSt8_Rb_treeIPN4llvm4PassESt4pairIKS2_PNS0_23FunctionPassManagerImplEESt10_Select1stIS7_ESt4lessIS2_ESaIS7_EE8_M_eraseEPSt13_Rb_tree_nodeIS7_E
__ZN4llvm13PMDataManagerD2Ev
__ZN4llvm13FPPassManagerD0Ev
__ZN12_GLOBAL__N_115LowerIntrinsicsD0Ev
__ZN4llvm4PassD2Ev
__ZN12_GLOBAL__N_120UnreachableBlockElimD0Ev
__ZN12_GLOBAL__N_114DwarfEHPrepareD0Ev
__ZN12_GLOBAL__N_114StackProtectorD0Ev
__ZN4llvm23MachineFunctionAnalysisD0Ev
__ZN12_GLOBAL__N_115X86DAGToDAGISelD0Ev
__ZN4llvm16SelectionDAGISelD2Ev
__ZN4llvm19SelectionDAGBuilderD2Ev
__ZNSt6vectorIN4llvm19SelectionDAGBuilder12BitTestBlockESaIS2_EED2Ev
__ZNSt6vectorISt4pairIN4llvm19SelectionDAGBuilder15JumpTableHeaderENS2_9JumpTableEESaIS5_EED2Ev
__ZN4llvm12SelectionDAGD1Ev
__ZN4llvm12SelectionDAGD2Ev
__ZN4llvm20FunctionLoweringInfoD2Ev
__ZNSt6vectorIN4llvm20FunctionLoweringInfo11LiveOutInfoESaIS2_EED2Ev
__ZN12_GLOBAL__N_117ExpandISelPseudosD0Ev
__ZN12_GLOBAL__N_118LocalStackSlotPassD0Ev
__ZN12_GLOBAL__N_14MSAHD0Ev
__ZN12_GLOBAL__N_114PHIEliminationD0Ev
__ZN12_GLOBAL__N_125TwoAddressInstructionPassD0Ev
__ZN12_GLOBAL__N_16RAFastD0Ev
__ZN12_GLOBAL__N_16RAFastD1Ev
__ZN4llvm11EdgeBundlesD0Ev
__ZN12_GLOBAL__N_13FPSD0Ev
__ZN12_GLOBAL__N_112ExpandPostRAD0Ev
__ZN4llvm3PEID0Ev
__ZN4llvm3PEID2Ev
__ZN4llvm6iplistINS_22SparseBitVectorElementILj128EEENS_12ilist_traitsIS2_EEED2Ev
__ZN12_GLOBAL__N_119MachineCodeAnalysisD0Ev
__ZN4llvm13X86AsmPrinterD0Ev
__ZN4llvm10AsmPrinterD2Ev
__ZN12_GLOBAL__N_115MCMachOStreamerD0Ev
__ZN4llvm16MCObjectStreamerD2Ev
__ZN12_GLOBAL__N_122DarwinX86_64AsmBackendD0Ev
__ZN4llvm12MCAsmBackendD2Ev
__ZN12_GLOBAL__N_116X86MCCodeEmitterD0Ev
__ZN4llvm13MCCodeEmitterD2Ev
__ZN4llvm16MachObjectWriterD0Ev
__ZN4llvm16MachObjectWriterD2Ev
__ZN12_GLOBAL__N_119X86MachObjectWriterD0Ev
__ZN4llvm24MCMachObjectTargetWriterD2Ev
__ZN4llvm14MCObjectWriterD2Ev
__ZN4llvm11MCAssemblerD1Ev
__ZN4llvm11MCAssemblerD2Ev
__ZN4llvm6iplistINS_12MCSymbolDataENS_12ilist_traitsIS1_EEED2Ev
__ZN4llvm6iplistINS_13MCSectionDataENS_12ilist_traitsIS1_EEED2Ev
__ZN4llvm6iplistINS_10MCFragmentENS_12ilist_traitsIS1_EEED2Ev
__ZN4llvm15MCAlignFragmentD0Ev
__ZN4llvm10MCFragmentD2Ev
__ZN4llvm14MCDataFragmentD0Ev
__ZN4llvm10MCFragmentD0Ev
__ZN4llvm24MCDwarfCallFrameFragmentD0Ev
__ZN4llvm10MCStreamerD2Ev
__ZN12_GLOBAL__N_17DeleterD0Ev
__ZN4llvm10ModulePassD2Ev
__ZN4llvm10TargetDataD0Ev
__ZN12_GLOBAL__N_14NoAAD0Ev
__ZN4llvm13AliasAnalysisD2Ev
__ZN12_GLOBAL__N_122TypeBasedAliasAnalysisD0Ev
__ZN12_GLOBAL__N_118BasicAliasAnalysisD0Ev
__ZN4llvm12GCModuleInfoD0Ev
__ZN4llvm12GCModuleInfoD2Ev
__ZN4llvm17MachineModuleInfoD0Ev
__ZN4llvm17MachineModuleInfoD2Ev
__ZN4llvm22MachineModuleInfoMachOD0Ev
__ZN4llvm21MachineModuleInfoImplD2Ev
__ZNSt6vectorIN4llvm14LandingPadInfoESaIS1_EED2Ev
__ZN4llvm9MCContextD1Ev
__ZN4llvm9MCContextD2Ev
__ZN12_GLOBAL__N_114BasicCallGraphD0Ev
__ZN12_GLOBAL__N_113CGPassManagerD0Ev
__ZN12_GLOBAL__N_113AlwaysInlinerD0Ev
__ZN4llvm18ValueMapCallbackVHIPKNS_8FunctionENS_18InlineCostAnalyzer12FunctionInfoENS_14ValueMapConfigIS3_EENS_12DenseMapInfoIS5_EEE19allUsesReplacedWithEPNS_5ValueE
__ZN4llvm18ValueMapCallbackVHIPKNS_8FunctionENS_18InlineCostAnalyzer12FunctionInfoENS_14ValueMapConfigIS3_EENS_12DenseMapInfoIS5_EEE7deletedEv
__ZN4llvm18ValueMapCallbackVHIPKNS_8FunctionENS_18InlineCostAnalyzer12FunctionInfoENS_14ValueMapConfigIS3_EENS_12DenseMapInfoIS5_EEED0Ev
__ZN4llvm18ValueMapCallbackVHIPKNS_8FunctionENS_18InlineCostAnalyzer12FunctionInfoENS_14ValueMapConfigIS3_EENS_12DenseMapInfoIS5_EEED1Ev
__ZN4llvm19FunctionPassManagerD0Ev
__ZN4llvm23FunctionPassManagerImplD0Ev
__ZThn32_N4llvm13FPPassManagerD0Ev
__ZN4llvm5TimerD1Ev
__ZN4llvm10TimerGroup11removeTimerERNS_5TimerE
__ZN5clang6ParserD0Ev
__ZN5clang6ParserD2Ev
__ZN5clang6Parser26clearLateParsedObjCMethodsEv
__ZN5clang12Preprocessor19RemovePragmaHandlerEN4llvm9StringRefEPNS_13PragmaHandlerE
__ZN5clang15PragmaNamespace19RemovePragmaHandlerEPNS_13PragmaHandlerE
__ZN4llvm13StringMapImpl9RemoveKeyEPNS_18StringMapEntryBaseE
__ZN5clang18PragmaAlignHandlerD0Ev
__ZN5clang13PragmaHandlerD2Ev
__ZN5clang26PragmaGCCVisibilityHandlerD0Ev
__ZN5clang20PragmaOptionsHandlerD0Ev
__ZN5clang17PragmaPackHandlerD0Ev
__ZN5clang21PragmaMSStructHandlerD0Ev
__ZN5clang19PragmaUnusedHandlerD0Ev
__ZN5clang17PragmaWeakHandlerD0Ev
__ZN5clang23PragmaFPContractHandlerD0Ev
__ZN5clang16AttributeFactoryD1Ev
__ZN5clang21CodeCompletionHandlerD2Ev
__ZN5clang14FrontendAction13EndSourceFileEv
__ZN5clang21TextDiagnosticPrinter13EndSourceFileEv
__ZN5clang13CodeGenAction19EndSourceFileActionEv
__ZN5clang12Preprocessor13EndSourceFileEv
__ZN5clang16CompilerInstance16clearOutputFilesEb
__ZN4llvm14raw_fd_ostreamD0Ev
__ZNSt10_List_baseIN5clang16CompilerInstance10OutputFileESaIS2_EE8_M_clearEv
__ZN5clang18DiagnosticConsumer6finishEv
__ZN4llvm10TimerGroup5printERNS_11raw_ostreamE
__ZN4llvm26remove_fatal_error_handlerEv
__ZN4llvm20AreStatisticsEnabledEv
__ZN5clang20TextDiagnosticBufferD0Ev
__ZN5clang20TextDiagnosticBufferD2Ev
__ZN4llvm2cl3optINS_6Region10PrintStyleELb0ENS0_6parserIS3_EEED1Ev
__ZN4llvm2cl3optIdLb0ENS0_6parserIdEEED1Ev
__ZN4llvm26createFunctionInliningPassEi
__ZN4llvm27initializeSimpleInlinerPassERNS_12PassRegistryE
__ZN4llvm27createCFGSimplificationPassEv
__ZN4llvm29initializeCFGSimplifyPassPassERNS_12PassRegistryE
__ZN4llvm30createScalarReplAggregatesPassEib
__ZN4llvm21initializeSROA_DTPassERNS_12PassRegistryE
__ZNK12_GLOBAL__N_17SROA_DT16getAnalysisUsageERN4llvm13AnalysisUsageE
__ZN4llvm15callDefaultCtorINS_13DominatorTreeEEEPNS_4PassEv
__ZNK4llvm13DominatorTree16getAnalysisUsageERNS_13AnalysisUsageE
__ZN4llvm18createEarlyCSEPassEv
__ZN4llvm22initializeEarlyCSEPassERNS_12PassRegistryE
__ZNK12_GLOBAL__N_18EarlyCSE16getAnalysisUsageERN4llvm13AnalysisUsageE
__ZN4llvm30createLowerExpectIntrinsicPassEv
__ZN4llvm34initializeLowerExpectIntrinsicPassERNS_12PassRegistryE
__ZN4llvm25createGlobalOptimizerPassEv
__ZN4llvm23initializeGlobalOptPassERNS_12PassRegistryE
__ZNK12_GLOBAL__N_19GlobalOpt16getAnalysisUsageERN4llvm13AnalysisUsageE
__ZN4llvm16createIPSCCPPassEv
__ZN4llvm20initializeIPSCCPPassERNS_12PassRegistryE
__ZN4llvm28createDeadArgEliminationPassEv
__ZN4llvm17initializeDAEPassERNS_12PassRegistryE
__ZN4llvm30createInstructionCombiningPassEv
__ZN4llvm26initializeInstCombinerPassERNS_12PassRegistryE
__ZNK4llvm12InstCombiner16getAnalysisUsageERNS_13AnalysisUsageE
__ZN4llvm17createPruneEHPassEv
__ZN4llvm21initializePruneEHPassERNS_12PassRegistryE
__ZThn32_NK12_GLOBAL__N_113CGPassManager18getPassManagerTypeEv
__ZN4llvm23createFunctionAttrsPassEv
__ZN4llvm27initializeFunctionAttrsPassERNS_12PassRegistryE
__ZNK12_GLOBAL__N_113FunctionAttrs16getAnalysisUsageERN4llvm13AnalysisUsageE
__ZN4llvm24initializeSROA_SSAUpPassERNS_12PassRegistryE
__ZNK12_GLOBAL__N_110SROA_SSAUp16getAnalysisUsageERN4llvm13AnalysisUsageE
__ZN4llvm26createSimplifyLibCallsPassEv
__ZN4llvm30initializeSimplifyLibCallsPassERNS_12PassRegistryE
__ZNK12_GLOBAL__N_116SimplifyLibCalls16getAnalysisUsageERN4llvm13AnalysisUsageE
__ZN4llvm23createJumpThreadingPassEv
__ZN4llvm27initializeJumpThreadingPassERNS_12PassRegistryE
__ZN4llvm27initializeLazyValueInfoPassERNS_12PassRegistryE
__ZNK12_GLOBAL__N_113JumpThreading16getAnalysisUsageERN4llvm13AnalysisUsageE
__ZN4llvm15callDefaultCtorINS_13LazyValueInfoEEEPNS_4PassEv
__ZNK4llvm13LazyValueInfo16getAnalysisUsageERNS_13AnalysisUsageE
__ZN4llvm36createCorrelatedValuePropagationPassEv
__ZN4llvm40initializeCorrelatedValuePropagationPassERNS_12PassRegistryE
__ZNK12_GLOBAL__N_126CorrelatedValuePropagation16getAnalysisUsageERN4llvm13AnalysisUsageE
__ZN4llvm29createTailCallEliminationPassEv
__ZN4llvm26initializeTailCallElimPassERNS_12PassRegistryE
__ZN4llvm21createReassociatePassEv
__ZN4llvm25initializeReassociatePassERNS_12PassRegistryE
__ZNK12_GLOBAL__N_111Reassociate16getAnalysisUsageERN4llvm13AnalysisUsageE
__ZN4llvm20createLoopRotatePassEv
__ZN4llvm24initializeLoopRotatePassERNS_12PassRegistryE
__ZN4llvm26initializeLoopSimplifyPassERNS_12PassRegistryE
__ZN4llvm19initializeLCSSAPassERNS_12PassRegistryE
__ZN4llvm8LoopPass18preparePassManagerERNS_7PMStackE
__ZNK12_GLOBAL__N_110LoopRotate16getAnalysisUsageERN4llvm13AnalysisUsageE
__ZN4llvm15callDefaultCtorINS_8LoopInfoEEEPNS_4PassEv
__ZNK4llvm8LoopPass27getPotentialPassManagerTypeEv
__ZNK4llvm8LoopInfo16getAnalysisUsageERNS_13AnalysisUsageE
__ZN4llvm15callDefaultCtorIN12_GLOBAL__N_112LoopSimplifyEEEPNS_4PassEv
__ZNK12_GLOBAL__N_112LoopSimplify16getAnalysisUsageERN4llvm13AnalysisUsageE
__ZN4llvm8LoopPass17assignPassManagerERNS_7PMStackENS_15PassManagerTypeE
__ZNSt11_Deque_baseIPN4llvm4LoopESaIS2_EE17_M_initialize_mapEm
__ZN4llvm13LPPassManager9getAsPassEv
__ZNK4llvm13LPPassManager16getAnalysisUsageERNS_13AnalysisUsageE
__ZN4llvm13LPPassManager18getAsPMDataManagerEv
__ZThn32_N4llvm13LPPassManager9getAsPassEv
__ZN4llvm15callDefaultCtorIN12_GLOBAL__N_15LCSSAEEEPNS_4PassEv
__ZThn32_NK4llvm13LPPassManager18getPassManagerTypeEv
__ZN4llvm13PMDataManager27preserveHigherLevelAnalysisEPNS_4PassE
__ZNK12_GLOBAL__N_15LCSSA16getAnalysisUsageERN4llvm13AnalysisUsageE
__ZN4llvm14createLICMPassEv
__ZN4llvm18initializeLICMPassERNS_12PassRegistryE
__ZNK12_GLOBAL__N_14LICM16getAnalysisUsageERN4llvm13AnalysisUsageE
__ZN4llvm22createLoopUnswitchPassEb
__ZN4llvm26initializeLoopUnswitchPassERNS_12PassRegistryE
__ZNK12_GLOBAL__N_112LoopUnswitch16getAnalysisUsageERN4llvm13AnalysisUsageE
__ZN4llvm24createIndVarSimplifyPassEv
__ZN4llvm28initializeIndVarSimplifyPassERNS_12PassRegistryE
__ZN4llvm29initializeScalarEvolutionPassERNS_12PassRegistryE
__ZN4llvm21initializeIVUsersPassERNS_12PassRegistryE
__ZNK12_GLOBAL__N_114IndVarSimplify16getAnalysisUsageERN4llvm13AnalysisUsageE
__ZN4llvm15callDefaultCtorINS_15ScalarEvolutionEEEPNS_4PassEv
__ZN4llvm8DenseMapINS_15ScalarEvolution14SCEVCallbackVHEPKNS_4SCEVENS_12DenseMapInfoIPNS_5ValueEEENS6_IS5_EEE4initEj
__ZNK4llvm15ScalarEvolution16getAnalysisUsageERNS_13AnalysisUsageE
__ZN4llvm13AnalysisUsage23addRequiredTransitiveIDERc
__ZN4llvm19createLoopIdiomPassEv
__ZN4llvm32initializeLoopIdiomRecognizePassERNS_12PassRegistryE
__ZNK12_GLOBAL__N_118LoopIdiomRecognize16getAnalysisUsageERN4llvm13AnalysisUsageE
__ZN4llvm22createLoopDeletionPassEv
__ZN4llvm26initializeLoopDeletionPassERNS_12PassRegistryE
__ZNK12_GLOBAL__N_112LoopDeletion16getAnalysisUsageERN4llvm13AnalysisUsageE
__ZN4llvm20createLoopUnrollPassEiii
__ZN4llvm24initializeLoopUnrollPassERNS_12PassRegistryE
__ZNK12_GLOBAL__N_110LoopUnroll16getAnalysisUsageERN4llvm13AnalysisUsageE
__ZN4llvm13createGVNPassEb
__ZN4llvm17initializeGVNPassERNS_12PassRegistryE
__ZN4llvm38initializeMemoryDependenceAnalysisPassERNS_12PassRegistryE
__ZNK12_GLOBAL__N_13GVN16getAnalysisUsageERN4llvm13AnalysisUsageE
__ZN4llvm15callDefaultCtorINS_24MemoryDependenceAnalysisEEEPNS_4PassEv
__ZNK4llvm24MemoryDependenceAnalysis16getAnalysisUsageERNS_13AnalysisUsageE
__ZN4llvm19createMemCpyOptPassEv
__ZN4llvm23initializeMemCpyOptPassERNS_12PassRegistryE
__ZNK12_GLOBAL__N_19MemCpyOpt16getAnalysisUsageERN4llvm13AnalysisUsageE
__ZN4llvm14createSCCPPassEv
__ZN4llvm18initializeSCCPPassERNS_12PassRegistryE
__ZN4llvm30createDeadStoreEliminationPassEv
__ZN4llvm17initializeDSEPassERNS_12PassRegistryE
__ZNK12_GLOBAL__N_13DSE16getAnalysisUsageERN4llvm13AnalysisUsageE
__ZN4llvm23createAggressiveDCEPassEv
__ZN4llvm18initializeADCEPassERNS_12PassRegistryE
__ZNK12_GLOBAL__N_14ADCE16getAnalysisUsageERN4llvm13AnalysisUsageE
__ZN4llvm29createStripDeadPrototypesPassEv
__ZN4llvm37initializeStripDeadPrototypesPassPassERNS_12PassRegistryE
__ZN4llvm23createConstantMergePassEv
__ZN4llvm27initializeConstantMergePassERNS_12PassRegistryE
__ZN4llvm28createLoopStrengthReducePassEPKNS_14TargetLoweringE
__ZN4llvm32initializeLoopStrengthReducePassERNS_12PassRegistryE
__ZNK12_GLOBAL__N_118LoopStrengthReduce16getAnalysisUsageERN4llvm13AnalysisUsageE
__ZN4llvm15callDefaultCtorINS_7IVUsersEEEPNS_4PassEv
__ZNK4llvm7IVUsers16getAnalysisUsageERNS_13AnalysisUsageE
__ZN4llvm24createCodeGenPreparePassEPKNS_14TargetLoweringE
__ZN4llvm28initializeCodeGenPreparePassERNS_12PassRegistryE
__ZNK12_GLOBAL__N_114CodeGenPrepare16getAnalysisUsageERN4llvm13AnalysisUsageE
__ZN4llvm15callDefaultCtorINS_21BranchProbabilityInfoEEEPNS_4PassEv
__ZNK4llvm21BranchProbabilityInfo16getAnalysisUsageERNS_13AnalysisUsageE
__ZN4llvm23createTailDuplicatePassEb
__ZN4llvm22createOptimizePHIsPassEv
__ZN4llvm26initializeOptimizePHIsPassERNS_12PassRegistryE
__ZNK12_GLOBAL__N_112OptimizePHIs16getAnalysisUsageERN4llvm13AnalysisUsageE
__ZN4llvm36createDeadMachineInstructionElimPassEv
__ZN4llvm40initializeDeadMachineInstructionElimPassERNS_12PassRegistryE
__ZN4llvm21createMachineLICMPassEb
__ZN4llvm25initializeMachineLICMPassERNS_12PassRegistryE
__ZNK12_GLOBAL__N_111MachineLICM16getAnalysisUsageERN4llvm13AnalysisUsageE
__ZN4llvm15callDefaultCtorINS_15MachineLoopInfoEEEPNS_4PassEv
__ZNK4llvm15MachineLoopInfo16getAnalysisUsageERNS_13AnalysisUsageE
__ZN4llvm15callDefaultCtorINS_20MachineDominatorTreeEEEPNS_4PassEv
__ZNK4llvm20MachineDominatorTree16getAnalysisUsageERNS_13AnalysisUsageE
__ZN4llvm20createMachineCSEPassEv
__ZN4llvm24initializeMachineCSEPassERNS_12PassRegistryE
__ZNK12_GLOBAL__N_110MachineCSE16getAnalysisUsageERN4llvm13AnalysisUsageE
__ZN4llvm24createMachineSinkingPassEv
__ZN4llvm28initializeMachineSinkingPassERNS_12PassRegistryE
__ZNK12_GLOBAL__N_114MachineSinking16getAnalysisUsageERN4llvm13AnalysisUsageE
__ZN4llvm27createPeepholeOptimizerPassEv
__ZN4llvm31initializePeepholeOptimizerPassERNS_12PassRegistryE
__ZNK12_GLOBAL__N_117PeepholeOptimizer16getAnalysisUsageERN4llvm13AnalysisUsageE
__ZN4llvm29createGreedyRegisterAllocatorEv
__ZN4llvm32initializeLiveDebugVariablesPassERNS_12PassRegistryE
__ZN4llvm27initializeLiveIntervalsPassERNS_12PassRegistryE
__ZN4llvm27initializeLiveVariablesPassERNS_12PassRegistryE
__ZN4llvm41initializeUnreachableMachineBlockElimPassERNS_12PassRegistryE
__ZN4llvm33initializeProcessImplicitDefsPassERNS_12PassRegistryE
__ZN4llvm25initializeSlotIndexesPassERNS_12PassRegistryE
__ZN4llvm34initializeStrongPHIEliminationPassERNS_12PassRegistryE
__ZN4llvm31initializeRegisterCoalescerPassERNS_12PassRegistryE
__ZN4llvm35initializeCalculateSpillWeightsPassERNS_12PassRegistryE
__ZN4llvm24initializeLiveStacksPassERNS_12PassRegistryE
__ZN4llvm24initializeVirtRegMapPassERNS_12PassRegistryE
__ZN4llvm28initializeSpillPlacementPassERNS_12PassRegistryE
__ZNK12_GLOBAL__N_18RAGreedy16getAnalysisUsageERN4llvm13AnalysisUsageE
__ZN4llvm15callDefaultCtorINS_13LiveIntervalsEEEPNS_4PassEv
__ZNK4llvm13LiveIntervals16getAnalysisUsageERNS_13AnalysisUsageE
__ZN4llvm15callDefaultCtorINS_13LiveVariablesEEEPNS_4PassEv
__ZNK4llvm13LiveVariables16getAnalysisUsageERNS_13AnalysisUsageE
__ZN4llvm15callDefaultCtorIN12_GLOBAL__N_127UnreachableMachineBlockElimEEEPNS_4PassEv
__ZNK12_GLOBAL__N_127UnreachableMachineBlockElim16getAnalysisUsageERN4llvm13AnalysisUsageE
__ZN4llvm15callDefaultCtorINS_19ProcessImplicitDefsEEEPNS_4PassEv
__ZNK4llvm19ProcessImplicitDefs16getAnalysisUsageERNS_13AnalysisUsageE
__ZN4llvm15callDefaultCtorINS_11SlotIndexesEEEPNS_4PassEv
__ZNK4llvm11SlotIndexes16getAnalysisUsageERNS_13AnalysisUsageE
__ZN4llvm15callDefaultCtorINS_18LiveDebugVariablesEEEPNS_4PassEv
__ZNK4llvm18LiveDebugVariables16getAnalysisUsageERNS_13AnalysisUsageE
__ZN4llvm15callDefaultCtorIN12_GLOBAL__N_117RegisterCoalescerEEEPNS_4PassEv
__ZNK12_GLOBAL__N_117RegisterCoalescer16getAnalysisUsageERN4llvm13AnalysisUsageE
__ZN4llvm15callDefaultCtorINS_21CalculateSpillWeightsEEEPNS_4PassEv
__ZNK4llvm21CalculateSpillWeights16getAnalysisUsageERNS_13AnalysisUsageE
__ZN4llvm15callDefaultCtorINS_10LiveStacksEEEPNS_4PassEv
__ZNK4llvm10LiveStacks16getAnalysisUsageERNS_13AnalysisUsageE
__ZN4llvm15callDefaultCtorINS_10VirtRegMapEEEPNS_4PassEv
__ZNK4llvm10VirtRegMap16getAnalysisUsageERNS_13AnalysisUsageE
__ZN4llvm15callDefaultCtorINS_14SpillPlacementEEEPNS_4PassEv
__ZNK4llvm14SpillPlacement16getAnalysisUsageERNS_13AnalysisUsageE
__ZN4llvm27createStackSlotColoringPassEb
__ZN4llvm31initializeStackSlotColoringPassERNS_12PassRegistryE
__ZNK12_GLOBAL__N_117StackSlotColoring16getAnalysisUsageERN4llvm13AnalysisUsageE
__ZN4llvm21createPostRASchedulerENS_10CodeGenOpt5LevelE
__ZNK12_GLOBAL__N_115PostRAScheduler16getAnalysisUsageERN4llvm13AnalysisUsageE
__ZNK4llvm17LLVMTargetMachine25getEnableTailMergeDefaultEv
__ZN4llvm23createBranchFoldingPassEb
__ZL13printNoVerifyRN4llvm15PassManagerBaseEPKc
__ZN4llvm26createCodePlacementOptPassEv
__ZNK12_GLOBAL__N_116CodePlacementOpt16getAnalysisUsageERN4llvm13AnalysisUsageE
__ZN4llvm32createExecutionDependencyFixPassEPKNS_19TargetRegisterClassE
__ZNK12_GLOBAL__N_110ExeDepsFix16getAnalysisUsageERN4llvm13AnalysisUsageE
__ZN12_GLOBAL__N_115CFGSimplifyPass13runOnFunctionERN4llvm8FunctionE
__ZL29RemoveUnreachableBlocksFromFnRN4llvm8FunctionE
__ZN4llvm22ConstantFoldTerminatorEPNS_10BasicBlockEb
__ZL20IterativeSimplifyCFGRN4llvm8FunctionEPKNS_10TargetDataE
__ZN4llvm11SimplifyCFGEPNS_10BasicBlockEPKNS_10TargetDataE
__ZN12_GLOBAL__N_114SimplifyCFGOpt3runEPN4llvm10BasicBlockE
__ZN4llvm10BasicBlock20getSinglePredecessorEv
__ZN4llvm26EliminateDuplicatePHINodesEPNS_10BasicBlockE
__ZN4llvm25MergeBlockIntoPredecessorEPNS_10BasicBlockEPNS_4PassE
__ZN4llvm10BasicBlock20getUniquePredecessorEv
__ZN4llvm10BasicBlock19getFirstNonPHIOrDbgEv
__ZN4llvm13DominatorTree13runOnFunctionERNS_8FunctionE
__ZN4llvm17DominatorTreeBaseINS_10BasicBlockEE11recalculateINS_8FunctionEEEvRT_
__ZN4llvm17DominatorTreeBaseINS_10BasicBlockEE5resetEv
__ZN4llvm8DenseMapIPNS_10BasicBlockEPNS_15DomTreeNodeBaseIS1_EENS_12DenseMapInfoIS2_EENS6_IS5_EEE5clearEv
__ZN4llvm8DenseMapIPNS_10BasicBlockES2_NS_12DenseMapInfoIS2_EES4_E5clearEv
__ZNSt6vectorIPN4llvm10BasicBlockESaIS2_EE13_M_insert_auxEN9__gnu_cxx17__normal_iteratorIPS2_S4_EERKS2_
__ZN4llvm8DenseMapIPNS_10BasicBlockES2_NS_12DenseMapInfoIS2_EES4_E16InsertIntoBucketERKS2_S7_PSt4pairIS2_S2_E
__ZN4llvm8DenseMapIPNS_10BasicBlockES2_NS_12DenseMapInfoIS2_EES4_E4growEj
__ZN4llvm8DenseMapIPNS_10BasicBlockEPNS_15DomTreeNodeBaseIS1_EENS_12DenseMapInfoIS2_EENS6_IS5_EEE16InsertIntoBucketERKS2_RKS5_PSt4pairIS2_S5_E
__ZN4llvm8DenseMapIPNS_10BasicBlockEPNS_15DomTreeNodeBaseIS1_EENS_12DenseMapInfoIS2_EENS6_IS5_EEE4growEj
__ZN4llvm9CalculateINS_8FunctionEPNS_10BasicBlockEEEvRNS_17DominatorTreeBaseINS_11GraphTraitsIT0_E8NodeTypeEEERT_
__ZN4llvm7DFSPassINS_11GraphTraitsIPNS_10BasicBlockEEEEEjRNS_17DominatorTreeBaseINT_8NodeTypeEEEPS7_j
__ZN4llvm15SmallVectorImplISt4pairIPNS_10BasicBlockENS_12SuccIteratorIPNS_14TerminatorInstES2_EEEE9push_backERKS8_
__ZN4llvm8DenseMapIPNS_10BasicBlockENS_17DominatorTreeBaseIS1_E7InfoRecENS_12DenseMapInfoIS2_EENS6_IS5_EEE16InsertIntoBucketERKS2_RKS5_PSt4pairIS2_S5_E
__ZN4llvm8DenseMapIPNS_10BasicBlockENS_17DominatorTreeBaseIS1_E7InfoRecENS_12DenseMapInfoIS2_EENS6_IS5_EEE4growEj
__ZN4llvm8DenseMapIPNS_10BasicBlockENS_17DominatorTreeBaseIS1_E7InfoRecENS_12DenseMapInfoIS2_EENS6_IS5_EEE5clearEv
__ZN4llvm17DominatorTreeBaseINS_10BasicBlockEE16updateDFSNumbersEv
__ZN4llvm15SmallVectorImplISt4pairIPNS_15DomTreeNodeBaseINS_10BasicBlockEEEN9__gnu_cxx17__normal_iteratorIPS5_St6vectorIS5_SaIS5_EEEEEE9push_backERKSD_
__ZN12_GLOBAL__N_14SROA13runOnFunctionERN4llvm8FunctionE
__ZN12_GLOBAL__N_14SROA16performPromotionERN4llvm8FunctionE
__ZN4llvm9DIBuilderC1ERNS_6ModuleE
__ZL27tryToMakeAllocaBePromotablePN4llvm10AllocaInstEPKNS_10TargetDataE
__ZNSt6vectorIPN4llvm10AllocaInstESaIS2_EE13_M_insert_auxEN9__gnu_cxx17__normal_iteratorIPS2_S4_EERKS2_
__ZN4llvm15PromoteMemToRegERKSt6vectorIPNS_10AllocaInstESaIS2_EERNS_13DominatorTreeEPNS_15AliasSetTrackerE
__ZN12_GLOBAL__N_114PromoteMem2Reg3runEv
__ZN4llvm20FindAllocaDbgDeclareEPNS_5ValueE
__ZN4llvm6MDNode11getIfExistsERNS_11LLVMContextENS_8ArrayRefIPNS_5ValueEEE
__ZN4llvm6MDNode9getMDNodeERNS_11LLVMContextENS_8ArrayRefIPNS_5ValueEEENS0_17FunctionLocalnessEb
__ZN4llvm6MDNodeC2ERNS_11LLVMContextENS_8ArrayRefIPNS_5ValueEEEb
__ZN4llvm4Type13getMetadataTyERNS_11LLVMContextE
__ZN4llvm10AllocaInstD0Ev
__ZN4llvm15ValueHandleBase14ValueIsDeletedEPNS_5ValueE
__ZN4llvm13MDNodeOperand7deletedEv
__ZN4llvm6MDNode14replaceOperandEPNS_13MDNodeOperandEPNS_5ValueE
__ZN12_GLOBAL__N_18EarlyCSE13runOnFunctionERN4llvm8FunctionE
__ZN12_GLOBAL__N_18EarlyCSE11processNodeEPN4llvm15DomTreeNodeBaseINS1_10BasicBlockEEE
__ZN4llvm26isInstructionTriviallyDeadEPNS_11InstructionE
__ZN4llvm19SimplifyInstructionEPNS_11InstructionEPKNS_10TargetDataEPKNS_13DominatorTreeE
__ZN4llvm23ConstantFoldInstructionEPNS_11InstructionEPKNS_10TargetDataE
__ZN4llvm24ConstantFoldInstOperandsEjPNS_4TypeENS_8ArrayRefIPNS_8ConstantEEEPKNS_10TargetDataE
__ZNK4llvm11Instruction17mayReadFromMemoryEv
__ZN4llvm20ScopedHashTableScopeIPNS_5ValueESt4pairIS2_jENS_12DenseMapInfoIS2_EENS_18RecyclingAllocatorINS_16BumpPtrAllocatorENS_18ScopedHashTableValIS2_S4_EELm40ELm8EEEED2Ev
__ZN4llvm13DominatorTree13releaseMemoryEv
__ZN4llvm17DominatorTreeBaseINS_10BasicBlockEE13releaseMemoryEv
__ZN12_GLOBAL__N_120LowerExpectIntrinsic13runOnFunctionERN4llvm8FunctionE
__ZN12_GLOBAL__N_19GlobalOpt11runOnModuleERN4llvm6ModuleE
__ZNK4llvm8Function18isDefTriviallyDeadEv
__ZL25removeDeadUsersOfConstantPKN4llvm8ConstantE
__ZL13AnalyzeGlobalPKN4llvm5ValueERN12_GLOBAL__N_112GlobalStatusERNS_11SmallPtrSetIPKNS_7PHINodeELj16EEE
__ZL21SafeToDestroyConstantPKN4llvm8ConstantE
__ZN12_GLOBAL__N_16IPSCCP11runOnModuleERN4llvm6ModuleE
__ZN4llvm8DenseMapIPNS_8FunctionEN12_GLOBAL__N_110LatticeValENS_12DenseMapInfoIS2_EENS5_IS4_EEE4growEj
__ZN12_GLOBAL__N_110SCCPSolver23markAnythingOverdefinedEPN4llvm5ValueE
__ZN12_GLOBAL__N_110SCCPSolver15markOverdefinedEPN4llvm5ValueE
__ZN4llvm8DenseMapIPNS_5ValueEN12_GLOBAL__N_110LatticeValENS_12DenseMapInfoIS2_EENS5_IS4_EEE16InsertIntoBucketERKS2_RKS4_PSt4pairIS2_S4_E
__ZN4llvm8DenseMapIPNS_5ValueEN12_GLOBAL__N_110LatticeValENS_12DenseMapInfoIS2_EENS5_IS4_EEE4growEj
__ZL14AddressIsTakenPKN4llvm11GlobalValueE
__ZN12_GLOBAL__N_110SCCPSolver5SolveEv
__ZN4llvm11InstVisitorIN12_GLOBAL__N_110SCCPSolverEvE5visitERNS_11InstructionE
__ZN12_GLOBAL__N_110SCCPSolver13getValueStateEPN4llvm5ValueE
__ZN12_GLOBAL__N_110SCCPSolver12mergeInValueERNS_10LatticeValEPN4llvm5ValueES1_
__ZN12_GLOBAL__N_110SCCPSolver16ResolvedUndefsInERN4llvm8FunctionE
__ZN12_GLOBAL__N_110SCCPSolverD1Ev
__ZN12_GLOBAL__N_13DAE11runOnModuleERN4llvm6ModuleE
__ZNK4llvm8Function15getFunctionTypeEv
__ZN4llvm11SmallVectorIN12_GLOBAL__N_13DAE8RetOrArgELj5EEC1ERKS4_
__ZNK12_GLOBAL__N_13DAE19ShouldHackArgumentsEv
__ZN12_GLOBAL__N_13DAE8MarkLiveERKN4llvm8FunctionE
__ZNSt8_Rb_treeIPKN4llvm8FunctionES3_St9_IdentityIS3_ESt4lessIS3_ESaIS3_EE16_M_insert_uniqueERKS3_
__ZNK4llvm8Function8arg_sizeEv
__ZN12_GLOBAL__N_13DAE17PropagateLivenessERKNS0_8RetOrArgE
__ZNSt8_Rb_treeIN12_GLOBAL__N_13DAE8RetOrArgESt4pairIKS2_S2_ESt10_Select1stIS5_ESt4lessIS2_ESaIS5_EE8_M_eraseEPSt13_Rb_tree_nodeIS5_E
__ZN4llvm12InstCombiner13runOnFunctionERNS_8FunctionE
__ZN4llvm15LowerDbgDeclareERNS_8FunctionE
__ZN4llvm12InstCombiner14DoOneIterationERNS_8FunctionEj
__ZN4llvm19InstCombineWorklist15AddInitialGroupEPKPNS_11InstructionEj
__ZN4llvm8DenseMapIPNS_11InstructionEjNS_12DenseMapInfoIS2_EENS3_IjEEE4growEj
__ZN4llvm8DenseMapIPNS_11InstructionEjNS_12DenseMapInfoIS2_EENS3_IjEEE6insertERKSt4pairIS2_jE
__ZN4llvm8DenseMapIPNS_11InstructionEjNS_12DenseMapInfoIS2_EENS3_IjEEE16InsertIntoBucketERKS2_RKjPSt4pairIS2_jE
__ZN4llvm11InstVisitorINS_12InstCombinerEPNS_11InstructionEE5visitERS2_
__ZN4llvm8DenseMapIPNS_11InstructionEjNS_12DenseMapInfoIS2_EENS3_IjEEE5clearEv
__ZN4llvm16CallGraphSCCPass16doInitializationERNS_9CallGraphE
__ZN12_GLOBAL__N_113SimpleInliner16doInitializationERN4llvm9CallGraphE
__ZN4llvm13FPPassManager16doInitializationERNS_6ModuleE
__ZN12_GLOBAL__N_116SimplifyLibCalls16doInitializationERN4llvm6ModuleE
__ZN12_GLOBAL__N_17PruneEH8runOnSCCERN4llvm12CallGraphSCCE
__ZN12_GLOBAL__N_17PruneEH16SimplifyFunctionEPN4llvm8FunctionE
__ZN12_GLOBAL__N_113SimpleInliner13releaseMemoryEv
__ZN12_GLOBAL__N_113FunctionAttrs8runOnSCCERN4llvm12CallGraphSCCE
__ZThn32_N12_GLOBAL__N_118BasicAliasAnalysis17getModRefBehaviorEPKN4llvm8FunctionE
__ZN12_GLOBAL__N_118BasicAliasAnalysis17getModRefBehaviorEPKN4llvm8FunctionE
__ZN4llvm13AliasAnalysis17getModRefBehaviorEPKNS_8FunctionE
__ZThn32_N12_GLOBAL__N_122TypeBasedAliasAnalysis17getModRefBehaviorEPKN4llvm8FunctionE
__ZThn32_N12_GLOBAL__N_14NoAA17getModRefBehaviorEPKN4llvm8FunctionE
__ZN4llvm8Function15removeAttributeEjj
__ZNK4llvm11AttrListPtr10removeAttrEjj
__ZNK4llvm8Argument16hasNoCaptureAttrEv
__ZN4llvm20PointerMayBeCapturedEPKNS_5ValueEbb
__ZN4llvm8Argument7addAttrEj
__ZN12_GLOBAL__N_116SimplifyLibCalls13runOnFunctionERN4llvm8FunctionE
__ZN4llvm9StringMapIPN12_GLOBAL__N_119LibCallOptimizationENS_15MallocAllocatorEEixENS_9StringRefE
__ZNK4llvm17TargetLibraryInfo7getNameENS_7LibFunc4FuncE
__ZN4llvm13LazyValueInfo13runOnFunctionERNS_8FunctionE
__ZN12_GLOBAL__N_113JumpThreading13runOnFunctionERN4llvm8FunctionE
__ZN4llvm21FindFunctionBackedgesERKNS_8FunctionERNS_15SmallVectorImplISt4pairIPKNS_10BasicBlockES7_EEE
__ZN12_GLOBAL__N_126CorrelatedValuePropagation13runOnFunctionERN4llvm8FunctionE
__ZN4llvm13LazyValueInfo13releaseMemoryEv
__ZN12_GLOBAL__N_112TailCallElim13runOnFunctionERN4llvm8FunctionE
__ZN12_GLOBAL__N_112TailCallElim16FindTRECandidateEPN4llvm11InstructionEb
__ZN12_GLOBAL__N_111Reassociate13runOnFunctionERN4llvm8FunctionE
__ZN4llvm8DenseMapINS_11AssertingVHINS_5ValueEEEjNS_12DenseMapInfoIS3_EENS4_IjEEE16InsertIntoBucketERKS3_RKjPSt4pairIS3_jE
__ZN4llvm8DenseMapINS_11AssertingVHINS_5ValueEEEjNS_12DenseMapInfoIS3_EENS4_IjEEE4growEj
__ZN4llvm25ReversePostOrderTraversalIPNS_8FunctionENS_11GraphTraitsIS2_EEEC2ES2_
__ZN4llvm8po_beginIPNS_10BasicBlockEEENS_11po_iteratorIT_NS_11SmallPtrSetIPNS_11GraphTraitsIS4_E8NodeTypeELj8EEELb0ES7_EES4_
__ZNSt6vectorISt4pairIPN4llvm10BasicBlockENS1_12SuccIteratorIPNS1_14TerminatorInstES2_EEESaIS8_EE13_M_insert_auxEN9__gnu_cxx17__normal_iteratorIPS8_SA_EERKS8_
__ZN4llvm11po_iteratorIPNS_10BasicBlockENS_11SmallPtrSetIS2_Lj8EEELb0ENS_11GraphTraitsIS2_EEE13traverseChildEv
__ZSt4copyIN4llvm11po_iteratorIPNS0_10BasicBlockENS0_11SmallPtrSetIS3_Lj8EEELb0ENS0_11GraphTraitsIS3_EEEESt20back_insert_iteratorISt6vectorIS3_SaIS3_EEEET0_T_SF_SE_
__ZNSt13__copy_normalILb0ELb0EE8__copy_nIN4llvm11po_iteratorIPNS2_10BasicBlockENS2_11SmallPtrSetIS5_Lj8EEELb0ENS2_11GraphTraitsIS5_EEEESt20back_insert_iteratorISt6vectorIS5_SaIS5_EEEEET0_T_SH_SG_
__ZSt10__copy_auxIN4llvm11po_iteratorIPNS0_10BasicBlockENS0_11SmallPtrSetIS3_Lj8EEELb0ENS0_11GraphTraitsIS3_EEEESt20back_insert_iteratorISt6vectorIS3_SaIS3_EEEET0_T_SF_SE_
__ZNSt6__copyILb0ESt20forward_iterator_tagE4copyIN4llvm11po_iteratorIPNS3_10BasicBlockENS3_11SmallPtrSetIS6_Lj8EEELb0ENS3_11GraphTraitsIS6_EEEESt20back_insert_iteratorISt6vectorIS6_SaIS6_EEEEET0_T_SI_SH_
__ZN4llvm8DenseMapIPNS_10BasicBlockEjNS_12DenseMapInfoIS2_EENS3_IjEEE16InsertIntoBucketERKS2_RKjPSt4pairIS2_jE
__ZN4llvm8DenseMapIPNS_10BasicBlockEjNS_12DenseMapInfoIS2_EENS3_IjEEE4growEj
__ZN12_GLOBAL__N_111Reassociate15ReassociateInstERN4llvm14ilist_iteratorINS1_11InstructionEEE
__ZN4llvm8DenseMapIPNS_10BasicBlockEjNS_12DenseMapInfoIS2_EENS3_IjEEE5clearEv
__ZN4llvm8DenseMapINS_11AssertingVHINS_5ValueEEEjNS_12DenseMapInfoIS3_EENS4_IjEEE5clearEv
__ZN4llvm8LoopInfo13runOnFunctionERNS_8FunctionE
__ZN4llvm8LoopInfo13releaseMemoryEv
__ZN4llvm8DenseMapIPNS_10BasicBlockEPNS_4LoopENS_12DenseMapInfoIS2_EENS5_IS4_EEE5clearEv
__ZN4llvm12LoopInfoBaseINS_10BasicBlockENS_4LoopEE9CalculateERNS_17DominatorTreeBaseIS1_EE
__ZN4llvm12LoopInfoBaseINS_10BasicBlockENS_4LoopEE15ConsiderForLoopEPS1_RNS_17DominatorTreeBaseIS1_EE
__ZN4llvm11df_iteratorIPNS_10BasicBlockENS_11SmallPtrSetIS2_Lj8EEELb0ENS_11GraphTraitsIS2_EEE6toNextEv
__ZN4llvm13LPPassManager13runOnFunctionERNS_8FunctionE
__ZN4llvm15ScalarEvolution13runOnFunctionERNS_8FunctionE
__ZN4llvm15ScalarEvolution13releaseMemoryEv
__ZN4llvm8DenseMapINS_15ScalarEvolution14SCEVCallbackVHEPKNS_4SCEVENS_12DenseMapInfoIPNS_5ValueEEENS6_IS5_EEE5clearEv
__ZN4llvm8DenseMapIPKNS_4LoopENS_15ScalarEvolution17BackedgeTakenInfoENS_12DenseMapInfoIS3_EENS6_IS5_EEE5clearEv
__ZN4llvm8DenseMapIPNS_7PHINodeEPNS_8ConstantENS_12DenseMapInfoIS2_EENS5_IS4_EEE5clearEv
__ZN4llvm8DenseMapIPKNS_4SCEVESt3mapIPKNS_4LoopES3_St4lessIS7_ESaISt4pairIKS7_S3_EEENS_12DenseMapInfoIS3_EENSF_ISE_EEE5clearEv
__ZN4llvm8DenseMapIPKNS_4SCEVESt3mapIPKNS_4LoopENS_15ScalarEvolution15LoopDispositionESt4lessIS7_ESaISt4pairIKS7_S9_EEENS_12DenseMapInfoIS3_EENSH_ISG_EEE16FindAndConstructERKS3_
__ZN4llvm8DenseMapIPKNS_4SCEVESt3mapIPKNS_4LoopENS_15ScalarEvolution15LoopDispositionESt4lessIS7_ESaISt4pairIKS7_S9_EEENS_12DenseMapInfoIS3_EENSH_ISG_EEE16InsertIntoBucketERKS3_RKSG_PSC_IS3_SG_E
__ZN4llvm8DenseMapIPKNS_4SCEVESt3mapIPKNS_4LoopENS_15ScalarEvolution15LoopDispositionESt4lessIS7_ESaISt4pairIKS7_S9_EEENS_12DenseMapInfoIS3_EENSH_ISG_EEE16shrink_and_clearEv
__ZN4llvm8DenseMapIPKNS_4SCEVESt3mapIPKNS_4LoopENS_15ScalarEvolution15LoopDispositionESt4lessIS7_ESaISt4pairIKS7_S9_EEENS_12DenseMapInfoIS3_EENSH_ISG_EEE4growEj
__ZN4llvm8DenseMapIPKNS_4SCEVESt3mapIPKNS_4LoopENS_15ScalarEvolution15LoopDispositionESt4lessIS7_ESaISt4pairIKS7_S9_EEENS_12DenseMapInfoIS3_EENSH_ISG_EEE5clearEv
__ZN4llvm8DenseMapIPKNS_4SCEVESt3mapIPKNS_10BasicBlockENS_15ScalarEvolution16BlockDispositionESt4lessIS7_ESaISt4pairIKS7_S9_EEENS_12DenseMapInfoIS3_EENSH_ISG_EEE16FindAndConstructERKS3_
__ZN4llvm8DenseMapIPKNS_4SCEVESt3mapIPKNS_10BasicBlockENS_15ScalarEvolution16BlockDispositionESt4lessIS7_ESaISt4pairIKS7_S9_EEENS_12DenseMapInfoIS3_EENSH_ISG_EEE16InsertIntoBucketERKS3_RKSG_PSC_IS3_SG_E
__ZN4llvm8DenseMapIPKNS_4SCEVESt3mapIPKNS_10BasicBlockENS_15ScalarEvolution16BlockDispositionESt4lessIS7_ESaISt4pairIKS7_S9_EEENS_12DenseMapInfoIS3_EENSH_ISG_EEE16shrink_and_clearEv
__ZN4llvm8DenseMapIPKNS_4SCEVESt3mapIPKNS_10BasicBlockENS_15ScalarEvolution16BlockDispositionESt4lessIS7_ESaISt4pairIKS7_S9_EEENS_12DenseMapInfoIS3_EENSH_ISG_EEE4growEj
__ZN4llvm8DenseMapIPKNS_4SCEVESt3mapIPKNS_10BasicBlockENS_15ScalarEvolution16BlockDispositionESt4lessIS7_ESaISt4pairIKS7_S9_EEENS_12DenseMapInfoIS3_EENSH_ISG_EEE5clearEv
__ZN4llvm8DenseMapIPKNS_4SCEVENS_13ConstantRangeENS_12DenseMapInfoIS3_EENS5_IS4_EEE5clearEv
__ZN4llvm24MemoryDependenceAnalysis13runOnFunctionERNS_8FunctionE
__ZN12_GLOBAL__N_13GVN13runOnFunctionERN4llvm8FunctionE
__ZN12_GLOBAL__N_13GVN17iterateOnFunctionERN4llvm8FunctionE
__ZN12_GLOBAL__N_13GVN17cleanupGlobalSetsEv
__ZN4llvm8DenseMapIPNS_5ValueEjNS_12DenseMapInfoIS2_EENS3_IjEEE5clearEv
__ZNSt6vectorISt4pairIN4llvm14PointerIntPairIPNS1_15DomTreeNodeBaseINS1_10BasicBlockEEELj1EjNS1_21PointerLikeTypeTraitsIS6_EEEEN9__gnu_cxx17__normal_iteratorIPS6_S_IS6_SaIS6_EEEEESaISG_EE13_M_insert_auxENSB_IPSG_SI_EERKSG_
__ZN4llvm11df_iteratorIPNS_15DomTreeNodeBaseINS_10BasicBlockEEENS_11SmallPtrSetIS4_Lj8EEELb0ENS_11GraphTraitsIS4_EEE6toNextEv
__ZN4llvm24MemoryDependenceAnalysis13releaseMemoryEv
__ZN4llvm8DenseMapIPNS_11InstructionENS_12MemDepResultENS_12DenseMapInfoIS2_EENS4_IS3_EEE5clearEv
__ZN4llvm8DenseMapIPNS_11InstructionESt4pairISt6vectorINS_16NonLocalDepEntryESaIS5_EEbENS_12DenseMapInfoIS2_EENS9_IS8_EEE5clearEv
__ZN4llvm8DenseMapINS_14PointerIntPairIPKNS_5ValueELj1EbNS_21PointerLikeTypeTraitsIS4_EEEENS_24MemoryDependenceAnalysis19NonLocalPointerInfoENS_12DenseMapInfoIS7_EENSA_IS9_EEE16FindAndConstructERKS7_
__ZN4llvm8DenseMapINS_14PointerIntPairIPKNS_5ValueELj1EbNS_21PointerLikeTypeTraitsIS4_EEEENS_24MemoryDependenceAnalysis19NonLocalPointerInfoENS_12DenseMapInfoIS7_EENSA_IS9_EEE16InsertIntoBucketERKS7_RKS9_PSt4pairIS7_S9_E
__ZN4llvm8DenseMapINS_14PointerIntPairIPKNS_5ValueELj1EbNS_21PointerLikeTypeTraitsIS4_EEEENS_24MemoryDependenceAnalysis19NonLocalPointerInfoENS_12DenseMapInfoIS7_EENSA_IS9_EEE16shrink_and_clearEv
__ZN4llvm8DenseMapINS_14PointerIntPairIPKNS_5ValueELj1EbNS_21PointerLikeTypeTraitsIS4_EEEENS_24MemoryDependenceAnalysis19NonLocalPointerInfoENS_12DenseMapInfoIS7_EENSA_IS9_EEE4growEj
__ZN4llvm8DenseMapINS_14PointerIntPairIPKNS_5ValueELj1EbNS_21PointerLikeTypeTraitsIS4_EEEENS_24MemoryDependenceAnalysis19NonLocalPointerInfoENS_12DenseMapInfoIS7_EENSA_IS9_EEE5clearEv
__ZN4llvm8DenseMapINS_14PointerIntPairIPKNS_5ValueELj1EbNS_21PointerLikeTypeTraitsIS4_EEEENS_24MemoryDependenceAnalysis19NonLocalPointerInfoENS_12DenseMapInfoIS7_EENSA_IS9_EEE6insertERKSt4pairIS7_S9_E
__ZN4llvm8DenseMapIPNS_10BasicBlockEPS2_NS_12DenseMapInfoIS2_EENS4_IS3_EEE5clearEv
__ZN12_GLOBAL__N_19MemCpyOpt13runOnFunctionERN4llvm8FunctionE
__ZN12_GLOBAL__N_14SCCP13runOnFunctionERN4llvm8FunctionE
__ZN12_GLOBAL__N_13DSE13runOnFunctionERN4llvm8FunctionE
__ZN4llvm17DominatorTreeBaseINS_10BasicBlockEE9dominatesEPKS1_S4_
__ZN4llvm10isFreeCallEPKNS_5ValueE
__ZN4llvm17extractMallocCallEPNS_5ValueE
__ZL12isMallocCallPKN4llvm8CallInstE
__ZNK4llvm8Argument12hasByValAttrEv
__ZN12_GLOBAL__N_14ADCE13runOnFunctionERN4llvm8FunctionE
__ZN4llvm16CallGraphSCCPass14doFinalizationERNS_9CallGraphE
__ZN4llvm7Inliner14doFinalizationERNS_9CallGraphE
__ZN4llvm13FPPassManager14doFinalizationERNS_6ModuleE
__ZN12_GLOBAL__N_123StripDeadPrototypesPass11runOnModuleERN4llvm6ModuleE
__ZN12_GLOBAL__N_113ConstantMerge11runOnModuleERN4llvm6ModuleE
__ZN12_GLOBAL__N_114CodeGenPrepare13runOnFunctionERN4llvm8FunctionE
__ZN4llvm8DenseMapIPNS_5ValueES2_NS_12DenseMapInfoIS2_EES4_E5clearEv
__ZN12_GLOBAL__N_114CodeGenPrepare12OptimizeInstEPN4llvm11InstructionE
__ZN4llvm21BranchProbabilityInfo13runOnFunctionERNS_8FunctionE
__ZN4llvm21BranchProbabilityInfo25calcUnreachableHeuristicsEPNS_10BasicBlockE
__ZN4llvm21BranchProbabilityInfo19calcMetadataWeightsEPNS_10BasicBlockE
__ZN4llvm21BranchProbabilityInfo24calcLoopBranchHeuristicsEPNS_10BasicBlockE
__ZNK4llvm12LoopInfoBaseINS_10BasicBlockENS_4LoopEE10getLoopForEPKS1_
__ZN4llvm21BranchProbabilityInfo21calcPointerHeuristicsEPNS_10BasicBlockE
__ZN4llvm21BranchProbabilityInfo18calcZeroHeuristicsEPNS_10BasicBlockE
__ZN4llvm21BranchProbabilityInfo27calcFloatingPointHeuristicsEPNS_10BasicBlockE
__ZN4llvm8DenseMapIPKNS_10BasicBlockEcNS_12DenseMapInfoIS3_EENS4_IcEEE6insertERKSt4pairIS3_cE
__ZN4llvm8DenseMapIPKNS_10BasicBlockEcNS_12DenseMapInfoIS3_EENS4_IcEEE16InsertIntoBucketERKS3_RKcPSt4pairIS3_cE
__ZN4llvm8DenseMapIPKNS_10BasicBlockEcNS_12DenseMapInfoIS3_EENS4_IcEEE4growEj
__ZN4llvm16SelectionDAGISel16SelectBasicBlockENS_14ilist_iteratorIKNS_11InstructionEEES4_Rb
__ZN4llvm19SelectionDAGBuilder5visitERKNS_11InstructionE
__ZN4llvm19SelectionDAGBuilder31HandlePHINodesInSuccessorBlocksEPKNS_10BasicBlockE
__ZN4llvm8DenseMapIPKNS_8ConstantEjNS_12DenseMapInfoIS3_EENS4_IjEEE5clearEv
__ZN4llvm19SelectionDAGBuilder5visitEjRKNS_4UserE
__ZN4llvm19SelectionDAGBuilder8visitRetERKNS_10ReturnInstE
__ZN4llvm19SelectionDAGBuilder8getValueEPKNS_5ValueE
__ZN4llvm19SelectionDAGBuilder12getValueImplEPKNS_5ValueE
__ZN4llvm12SelectionDAG11getConstantERKNS_11ConstantIntENS_3EVTEb
__ZN4llvm19SelectionDAGBuilder24resolveDanglingDebugInfoEPKNS_5ValueENS_7SDValueE
__ZN4llvm8DenseMapIPKNS_5ValueENS_19SelectionDAGBuilder17DanglingDebugInfoENS_12DenseMapInfoIS3_EENS6_IS5_EEE16InsertIntoBucketERKS3_RKS5_PSt4pairIS3_S5_E
__ZN4llvm8DenseMapIPKNS_5ValueENS_19SelectionDAGBuilder17DanglingDebugInfoENS_12DenseMapInfoIS3_EENS6_IS5_EEE4growEj
__ZNK4llvm17X86TargetLowering11LowerReturnENS_7SDValueENS_11CallingConv2IDEbRKNS_15SmallVectorImplINS_3ISD9OutputArgEEERKNS4_IS1_EENS_8DebugLocERNS_12SelectionDAGE
__ZNK4llvm19MachineRegisterInfo9isLiveOutEj
__ZN4llvm12SelectionDAG11getConstantEyNS_3EVTEb
__ZNK4llvm10FoldingSetINS_6SDNodeEE10NodeEqualsEPNS_14FoldingSetImpl4NodeERKNS_16FoldingSetNodeIDERS6_
__ZNK4llvm6SDNode7ProfileERNS_16FoldingSetNodeIDE
__ZL15AddNodeIDCustomRN4llvm16FoldingSetNodeIDEPKNS_6SDNodeE
__ZNK4llvm17X86TargetLowering17PerformDAGCombineEPNS_6SDNodeERNS_14TargetLowering15DAGCombinerInfoE
__ZN12_GLOBAL__N_111DAGCombiner13AddToWorkListEPN4llvm6SDNodeE
__ZN4llvm12SelectionDAG10DeleteNodeEPNS_6SDNodeE
__ZN4llvm12SelectionDAG21RemoveNodeFromCSEMapsEPNS_6SDNodeE
__ZN4llvm16SelectionDAGISel22ComputeLiveOutVRegInfoEv
__ZNSt6vectorIjSaIjEE14_M_fill_insertEN9__gnu_cxx17__normal_iteratorIPjS1_EEmRKj
__ZN4llvm15SmallVectorImplINS_7SDValueEEaSERKS2_
__ZL22HandleMergeInputChainsRN4llvm15SmallVectorImplIPNS_6SDNodeEEEPNS_12SelectionDAGE
__ZL14WalkChainUsersPN4llvm6SDNodeERNS_15SmallVectorImplIS1_EES4_
__ZN4llvm12SelectionDAG9getVTListENS_3EVTE
__ZN4llvm16SelectionDAGISel9MorphNodeEPNS_6SDNodeEjNS_8SDVTListEPKNS_7SDValueEjj
__ZN4llvm12SelectionDAG11MorphNodeToEPNS_6SDNodeEjNS_8SDVTListEPKNS_7SDValueEj
__ZN4llvm16SelectionDAGISel19UpdateChainsAndGlueEPNS_6SDNodeENS_7SDValueERKNS_15SmallVectorImplIS2_EES3_S7_b
__ZN4llvm12SelectionDAG17DAGUpdateListenerD2Ev
__ZN4llvm25createILPListDAGSchedulerEPNS_16SelectionDAGISelENS_10CodeGenOpt5LevelE
__ZNK4llvm15X86RegisterInfo19getRegPressureLimitEPKNS_19TargetRegisterClassERNS_15MachineFunctionE
__ZNK4llvm19TargetInstrInfoImpl28CreateTargetHazardRecognizerEPKNS_13TargetMachineEPKNS_11ScheduleDAGE
__ZNK4llvm12X86InstrInfo16isHighLatencyDefEi
__ZNK4llvm18ScheduleDAGSDNodes21ComputeOperandLatencyEPNS_6SDNodeES2_jRNS_4SDepE
__ZNK4llvm15TargetInstrInfo17getOperandLatencyEPKNS_18InstrItineraryDataEPNS_6SDNodeEjS5_j
__ZNK4llvm19TargetSubtargetInfo21adjustSchedDependencyEPNS_5SUnitES2_RNS_4SDepE
__ZN4llvm12InstrEmitter12CountResultsEPNS_6SDNodeE
__ZN12_GLOBAL__N_125RegReductionPriorityQueueINS_14ilp_ls_rr_sortEE3popEv
__ZN12_GLOBAL__N_112popFromQueueINS_14ilp_ls_rr_sortEEEPN4llvm5SUnitERSt6vectorIS4_SaIS4_EERT_PNS2_11ScheduleDAGE
__ZN4llvm18ScheduleDAGSDNodes10RegDefIterC1EPKNS_5SUnitEPKS0_
__ZL13GetCostForDefRKN4llvm18ScheduleDAGSDNodes10RegDefIterEPKNS_14TargetLoweringEPKNS_15TargetInstrInfoEPKNS_18TargetRegisterInfoERjSD_
__ZNK4llvm14TargetLowering17getRepRegClassForENS_3EVTE
__ZNK4llvm14TargetLowering21getRepRegClassCostForENS_3EVTE
__ZN4llvm12InstrEmitter15EmitMachineNodeEPNS_6SDNodeEbbRNS_8DenseMapINS_7SDValueEjNS_12DenseMapInfoIS4_EENS5_IjEEEE
__ZN4llvm12InstrEmitter22CreateVirtualRegistersEPNS_6SDNodeEPNS_12MachineInstrERKNS_11MCInstrDescEbbRNS_8DenseMapINS_7SDValueEjNS_12DenseMapInfoIS9_EENSA_IjEEEE
__ZNK4llvm15TargetInstrInfo11getRegClassERKNS_11MCInstrDescEjPKNS_18TargetRegisterInfoE
__ZN4llvm12MachineInstr15addRegisterDeadEjPKNS_18TargetRegisterInfoEb
__ZN12_GLOBAL__N_125RegReductionPriorityQueueINS_14ilp_ls_rr_sortEED0Ev
__ZN12_GLOBAL__N_117TailDuplicatePass20runOnMachineFunctionERN4llvm15MachineFunctionE
__ZN12_GLOBAL__N_112OptimizePHIs20runOnMachineFunctionERN4llvm15MachineFunctionE
__ZN12_GLOBAL__N_126DeadMachineInstructionElim20runOnMachineFunctionERN4llvm15MachineFunctionE
__ZNK4llvm12MachineInstr12isSafeToMoveEPKNS_15TargetInstrInfoEPNS_13AliasAnalysisERb
__ZN4llvm20MachineDominatorTree20runOnMachineFunctionERNS_15MachineFunctionE
__ZN4llvm17DominatorTreeBaseINS_17MachineBasicBlockEE11recalculateINS_15MachineFunctionEEEvRT_
__ZN4llvm17DominatorTreeBaseINS_17MachineBasicBlockEE5resetEv
__ZN4llvm8DenseMapIPNS_17MachineBasicBlockEPNS_15DomTreeNodeBaseIS1_EENS_12DenseMapInfoIS2_EENS6_IS5_EEE5clearEv
__ZN4llvm8DenseMapIPNS_17MachineBasicBlockES2_NS_12DenseMapInfoIS2_EES4_E5clearEv
__ZN4llvm8DenseMapIPNS_17MachineBasicBlockES2_NS_12DenseMapInfoIS2_EES4_E16InsertIntoBucketERKS2_S7_PSt4pairIS2_S2_E
__ZN4llvm8DenseMapIPNS_17MachineBasicBlockES2_NS_12DenseMapInfoIS2_EES4_E4growEj
__ZN4llvm8DenseMapIPNS_17MachineBasicBlockEPNS_15DomTreeNodeBaseIS1_EENS_12DenseMapInfoIS2_EENS6_IS5_EEE16InsertIntoBucketERKS2_RKS5_PSt4pairIS2_S5_E
__ZN4llvm8DenseMapIPNS_17MachineBasicBlockEPNS_15DomTreeNodeBaseIS1_EENS_12DenseMapInfoIS2_EENS6_IS5_EEE4growEj
__ZN4llvm9CalculateINS_15MachineFunctionEPNS_17MachineBasicBlockEEEvRNS_17DominatorTreeBaseINS_11GraphTraitsIT0_E8NodeTypeEEERT_
__ZN4llvm7DFSPassINS_11GraphTraitsIPNS_17MachineBasicBlockEEEEEjRNS_17DominatorTreeBaseINT_8NodeTypeEEEPS7_j
__ZN4llvm15SmallVectorImplISt4pairIPNS_17MachineBasicBlockEN9__gnu_cxx17__normal_iteratorIPS3_St6vectorIS3_SaIS3_EEEEEE9push_backERKSB_
__ZN4llvm8DenseMapIPNS_17MachineBasicBlockENS_17DominatorTreeBaseIS1_E7InfoRecENS_12DenseMapInfoIS2_EENS6_IS5_EEE16InsertIntoBucketERKS2_RKS5_PSt4pairIS2_S5_E
__ZN4llvm8DenseMapIPNS_17MachineBasicBlockENS_17DominatorTreeBaseIS1_E7InfoRecENS_12DenseMapInfoIS2_EENS6_IS5_EEE4growEj
__ZN4llvm8DenseMapIPNS_17MachineBasicBlockENS_17DominatorTreeBaseIS1_E7InfoRecENS_12DenseMapInfoIS2_EENS6_IS5_EEE5clearEv
__ZN4llvm17DominatorTreeBaseINS_17MachineBasicBlockEE16updateDFSNumbersEv
__ZN4llvm15SmallVectorImplISt4pairIPNS_15DomTreeNodeBaseINS_17MachineBasicBlockEEEN9__gnu_cxx17__normal_iteratorIPS5_St6vectorIS5_SaIS5_EEEEEE9push_backERKSD_
__ZN4llvm15MachineLoopInfo20runOnMachineFunctionERNS_15MachineFunctionE
__ZN4llvm15MachineLoopInfo13releaseMemoryEv
__ZN4llvm12LoopInfoBaseINS_17MachineBasicBlockENS_11MachineLoopEE9CalculateERNS_17DominatorTreeBaseIS1_EE
__ZNSt6vectorISt4pairIN4llvm14PointerIntPairIPNS1_17MachineBasicBlockELj1EjNS1_21PointerLikeTypeTraitsIS4_EEEEN9__gnu_cxx17__normal_iteratorIPS4_S_IS4_SaIS4_EEEEESaISE_EE13_M_insert_auxENS9_IPSE_SG_EERKSE_
__ZN4llvm12LoopInfoBaseINS_17MachineBasicBlockENS_11MachineLoopEE15ConsiderForLoopEPS1_RNS_17DominatorTreeBaseIS1_EE
__ZN4llvm11df_iteratorIPNS_17MachineBasicBlockENS_11SmallPtrSetIS2_Lj8EEELb0ENS_11GraphTraitsIS2_EEE6toNextEv
__ZN12_GLOBAL__N_111MachineLICM20runOnMachineFunctionERN4llvm15MachineFunctionE
__ZNK4llvm18TargetRegisterInfo17getAllocatableSetERKNS_15MachineFunctionEPKNS_19TargetRegisterClassE
__ZNK4llvm3X868GR8Class21getRawAllocationOrderERKNS_15MachineFunctionE
__ZNK4llvm19TargetRegisterClass21getRawAllocationOrderERKNS_15MachineFunctionE
__ZNK4llvm3X8614GR8_NOREXClass21getRawAllocationOrderERKNS_15MachineFunctionE
__ZN12_GLOBAL__N_111MachineLICM13releaseMemoryEv
__ZN4llvm8DenseMapIjSt6vectorIPKNS_12MachineInstrESaIS4_EENS_12DenseMapInfoIjEENS7_IS6_EEE5clearEv
__ZN12_GLOBAL__N_110MachineCSE20runOnMachineFunctionERN4llvm15MachineFunctionE
__ZN4llvm8DenseMapIPNS_15DomTreeNodeBaseINS_17MachineBasicBlockEEEjNS_12DenseMapInfoIS4_EENS5_IjEEE16InsertIntoBucketERKS4_RKjPSt4pairIS4_jE
__ZN4llvm8DenseMapIPNS_15DomTreeNodeBaseINS_17MachineBasicBlockEEEjNS_12DenseMapInfoIS4_EENS5_IjEEE4growEj
__ZN4llvm8DenseMapIPNS_17MachineBasicBlockEPNS_20ScopedHashTableScopeIPNS_12MachineInstrEjNS_27MachineInstrExpressionTraitENS_18RecyclingAllocatorINS_16BumpPtrAllocatorENS_18ScopedHashTableValIS5_jEELm32ELm8EEEEENS_12DenseMapInfoIS2_EENSE_ISD_EEE16InsertIntoBucketERKS2_RKSD_PSt4pairIS2_SD_E
__ZN4llvm8DenseMapIPNS_17MachineBasicBlockEPNS_20ScopedHashTableScopeIPNS_12MachineInstrEjNS_27MachineInstrExpressionTraitENS_18RecyclingAllocatorINS_16BumpPtrAllocatorENS_18ScopedHashTableValIS5_jEELm32ELm8EEEEENS_12DenseMapInfoIS2_EENSE_ISD_EEE4growEj
__ZN4llvm8DenseMapIPNS_17MachineBasicBlockEPNS_20ScopedHashTableScopeIPNS_12MachineInstrEjNS_27MachineInstrExpressionTraitENS_18RecyclingAllocatorINS_16BumpPtrAllocatorENS_18ScopedHashTableValIS5_jEELm32ELm8EEEEENS_12DenseMapInfoIS2_EENSE_ISD_EEE5clearEv
__ZNK4llvm12MachineInstr23hasUnmodeledSideEffectsEv
__ZNK4llvm8DenseMapIPNS_12MachineInstrEPNS_18ScopedHashTableValIS2_jEENS_27MachineInstrExpressionTraitENS_12DenseMapInfoIS5_EEE15LookupBucketForERKS2_RPSt4pairIS2_S5_E
__ZN4llvm27MachineInstrExpressionTrait12getHashValueERKPKNS_12MachineInstrE
__ZN4llvm8DenseMapIPNS_12MachineInstrEPNS_18ScopedHashTableValIS2_jEENS_27MachineInstrExpressionTraitENS_12DenseMapInfoIS5_EEE16InsertIntoBucketERKS2_RKS5_PSt4pairIS2_S5_E
__ZN4llvm8DenseMapIPNS_12MachineInstrEPNS_18ScopedHashTableValIS2_jEENS_27MachineInstrExpressionTraitENS_12DenseMapInfoIS5_EEE4growEj
__ZN12_GLOBAL__N_110MachineCSE9ExitScopeEPN4llvm17MachineBasicBlockE
__ZN4llvm20ScopedHashTableScopeIPNS_12MachineInstrEjNS_27MachineInstrExpressionTraitENS_18RecyclingAllocatorINS_16BumpPtrAllocatorENS_18ScopedHashTableValIS2_jEELm32ELm8EEEED2Ev
__ZNK4llvm12MachineInstr13isIdenticalToEPKS0_NS0_11MICheckTypeE
__ZN4llvm8DenseMapIPNS_15DomTreeNodeBaseINS_17MachineBasicBlockEEES4_NS_12DenseMapInfoIS4_EES6_E16InsertIntoBucketERKS4_S9_PSt4pairIS4_S4_E
__ZN4llvm8DenseMapIPNS_15DomTreeNodeBaseINS_17MachineBasicBlockEEES4_NS_12DenseMapInfoIS4_EES6_E4growEj
__ZN12_GLOBAL__N_110MachineCSE13releaseMemoryEv
__ZN12_GLOBAL__N_114MachineSinking20runOnMachineFunctionERN4llvm15MachineFunctionE
__ZNSt8_Rb_treeISt4pairIPN4llvm17MachineBasicBlockES3_ES4_St9_IdentityIS4_ESt4lessIS4_ESaIS4_EE8_M_eraseEPSt13_Rb_tree_nodeIS4_E
__ZN12_GLOBAL__N_114MachineSinking13releaseMemoryEv
__ZN12_GLOBAL__N_117PeepholeOptimizer20runOnMachineFunctionERN4llvm15MachineFunctionE
__ZN4llvm8DenseMapIjPNS_12MachineInstrENS_12DenseMapInfoIjEENS3_IS2_EEE5clearEv
__ZNK4llvm12X86InstrInfo21isCoalescableExtInstrERKNS_12MachineInstrERjS4_S4_
__ZN12_GLOBAL__N_127UnreachableMachineBlockElim20runOnMachineFunctionERN4llvm15MachineFunctionE
__ZN4llvm12df_ext_beginIPNS_15MachineFunctionENS_11SmallPtrSetIPNS_17MachineBasicBlockELj8EEEEENS_15df_ext_iteratorIT_T0_EERKS8_RS9_
__ZN4llvm11df_iteratorIPNS_15MachineFunctionENS_11SmallPtrSetIPNS_17MachineBasicBlockELj8EEELb1ENS_11GraphTraitsIS2_EEE6toNextEv
__ZN4llvm15MachineFunction14RenumberBlocksEPNS_17MachineBasicBlockE
__ZNSt6vectorIPN4llvm17MachineBasicBlockESaIS2_EE14_M_fill_insertEN9__gnu_cxx17__normal_iteratorIPS2_S4_EEmRKS2_
__ZN4llvm13LiveVariables20runOnMachineFunctionERNS_15MachineFunctionE
__ZN4llvm13LiveVariables15analyzePHINodesERKNS_15MachineFunctionE
__ZN4llvm12df_ext_beginIPNS_17MachineBasicBlockENS_11SmallPtrSetIS2_Lj16EEEEENS_15df_ext_iteratorIT_T0_EERKS6_RS7_
__ZN4llvm13LiveVariables16HandleVirtRegDefEjPNS_12MachineInstrE
__ZN4llvm10IndexedMapINS_13LiveVariables7VarInfoENS_20VirtReg2IndexFunctorEE6resizeEm
__ZN4llvm15SparseBitVectorILj128EEC2ERKS1_
__ZNSt6vectorIN4llvm13LiveVariables7VarInfoESaIS2_EE14_M_fill_insertEN9__gnu_cxx17__normal_iteratorIPS2_S4_EEmRKS2_
__ZSt26__uninitialized_fill_n_auxIPN4llvm13LiveVariables7VarInfoEmS2_EvT_T0_RKT1_St12__false_type
__ZNSt6vectorIPN4llvm12MachineInstrESaIS2_EE13_M_insert_auxEN9__gnu_cxx17__normal_iteratorIPS2_S4_EERKS2_
__ZN4llvm13LiveVariables16HandlePhysRegDefEjPNS_12MachineInstrERNS_11SmallVectorIjLj4EEE
__ZN4llvm13LiveVariables17HandlePhysRegKillEjPNS_12MachineInstrE
__ZN4llvm13LiveVariables16HandleVirtRegUseEjPNS_17MachineBasicBlockEPNS_12MachineInstrE
__ZN4llvm13LiveVariables16HandlePhysRegUseEjPNS_12MachineInstrE
__ZNK4llvm12MachineInstr25findRegisterDefOperandIdxEjbbPKNS_18TargetRegisterInfoE
__ZNK4llvm12MachineInstr25findRegisterUseOperandIdxEjbPKNS_18TargetRegisterInfoE
__ZN4llvm8SmallSetIjLj32EE6insertERKj
__ZN4llvm8SmallSetIjLj8EE6insertERKj
__ZN4llvm12MachineInstr13RemoveOperandEj
__ZN4llvm11df_iteratorIPNS_17MachineBasicBlockENS_11SmallPtrSetIS2_Lj16EEELb1ENS_11GraphTraitsIS2_EEE6toNextEv
__ZN4llvm19ProcessImplicitDefs20runOnMachineFunctionERNS_15MachineFunctionE
__ZN4llvm11SlotIndexes20runOnMachineFunctionERNS_15MachineFunctionE
__ZN4llvm8DenseMapIPKNS_12MachineInstrENS_9SlotIndexENS_12DenseMapInfoIS3_EENS5_IS4_EEE6insertERKSt4pairIS3_S4_E
__ZN4llvm8DenseMapIPKNS_12MachineInstrENS_9SlotIndexENS_12DenseMapInfoIS3_EENS5_IS4_EEE16InsertIntoBucketERKS3_RKS4_PSt4pairIS3_S4_E
__ZN4llvm8DenseMapIPKNS_12MachineInstrENS_9SlotIndexENS_12DenseMapInfoIS3_EENS5_IS4_EEE4growEj
__ZSt16__introsort_loopIPSt4pairIN4llvm9SlotIndexEPNS1_17MachineBasicBlockEElNS1_14Idx2MBBCompareEEvT_S8_T0_T1_
__ZSt22__final_insertion_sortIPSt4pairIN4llvm9SlotIndexEPNS1_17MachineBasicBlockEENS1_14Idx2MBBCompareEEvT_S8_T0_
__ZSt16__insertion_sortIPSt4pairIN4llvm9SlotIndexEPNS1_17MachineBasicBlockEENS1_14Idx2MBBCompareEEvT_S8_T0_
__ZN4llvm13LiveIntervals20runOnMachineFunctionERNS_15MachineFunctionE
__ZN4llvm13LiveIntervals16computeIntervalsEv
__ZN4llvm13LiveIntervals17handleRegisterDefEPNS_17MachineBasicBlockENS_14ilist_iteratorINS_12MachineInstrEEENS_9SlotIndexERNS_14MachineOperandEj
__ZN4llvm13LiveIntervals19getOrCreateIntervalEj
__ZN4llvm8DenseMapIjPNS_12LiveIntervalENS_12DenseMapInfoIjEENS3_IS2_EEE6insertERKSt4pairIjS2_E
__ZN4llvm8DenseMapIjPNS_12LiveIntervalENS_12DenseMapInfoIjEENS3_IS2_EEE16InsertIntoBucketERKjRKS2_PSt4pairIjS2_E
__ZN4llvm8DenseMapIjPNS_12LiveIntervalENS_12DenseMapInfoIjEENS3_IS2_EEE4growEj
__ZN4llvm13LiveIntervals25handlePhysicalRegisterDefEPNS_17MachineBasicBlockENS_14ilist_iteratorINS_12MachineInstrEEENS_9SlotIndexERNS_14MachineOperandERNS_12LiveIntervalEPS4_
__ZN4llvm12LiveInterval4findENS_9SlotIndexE
__ZN4llvm12LiveInterval12addRangeFromENS_9LiveRangeEPS1_
__ZN4llvm15SmallVectorImplINS_9LiveRangeEE6insertEPS1_RKS1_
__ZN4llvm13LiveIntervals24handleVirtualRegisterDefEPNS_17MachineBasicBlockENS_14ilist_iteratorINS_12MachineInstrEEENS_9SlotIndexERNS_14MachineOperandEjRNS_12LiveIntervalE
__ZN4llvm13LiveVariables10getVarInfoEj
__ZN4llvm18LiveDebugVariables20runOnMachineFunctionERNS_15MachineFunctionE
__ZN12_GLOBAL__N_17LDVImpl5clearEv
__ZN4llvm13LexicalScopes10initializeERKNS_15MachineFunctionE
__ZN4llvm13LexicalScopes13releaseMemoryEv
__ZN4llvm13LexicalScopes20extractLexicalScopesERNS_15SmallVectorImplISt4pairIPKNS_12MachineInstrES5_EEERNS_8DenseMapIS5_PNS_12LexicalScopeENS_12DenseMapInfoIS5_EENSC_ISB_EEEE
__ZN12_GLOBAL__N_117RegisterCoalescer20runOnMachineFunctionERN4llvm15MachineFunctionE
__ZN12_GLOBAL__N_117RegisterCoalescer17CopyCoalesceInMBBEPN4llvm17MachineBasicBlockERSt6vectorIPNS1_12MachineInstrESaIS6_EE
__ZN12_GLOBAL__N_117RegisterCoalescer8JoinCopyEPN4llvm12MachineInstrERb
__ZN4llvm13CoalescerPair12setRegistersEPKNS_12MachineInstrE
__ZN12_GLOBAL__N_117RegisterCoalescer23ReMaterializeTrivialDefERN4llvm12LiveIntervalEbjPNS1_12MachineInstrE
__ZNK4llvm12X86InstrInfo33isReallyTriviallyReMaterializableEPKNS_12MachineInstrEPNS_13AliasAnalysisE
__ZN12_GLOBAL__N_117RegisterCoalescer14RemoveCopyFlagEjPKN4llvm12MachineInstrE
__ZNK4llvm12X86InstrInfo13reMaterializeERNS_17MachineBasicBlockENS_14ilist_iteratorINS_12MachineInstrEEEjjPKS4_RKNS_18TargetRegisterInfoE
__ZN4llvm15MachineFunction17CloneMachineInstrEPKNS_12MachineInstrE
__ZN4llvm12MachineInstrC1ERNS_15MachineFunctionERKS0_
__ZN4llvm12MachineInstrC2ERNS_15MachineFunctionERKS0_
__ZN4llvm12MachineInstr18substituteRegisterEjjjRKNS_18TargetRegisterInfoE
__ZN4llvm12MachineInstr15copyImplicitOpsEPKS0_
__ZN4llvm11SlotIndexes25replaceMachineInstrInMapsEPNS_12MachineInstrES2_
__ZN4llvm12MachineInstr15eraseFromParentEv
__ZN4llvm13LiveIntervals12shrinkToUsesEPNS_12LiveIntervalEPNS_15SmallVectorImplIPNS_12MachineInstrEEE
__ZNK4llvm12MachineInstr26readsWritesVirtualRegisterEjPNS_15SmallVectorImplIjEE
__ZN4llvm15SmallVectorImplINS_9LiveRangeEE4swapERS2_
__ZNK4llvm17RegisterClassInfo7computeEPKNS_19TargetRegisterClassE
__ZNK4llvm15X86RegisterInfo25getLargestLegalSuperClassEPKNS_19TargetRegisterClassE
__ZN4llvm12LiveInterval11removeValNoEPNS_6VNInfoE
__ZN4llvm13LiveIntervals14removeIntervalEj
__ZN4llvm11SlotIndexes26removeMachineInstrFromMapsEPNS_12MachineInstrE
__ZN4llvm21CalculateSpillWeights20runOnMachineFunctionERNS_15MachineFunctionE
__ZN4llvm10LiveStacks20runOnMachineFunctionERNS_15MachineFunctionE
__ZN4llvm10VirtRegMap20runOnMachineFunctionERNS_15MachineFunctionE
__ZNSt8_Rb_treeIPN4llvm12MachineInstrESt4pairIKS2_S3_IjNS0_10VirtRegMap6ModRefEEESt10_Select1stIS8_ESt4lessIS2_ESaIS8_EE8_M_eraseEPSt13_Rb_tree_nodeIS8_E
__ZNSt8_Rb_treeIPN4llvm12MachineInstrESt4pairIKS2_St6vectorIS3_IjbESaIS6_EEESt10_Select1stIS9_ESt4lessIS2_ESaIS9_EE8_M_eraseEPSt13_Rb_tree_nodeIS9_E
__ZNSt8_Rb_treeIPN4llvm12MachineInstrESt4pairIKS2_St6vectorIjSaIjEEESt10_Select1stIS8_ESt4lessIS2_ESaIS8_EE8_M_eraseEPSt13_Rb_tree_nodeIS8_E
__ZNSt8_Rb_treeIPKN4llvm19TargetRegisterClassESt4pairIKS3_iESt10_Select1stIS6_ESt4lessIS3_ESaIS6_EE8_M_eraseEPSt13_Rb_tree_nodeIS6_E
__ZN4llvm15SmallVectorImplINS_11SmallPtrSetIPNS_12MachineInstrELj4EEEE6resizeEj
__ZN4llvm8DenseMapIPKNS_19TargetRegisterClassENS_9BitVectorENS_12DenseMapInfoIS3_EENS5_IS4_EEE6insertERKSt4pairIS3_S4_E
__ZN4llvm8DenseMapIPKNS_19TargetRegisterClassENS_9BitVectorENS_12DenseMapInfoIS3_EENS5_IS4_EEE16InsertIntoBucketERKS3_RKS4_PSt4pairIS3_S4_E
__ZN4llvm8DenseMapIPKNS_19TargetRegisterClassENS_9BitVectorENS_12DenseMapInfoIS3_EENS5_IS4_EEE4growEj
__ZN4llvm10VirtRegMap4growEv
__ZNSt6vectorIN4llvm9SlotIndexESaIS1_EE14_M_fill_insertEN9__gnu_cxx17__normal_iteratorIPS1_S3_EEmRKS1_
__ZNSt6vectorIPN4llvm12MachineInstrESaIS2_EE14_M_fill_insertEN9__gnu_cxx17__normal_iteratorIPS2_S4_EEmRKS2_
__ZN4llvm14SpillPlacement20runOnMachineFunctionERNS_15MachineFunctionE
__ZNK4llvm12LoopInfoBaseINS_17MachineBasicBlockENS_11MachineLoopEE10getLoopForEPKS1_
__ZN4llvm13LiveIntervals14getSpillWeightEbbj
__ZN12_GLOBAL__N_18RAGreedy20runOnMachineFunctionERN4llvm15MachineFunctionE
__ZN4llvm12RegAllocBase4initERNS_10VirtRegMapERNS_13LiveIntervalsE
__ZN4llvm19createInlineSpillerERNS_19MachineFunctionPassERNS_15MachineFunctionERNS_10VirtRegMapE
__ZN4llvm13SplitAnalysisC1ERKNS_10VirtRegMapERKNS_13LiveIntervalsERKNS_15MachineLoopInfoE
__ZN4llvm13SplitAnalysisC2ERKNS_10VirtRegMapERKNS_13LiveIntervalsERKNS_15MachineLoopInfoE
__ZNSt8auto_ptrIN4llvm13SplitAnalysisEE5resetEPS1_
__ZN4llvm11SplitEditorC1ERNS_13SplitAnalysisERNS_13LiveIntervalsERNS_10VirtRegMapERNS_20MachineDominatorTreeE
__ZN4llvm11SplitEditorC2ERNS_13SplitAnalysisERNS_13LiveIntervalsERNS_10VirtRegMapERNS_20MachineDominatorTreeE
__ZN4llvm10IndexedMapIN12_GLOBAL__N_18RAGreedy7RegInfoENS_20VirtReg2IndexFunctorEE6resizeEm
__ZN4llvm17InterferenceCache4initEPNS_15MachineFunctionEPNS_17LiveIntervalUnionEPNS_11SlotIndexesEPKNS_18TargetRegisterInfoE
__ZN4llvm15SmallVectorImplIN12_GLOBAL__N_18RAGreedy20GlobalSplitCandidateEE6resizeEj
__ZN4llvm12RegAllocBase16allocatePhysRegsEv
__ZN4llvm12RegAllocBase12seedLiveRegsEv
__ZN4llvm17LiveIntervalUnion5unifyERNS_12LiveIntervalE
__ZN4llvm11IntervalMapINS_9SlotIndexEPNS_12LiveIntervalELj8ENS_15IntervalMapInfoIS1_EEE14const_iterator4findES1_
__ZN4llvm15SmallVectorImplINS_15IntervalMapImpl4Path5EntryEE9push_backERKS3_
__ZN4llvm11IntervalMapINS_9SlotIndexEPNS_12LiveIntervalELj8ENS_15IntervalMapInfoIS1_EEE8iterator6insertES1_S1_S3_
__ZN4llvm15IntervalMapImpl8LeafNodeINS_9SlotIndexEPNS_12LiveIntervalELj8ENS_15IntervalMapInfoIS2_EEE10insertFromERjjS2_S2_S4_
__ZThn32_N12_GLOBAL__N_18RAGreedy7dequeueEv
__ZN4llvm12RegAllocBase13addMBBLiveInsEPNS_15MachineFunctionE
__ZN4llvm13LiveIntervals12addKillFlagsEv
__ZN4llvm10VirtRegMap7rewriteEPNS_11SlotIndexesE
__ZN4llvm18LiveDebugVariables15emitDebugValuesEPNS_10VirtRegMapE
__ZN12_GLOBAL__N_18RAGreedy13releaseMemoryEv
__ZN12_GLOBAL__N_113InlineSpillerD0Ev
__ZN12_GLOBAL__N_113InlineSpillerD1Ev
__ZN4llvm7SpillerD2Ev
__ZN4llvm12RegAllocBase13releaseMemoryEv
__ZN4llvm13LiveIntervals13releaseMemoryEv
__ZN4llvm8DenseMapIjPNS_12LiveIntervalENS_12DenseMapInfoIjEENS3_IS2_EEE5clearEv
__ZN4llvm18LiveDebugVariables13releaseMemoryEv
__ZN4llvm13LiveVariables13releaseMemoryEv
__ZN4llvm14SpillPlacement13releaseMemoryEv
__ZN12_GLOBAL__N_117RegisterCoalescer13releaseMemoryEv
__ZN12_GLOBAL__N_117StackSlotColoring20runOnMachineFunctionERN4llvm15MachineFunctionE
__ZN4llvm11SlotIndexes13releaseMemoryEv
__ZN4llvm8DenseMapIPKNS_12MachineInstrENS_9SlotIndexENS_12DenseMapInfoIS3_EENS5_IS4_EEE5clearEv
__ZN4llvm10LiveStacks13releaseMemoryEv
__ZNSt8_Rb_treeIiSt4pairIKiN4llvm12LiveIntervalEESt10_Select1stIS4_ESt4lessIiESaIS4_EE8_M_eraseEPSt13_Rb_tree_nodeIS4_E
__ZNSt8_Rb_treeIiSt4pairIKiPKN4llvm19TargetRegisterClassEESt10_Select1stIS6_ESt4lessIiESaIS6_EE8_M_eraseEPSt13_Rb_tree_nodeIS6_E
__ZN12_GLOBAL__N_115PostRAScheduler20runOnMachineFunctionERN4llvm15MachineFunctionE
__ZNK4llvm19TargetSubtargetInfo21enablePostRASchedulerENS_10CodeGenOpt5LevelERNS0_16AntiDepBreakModeERNS_15SmallVectorImplIPNS_19TargetRegisterClassEEE
__ZN4llvm20MachineDominatorTree13releaseMemoryEv
__ZN4llvm17DominatorTreeBaseINS_17MachineBasicBlockEE13releaseMemoryEv
__ZN12_GLOBAL__N_116BranchFolderPass20runOnMachineFunctionERN4llvm15MachineFunctionE
__ZN4llvm12BranchFolder16OptimizeFunctionERNS_15MachineFunctionEPKNS_15TargetInstrInfoEPKNS_18TargetRegisterInfoEPNS_17MachineModuleInfoE
__ZNK4llvm12X86InstrInfo13AnalyzeBranchERNS_17MachineBasicBlockERPS1_S4_RNS_15SmallVectorImplINS_14MachineOperandEEEb
__ZNK4llvm12X86InstrInfo24isUnpredicatedTerminatorEPKNS_12MachineInstrE
__ZN4llvm12BranchFolder20OptimizeImpDefsBlockEPNS_17MachineBasicBlockE
__ZN4llvm12BranchFolder15TailMergeBlocksERNS_15MachineFunctionE
__ZL12HashEndOfMBBPKN4llvm17MachineBasicBlockE
__ZNSt6vectorIN4llvm12BranchFolder18MergePotentialsEltESaIS2_EE13_M_insert_auxEN9__gnu_cxx17__normal_iteratorIPS2_S4_EERKS2_
__ZN4llvm12BranchFolder16OptimizeBranchesERNS_15MachineFunctionE
__ZN4llvm12BranchFolder22HoistCommonCodeInSuccsEPNS_17MachineBasicBlockE
__ZN12_GLOBAL__N_116CodePlacementOpt20runOnMachineFunctionERN4llvm15MachineFunctionE
__ZN12_GLOBAL__N_110ExeDepsFix20runOnMachineFunctionERN4llvm15MachineFunctionE
__ZN4llvm13DominatorTreeD0Ev
__ZN4llvm17DominatorTreeBaseINS_10BasicBlockEED0Ev
__ZN4llvm17DominatorTreeBaseINS_10BasicBlockEED2Ev
__ZN4llvm8LoopInfoD0Ev
__ZN4llvm12LoopInfoBaseINS_10BasicBlockENS_4LoopEED2Ev
__ZN4llvm13LPPassManagerD0Ev
__ZN12_GLOBAL__N_112LoopSimplifyD0Ev
__ZN4llvm15ScalarEvolutionD0Ev
__ZN4llvm15ScalarEvolutionD2Ev
__ZN4llvm8DenseMapIPKNS_4SCEVENS_13ConstantRangeENS_12DenseMapInfoIS3_EENS5_IS4_EEED2Ev
__ZN4llvm8DenseMapINS_15ScalarEvolution14SCEVCallbackVHEPKNS_4SCEVENS_12DenseMapInfoIPNS_5ValueEEENS6_IS5_EEED2Ev
__ZN4llvm7IVUsersD0Ev
__ZN12_GLOBAL__N_118LoopStrengthReduceD0Ev
__ZN12_GLOBAL__N_114CodeGenPrepareD0Ev
__ZN4llvm21BranchProbabilityInfoD0Ev
__ZN12_GLOBAL__N_117TailDuplicatePassD0Ev
__ZN12_GLOBAL__N_112OptimizePHIsD0Ev
__ZN12_GLOBAL__N_126DeadMachineInstructionElimD0Ev
__ZN4llvm20MachineDominatorTreeD0Ev
__ZN4llvm17DominatorTreeBaseINS_17MachineBasicBlockEED0Ev
__ZN4llvm17DominatorTreeBaseINS_17MachineBasicBlockEED2Ev
__ZN4llvm15MachineLoopInfoD0Ev
__ZN4llvm12LoopInfoBaseINS_17MachineBasicBlockENS_11MachineLoopEED2Ev
__ZN12_GLOBAL__N_111MachineLICMD0Ev
__ZN12_GLOBAL__N_111MachineLICMD1Ev
__ZN12_GLOBAL__N_110MachineCSED0Ev
__ZN12_GLOBAL__N_114MachineSinkingD0Ev
__ZN12_GLOBAL__N_117PeepholeOptimizerD0Ev
__ZN12_GLOBAL__N_127UnreachableMachineBlockElimD0Ev
__ZN4llvm13LiveVariablesD0Ev
__ZN4llvm13LiveVariablesD2Ev
__ZN4llvm19ProcessImplicitDefsD0Ev
__ZN4llvm11SlotIndexesD0Ev
__ZN4llvm13LiveIntervalsD0Ev
__ZN4llvm18LiveDebugVariablesD0Ev
__ZN4llvm18LiveDebugVariablesD2Ev
__ZN12_GLOBAL__N_117RegisterCoalescerD0Ev
__ZN12_GLOBAL__N_117RegisterCoalescerD1Ev
__ZN4llvm21CalculateSpillWeightsD0Ev
__ZN4llvm10LiveStacksD0Ev
__ZN4llvm10VirtRegMapD0Ev
__ZN4llvm10VirtRegMapD2Ev
__ZN4llvm14SpillPlacementD0Ev
__ZN4llvm14SpillPlacementD2Ev
__ZN12_GLOBAL__N_18RAGreedyD0Ev
__ZN12_GLOBAL__N_18RAGreedyD1Ev
__ZN4llvm17InterferenceCacheD2Ev
__ZN4llvm11SplitEditorD2Ev
__ZNSt8auto_ptrIN4llvm13SplitAnalysisEED2Ev
__ZN4llvm12RegAllocBaseD2Ev
__ZN4llvm12RegAllocBase14LiveUnionArray5clearEv
__ZN12_GLOBAL__N_117StackSlotColoringD0Ev
__ZN12_GLOBAL__N_117StackSlotColoringD1Ev
__ZN12_GLOBAL__N_115PostRASchedulerD0Ev
__ZN12_GLOBAL__N_116BranchFolderPassD0Ev
__ZN12_GLOBAL__N_116CodePlacementOptD0Ev
__ZN12_GLOBAL__N_110ExeDepsFixD0Ev
__ZN4llvm24SpecificBumpPtrAllocatorIN12_GLOBAL__N_111DomainValueEE10DestroyAllEv
__ZN12_GLOBAL__N_19GlobalOptD0Ev
__ZN12_GLOBAL__N_16IPSCCPD0Ev
__ZN12_GLOBAL__N_13DAED0Ev
__ZNSt8_Rb_treeIPKN4llvm8FunctionES3_St9_IdentityIS3_ESt4lessIS3_ESaIS3_EE8_M_eraseEPSt13_Rb_tree_nodeIS3_E
__ZNSt8_Rb_treeIN12_GLOBAL__N_13DAE8RetOrArgES2_St9_IdentityIS2_ESt4lessIS2_ESaIS2_EE8_M_eraseEPSt13_Rb_tree_nodeIS2_E
__ZN4llvm12InstCombinerD0Ev
__ZN12_GLOBAL__N_115CFGSimplifyPassD0Ev
__ZN12_GLOBAL__N_17PruneEHD0Ev
__ZN12_GLOBAL__N_113SimpleInlinerD0Ev
__ZN12_GLOBAL__N_113FunctionAttrsD0Ev
__ZN12_GLOBAL__N_110SROA_SSAUpD0Ev
__ZN12_GLOBAL__N_18EarlyCSED0Ev
__ZN12_GLOBAL__N_116SimplifyLibCallsD0Ev
__ZN4llvm13LazyValueInfoD0Ev
__ZN12_GLOBAL__N_113JumpThreadingD0Ev
__ZN12_GLOBAL__N_126CorrelatedValuePropagationD0Ev
__ZN12_GLOBAL__N_112TailCallElimD0Ev
__ZN12_GLOBAL__N_111ReassociateD0Ev
__ZN12_GLOBAL__N_111ReassociateD1Ev
__ZN12_GLOBAL__N_15LCSSAD0Ev
__ZN12_GLOBAL__N_110LoopRotateD0Ev
__ZN12_GLOBAL__N_14LICMD0Ev
__ZN12_GLOBAL__N_112LoopUnswitchD0Ev
__ZN12_GLOBAL__N_114IndVarSimplifyD0Ev
__ZN12_GLOBAL__N_118LoopIdiomRecognizeD0Ev
__ZN12_GLOBAL__N_112LoopDeletionD0Ev
__ZN12_GLOBAL__N_110LoopUnrollD0Ev
__ZN4llvm24MemoryDependenceAnalysisD0Ev
__ZN4llvm24MemoryDependenceAnalysisD2Ev
__ZN12_GLOBAL__N_13GVND0Ev
__ZN12_GLOBAL__N_13GVND1Ev
__ZN12_GLOBAL__N_19MemCpyOptD0Ev
__ZN12_GLOBAL__N_14SCCPD0Ev
__ZN12_GLOBAL__N_13DSED0Ev
__ZN12_GLOBAL__N_14ADCED0Ev
__ZN12_GLOBAL__N_123StripDeadPrototypesPassD0Ev
__ZN12_GLOBAL__N_113ConstantMergeD0Ev
__ZN12_GLOBAL__N_17SROA_DTD0Ev
__ZN12_GLOBAL__N_120LowerExpectIntrinsicD0Ev
__ZN5clang18EmitAssemblyActionC1EPN4llvm11LLVMContextE
__ZN12_GLOBAL__N_113ARMTargetInfoC2ERKSs
__ZN12_GLOBAL__N_113ARMTargetInfo6setCPUERKSs
__ZN12_GLOBAL__N_113ARMTargetInfo18getCPUDefineSuffixEN4llvm9StringRefE
__ZN4llvm12StringSwitchIPKcS2_E5CasesILj10ELj13ELj14ELj14EEERS3_RAT__S1_RAT0__S1_RAT1__S1_RAT2__S1_RKS2_
__ZN4llvm12StringSwitchIPKcS2_E5CasesILj9ELj11ELj8ELj8ELj5EEERS3_RAT__S1_RAT0__S1_RAT1__S1_RAT2__S1_RAT3__S1_RKS2_
__ZN4llvm12StringSwitchIPKcS2_E5CasesILj9ELj7ELj8ELj8ELj8EEERS3_RAT__S1_RAT0__S1_RAT1__S1_RAT2__S1_RAT3__S1_RKS2_
__ZN4llvm12StringSwitchIPKcS2_E5CasesILj6ELj10ELj10ELj10EEERS3_RAT__S1_RAT0__S1_RAT1__S1_RAT2__S1_RKS2_
__ZN4llvm12StringSwitchIPKcS2_E5CasesILj12ELj12ELj7EEERS3_RAT__S1_RAT0__S1_RAT1__S1_RKS2_
__ZN12_GLOBAL__N_113ARMTargetInfo6setABIERKSs
__ZNK12_GLOBAL__N_113ARMTargetInfo18getDefaultFeaturesERN4llvm9StringMapIbNS1_15MallocAllocatorEEE
__ZNK12_GLOBAL__N_113ARMTargetInfo17setFeatureEnabledERN4llvm9StringMapIbNS1_15MallocAllocatorEEERKSsb
__ZN12_GLOBAL__N_113ARMTargetInfo20HandleTargetFeaturesERSt6vectorISsSaISsEE
__ZSt6__findIN9__gnu_cxx17__normal_iteratorIPSsSt6vectorISsSaISsEEEEA12_cET_S8_S8_RKT0_St26random_access_iterator_tag
__ZSt6__findIN9__gnu_cxx17__normal_iteratorIPSsSt6vectorISsSaISsEEEEA16_cET_S8_S8_RKT0_St26random_access_iterator_tag
__ZNK12_GLOBAL__N_113ARMTargetInfo17getTargetBuiltinsERPKN5clang7Builtin4InfoERj
__ZNK12_GLOBAL__N_113ARMTargetInfo20getVAListDeclarationEv
__ZNK12_GLOBAL__N_112OSTargetInfoINS_13ARMTargetInfoEE16getTargetDefinesERKN5clang11LangOptionsERNS3_12MacroBuilderE
__ZNK12_GLOBAL__N_113ARMTargetInfo16getTargetDefinesERKN5clang11LangOptionsERNS1_12MacroBuilderE
__ZNK12_GLOBAL__N_119DarwinARMTargetInfo12getOSDefinesERKN5clang11LangOptionsERKN4llvm6TripleERNS1_12MacroBuilderE
__ZN5clang7CodeGen15CreateARMCXXABIERNS0_13CodeGenModuleE
__ZNK12_GLOBAL__N_113ARMTargetInfo6getABIEv
__ZNK5clang10ASTContext20getFloatingTypeOrderENS_8QualTypeES1_
__ZNK5clang15UnavailableAttr5cloneERNS_10ASTContextE
__ZNK12_GLOBAL__N_110ARMABIInfo11computeInfoERN5clang7CodeGen14CGFunctionInfoE
__ZN4llvm21RegisterTargetMachineINS_18ThumbTargetMachineEE9AllocatorERKNS_6TargetENS_9StringRefES6_S6_NS_5Reloc5ModelENS_9CodeModel5ModelE
__ZN4llvm18ThumbTargetMachineC2ERKNS_6TargetENS_9StringRefES4_S4_NS_5Reloc5ModelENS_9CodeModel5ModelE
__ZN4llvm20ARMBaseTargetMachineC2ERKNS_6TargetENS_9StringRefES4_S4_NS_5Reloc5ModelENS_9CodeModel5ModelE
__ZL22createARMMCCodeGenInfoN4llvm9StringRefENS_5Reloc5ModelENS_9CodeModel5ModelE
__ZL18createARMMCAsmInfoRKN4llvm6TargetENS_9StringRefE
__ZN4llvm18ARMMCAsmInfoDarwinC1Ev
__ZN4llvm12ARMSubtargetC1ERKSsS2_S2_
__ZN4llvm12ARMSubtargetC2ERKSsS2_S2_
__ZN4llvm6ARM_MC14ParseARMTripleENS_9StringRefE
__ZN4llvm12ARMSubtarget22ParseSubtargetFeaturesENS_9StringRefES1_
__ZNK4llvm15MCSubtargetInfo23getInstrItineraryForCPUENS_9StringRefE
__ZN4llvm15Thumb2InstrInfoC1ERKNS_12ARMSubtargetE
__ZN4llvm16ARMBaseInstrInfoC2ERKNS_12ARMSubtargetE
__ZN4llvm8SmallSetIjLj16EE6insertERKj
__ZN4llvm18Thumb2RegisterInfoC1ERKNS_16ARMBaseInstrInfoERKNS_12ARMSubtargetE
__ZN4llvm19ARMBaseRegisterInfoC2ERKNS_16ARMBaseInstrInfoERKNS_12ARMSubtargetE
__ZN4llvm18ARMGenRegisterInfoC2Ejjj
__ZN4llvm16ARMELFWriterInfoC1ERNS_13TargetMachineE
__ZNK4llvm18ThumbTargetMachine13getTargetDataEv
__ZN4llvm17ARMTargetLoweringC1ERNS_13TargetMachineE
__ZN4llvm17ARMTargetLoweringC2ERNS_13TargetMachineE
__ZNK4llvm20ARMBaseTargetMachine16getSubtargetImplEv
__ZNK4llvm18ThumbTargetMachine15getRegisterInfoEv
__ZNK4llvm15Thumb2InstrInfo15getRegisterInfoEv
__ZNK4llvm20ARMBaseTargetMachine21getInstrItineraryDataEv
__ZN4llvm17ARMTargetLowering14addTypeForNEONENS_3EVTES1_S1_
__ZNK4llvm17ARMTargetLowering23findRepresentativeClassENS_3EVTE
__ZN4llvm19ARMSelectionDAGInfoC1ERKNS_13TargetMachineE
__ZNK4llvm18ThumbTargetMachine17getTargetLoweringEv
__ZN4llvm16createSjLjEHPassEPKNS_14TargetLoweringE
__ZNK12_GLOBAL__N_110SjLjEHPass16getAnalysisUsageERN4llvm13AnalysisUsageE
__ZN4llvm20ARMBaseTargetMachine10addPreISelERNS_15PassManagerBaseENS_10CodeGenOpt5LevelE
__ZN4llvm20ARMBaseTargetMachine15addInstSelectorERNS_15PassManagerBaseENS_10CodeGenOpt5LevelE
__ZN4llvm16createARMISelDagERNS_20ARMBaseTargetMachineENS_10CodeGenOpt5LevelE
__ZNK4llvm18ThumbTargetMachine19getSelectionDAGInfoEv
__ZNK4llvm18ThumbTargetMachine12getInstrInfoEv
__ZN4llvm20ARMBaseTargetMachine14addPreRegAllocERNS_15PassManagerBaseENS_10CodeGenOpt5LevelE
__ZN4llvm17LLVMTargetMachine15addPostRegAllocERNS_15PassManagerBaseENS_10CodeGenOpt5LevelE
__ZN4llvm20ARMBaseTargetMachine12addPreSched2ERNS_15PassManagerBaseENS_10CodeGenOpt5LevelE
__ZNK4llvm12ARMSubtarget23workaroundA9HWBug754320Ev
__ZN4llvm29createA9LoadBugWorkaroundPassEv
__ZN4llvm25createARMExpandPseudoPassEv
__ZN4llvm23createThumb2ITBlockPassEv
__ZN4llvm20ARMBaseTargetMachine14addPreEmitPassERNS_15PassManagerBaseENS_10CodeGenOpt5LevelE
__ZN4llvm29createThumb2SizeReductionPassEv
__ZNK4llvm12ARMSubtarget23workaroundA9HWBug754319Ev
__ZN4llvm30createA9StoreBugWorkaroundPassEv
__ZNK12_GLOBAL__N_114A9StoreBugPass16getAnalysisUsageERN4llvm13AnalysisUsageE
__ZN4llvm27createARMConstantIslandPassEv
__ZL22createARMMCInstPrinterRKN4llvm6TargetEjRKNS_9MCAsmInfoERKNS_15MCSubtargetInfoE
__ZN4llvm14ARMInstPrinterC1ERKNS_9MCAsmInfoERKNS_15MCSubtargetInfoE
__ZN4llvm13TargetMachine22getAsmVerbosityDefaultEv
__ZN4llvm17createAsmStreamerERNS_9MCContextERNS_21formatted_raw_ostreamEbbbbPNS_13MCInstPrinterEPNS_13MCCodeEmitterEPNS_12MCAsmBackendEb
__ZN4llvm18RegisterAsmPrinterINS_13ARMAsmPrinterEE9AllocatorERNS_13TargetMachineERNS_10MCStreamerE
__ZNK12_GLOBAL__N_113MCAsmStreamer12isVerboseAsmEv
__ZN12_GLOBAL__N_110SjLjEHPass16doInitializationERN4llvm6ModuleE
__ZN4llvm6Module19getOrInsertFunctionENS_9StringRefEPNS_4TypeEz
__ZN4llvm6Module19getOrInsertFunctionENS_9StringRefEPNS_12FunctionTypeENS_11AttrListPtrE
__ZN4llvm8Function9setParentEPNS_6ModuleE
__ZN4llvm9Intrinsic14getDeclarationEPNS_6ModuleENS0_2IDENS_8ArrayRefIPNS_4TypeEEE
__ZN4llvm9Intrinsic7getNameENS0_2IDENS_8ArrayRefIPNS_4TypeEEE
__ZN4llvm9Intrinsic7getTypeERNS_11LLVMContextENS0_2IDENS_8ArrayRefIPNS_4TypeEEE
__ZN4llvm6Module19getOrInsertFunctionENS_9StringRefEPNS_12FunctionTypeE
__ZNK4llvm10FoldingSetINS_17AttributeListImplEE10NodeEqualsEPNS_14FoldingSetImpl4NodeERKNS_16FoldingSetNodeIDERS6_
__ZN4llvm13ARMAsmPrinter18EmitStartOfAsmFileERNS_6ModuleE
__ZN12_GLOBAL__N_113MCAsmStreamer13ChangeSectionEPKN4llvm9MCSectionE
__ZNK4llvm14MCSectionMachO20PrintSwitchToSectionERKNS_9MCAsmInfoERNS_11raw_ostreamE
__ZN12_GLOBAL__N_113MCAsmStreamer17EmitAssemblerFlagEN4llvm15MCAssemblerFlagE
__ZN12_GLOBAL__N_113MCAsmStreamer7EmitEOLEv
__ZN12_GLOBAL__N_110SjLjEHPass13runOnFunctionERN4llvm8FunctionE
__ZNK4llvm18ThumbTargetMachine16getFrameLoweringEv
__ZNK4llvm14TargetLowering14CanLowerReturnENS_11CallingConv2IDERNS_15MachineFunctionEbRKNS_15SmallVectorImplINS_3ISD9OutputArgEEERNS_11LLVMContextE
__ZNK4llvm17ARMTargetLowering14createFastISelERNS_20FunctionLoweringInfoE
__ZN4llvm3ARM14createFastISelERNS_20FunctionLoweringInfoE
__ZN4llvm15MachineFunction7getInfoINS_15ARMFunctionInfoEEEPT_v
__ZNK4llvm17ARMTargetLowering20LowerFormalArgumentsENS_7SDValueENS_11CallingConv2IDEbRKNS_15SmallVectorImplINS_3ISD8InputArgEEENS_8DebugLocERNS_12SelectionDAGERNS4_IS1_EE
__ZL11CC_ARM_APCSjN4llvm3MVTES0_NS_11CCValAssign7LocInfoENS_3ISD10ArgFlagsTyERNS_7CCStateE
__ZNK4llvm17ARMTargetLowering14getRegClassForENS_3EVTE
__ZN4llvm16SelectionDAGISel21EmitFunctionEntryCodeEv
__ZN4llvm16SelectionDAGISel17PreprocessISelDAGEv
__ZN12_GLOBAL__N_115ARMDAGToDAGISel6SelectEPN4llvm6SDNodeE
__ZNK4llvm17ARMTargetLowering23getSchedulingPreferenceEPNS_6SDNodeE
__ZN12_GLOBAL__N_111ARMFastISel23TargetSelectInstructionEPKN4llvm11InstructionE
__ZN12_GLOBAL__N_111ARMFastISel10FastEmit_iEN4llvm3MVTES2_jy
__ZN12_GLOBAL__N_111ARMFastISel14FastEmitInst_iEjPKN4llvm19TargetRegisterClassEy
__ZN4llvm8FastISel15createResultRegEPKNS_19TargetRegisterClassE
__ZN12_GLOBAL__N_111ARMFastISel15AddOptionalDefsERKN4llvm19MachineInstrBuilderE
__ZNK4llvm16ARMBaseInstrInfo12isPredicableEPNS_12MachineInstrE
__ZN12_GLOBAL__N_111ARMFastISel17ARMComputeAddressEPKN4llvm5ValueERNS_7AddressE
__ZN12_GLOBAL__N_111ARMFastISel12ARMEmitStoreEN4llvm3EVTEjRNS_7AddressEj
__ZN12_GLOBAL__N_111ARMFastISel18ARMSimplifyAddressERNS_7AddressEN4llvm3EVTE
__ZN12_GLOBAL__N_111ARMFastISel20AddLoadStoreOperandsEN4llvm3EVTERNS_7AddressERKNS1_19MachineInstrBuilderEj
__ZN4llvm18MachinePointerInfo13getFixedStackEix
__ZN4llvm17PseudoSourceValue13getFixedStackEi
__ZN4llvm14object_creatorIN12_GLOBAL__N_112PSVGlobalsTyEEEPvv
__ZN4llvm16getGlobalContextEv
__ZN4llvm14object_creatorINS_11LLVMContextEEEPvv
__ZN4llvm3sys9MutexImpl7acquireEv
__ZNSt8_Rb_treeIiSt4pairIKiPKN4llvm17PseudoSourceValueEESt10_Select1stIS6_ESt4lessIiESaIS6_EE16_M_insert_uniqueESt17_Rb_tree_iteratorIS6_ERKS6_
__ZNSt8_Rb_treeIiSt4pairIKiPKN4llvm17PseudoSourceValueEESt10_Select1stIS6_ESt4lessIiESaIS6_EE16_M_insert_uniqueERKS6_
__ZN4llvm3sys9MutexImpl7releaseEv
__ZN4llvm15MachineFunction20getMachineMemOperandENS_18MachinePointerInfoEjyjPKNS_6MDNodeE
__ZN4llvm17MachineMemOperandC1ENS_18MachinePointerInfoEjyjPKNS_6MDNodeE
__ZN4llvm12MachineInstr13addMemOperandERNS_15MachineFunctionEPNS_17MachineMemOperandE
__ZN4llvm15MachineFunction20allocateMemRefsArrayEm
__ZN12_GLOBAL__N_111ARMFastISelD0Ev
__ZNK4llvm19ARMBaseRegisterInfo28requiresVirtualBaseRegistersERKNS_15MachineFunctionE
__ZN12_GLOBAL__N_118LocalStackSlotPass17AdjustStackOffsetEPN4llvm16MachineFrameInfoEiRxbRj
__ZN4llvmL25array_pod_sort_comparatorIN12_GLOBAL__N_18FrameRefEEEiPKvS4_
__ZNK4llvm19ARMBaseRegisterInfo17needsFrameBaseRegEPNS_12MachineInstrEx
__ZNK4llvm16ARMFrameLowering5hasFPERKNS_15MachineFunctionE
__ZNK4llvm19ARMBaseRegisterInfo18isFrameOffsetLegalEPKNS_12MachineInstrEx
__ZNK4llvm19ARMBaseRegisterInfo24getFrameIndexInstrOffsetEPKNS_12MachineInstrEi
__ZNK4llvm19ARMBaseRegisterInfo18getCalleeSavedRegsEPKNS_15MachineFunctionE
__ZNK4llvm19ARMBaseRegisterInfo15getReservedRegsERKNS_15MachineFunctionE
__ZNK4llvm19ARMBaseRegisterInfo21needsStackRealignmentERKNS_15MachineFunctionE
__ZNK4llvm3ARM9rGPRClass21getRawAllocationOrderERKNS_15MachineFunctionE
__ZNK4llvm19ARMBaseRegisterInfo25getLargestLegalSuperClassEPKNS_19TargetRegisterClassE
__ZNK4llvm3ARM8GPRClass21getRawAllocationOrderERKNS_15MachineFunctionE
__ZNK4llvm16ARMBaseInstrInfo18expandPostRAPseudoENS_14ilist_iteratorINS_12MachineInstrEEE
__ZNK4llvm15Thumb2InstrInfo11copyPhysRegERNS_17MachineBasicBlockENS_14ilist_iteratorINS_12MachineInstrEEENS_8DebugLocEjjb
__ZNK4llvm19ARMBaseRegisterInfo26requiresRegisterScavengingERKNS_15MachineFunctionE
__ZNK4llvm19ARMBaseRegisterInfo28requiresFrameIndexScavengingERKNS_15MachineFunctionE
__ZNK4llvm16ARMFrameLowering36processFunctionBeforeCalleeSavedScanERNS_15MachineFunctionEPNS_12RegScavengerE
__ZNK4llvm19ARMBaseRegisterInfo16getFrameRegisterERKNS_15MachineFunctionE
__ZNK4llvm19ARMBaseRegisterInfo14hasBasePointerERKNS_15MachineFunctionE
__ZL17estimateStackSizeRN4llvm15MachineFunctionE
__ZNK4llvm19ARMBaseRegisterInfo20cannotEliminateFrameERKNS_15MachineFunctionE
__ZNK4llvm18TargetRegisterInfo23useFPForScavengingIndexERKNS_15MachineFunctionE
__ZNK4llvm16ARMFrameLowering12emitPrologueERNS_15MachineFunctionE
__ZN4llvm22emitT2RegPlusImmediateERNS_17MachineBasicBlockERNS_14ilist_iteratorINS_12MachineInstrEEENS_8DebugLocEjjiNS_5ARMCC9CondCodesEjRKNS_16ARMBaseInstrInfoEj
__ZNK4llvm16ARMFrameLowering12emitEpilogueERNS_15MachineFunctionERNS_17MachineBasicBlockE
__ZNK4llvm19ARMBaseRegisterInfo19eliminateFrameIndexENS_14ilist_iteratorINS_12MachineInstrEEEiPNS_12RegScavengerE
__ZNK4llvm16ARMFrameLowering26ResolveFrameIndexReferenceERKNS_15MachineFunctionEiRji
__ZN4llvm19rewriteT2FrameIndexERNS_12MachineInstrEjjRiRKNS_16ARMBaseInstrInfoE
__ZN4llvm3PEI24scavengeFrameVirtualRegsERNS_15MachineFunctionE
__ZN4llvm12RegScavenger15enterBasicBlockEPNS_17MachineBasicBlockE
__ZN4llvm12RegScavenger12initRegStateEv
__ZNK4llvm16MachineFrameInfo15getPristineRegsEPKNS_17MachineBasicBlockE
__ZN4llvm12RegScavenger7forwardEv
__ZNK4llvm16ARMBaseInstrInfo12isPredicatedEPKNS_12MachineInstrE
__ZNK4llvm12MachineInstr23findFirstPredOperandIdxEv
__ZN4llvm12RegScavenger7setUsedERNS_9BitVectorE
__ZNK4llvm9BitVectorcoEv
__ZN12_GLOBAL__N_113A9LoadBugPass20runOnMachineFunctionERN4llvm15MachineFunctionE
__ZN12_GLOBAL__N_115ARMExpandPseudo20runOnMachineFunctionERN4llvm15MachineFunctionE
__ZN12_GLOBAL__N_115ARMExpandPseudo8ExpandMIERN4llvm17MachineBasicBlockENS1_14ilist_iteratorINS1_12MachineInstrEEE
__ZN4llvm17getInstrPredicateEPKNS_12MachineInstrERj
__ZN12_GLOBAL__N_117Thumb2ITBlockPass20runOnMachineFunctionERN4llvm15MachineFunctionE
__ZN4llvm19getITInstrPredicateEPKNS_12MachineInstrERj
__ZN12_GLOBAL__N_116Thumb2SizeReduce20runOnMachineFunctionERN4llvm15MachineFunctionE
__ZNK4llvm17MachineBasicBlock8isLiveInEj
__ZN12_GLOBAL__N_116Thumb2SizeReduce14ReduceToNarrowERN4llvm17MachineBasicBlockEPNS1_12MachineInstrERKNS_11ReduceEntryEbS5_b
__ZN12_GLOBAL__N_114A9StoreBugPass20runOnMachineFunctionERN4llvm15MachineFunctionE
__ZN4llvm8DenseMapIPNS_17MachineBasicBlockEbNS_12DenseMapInfoIS2_EENS3_IbEEE16InsertIntoBucketERKS2_RKbPSt4pairIS2_bE
__ZN4llvm8DenseMapIPNS_17MachineBasicBlockEbNS_12DenseMapInfoIS2_EENS3_IbEEE4growEj
__ZN4llvm8DenseMapIPNS_17MachineBasicBlockEN12_GLOBAL__N_114A9StoreBugPass13PipelineStateENS_12DenseMapInfoIS2_EENS6_IS5_EEEixERKS2_
__ZN4llvm8DenseMapIPNS_17MachineBasicBlockEN12_GLOBAL__N_114A9StoreBugPass13PipelineStateENS_12DenseMapInfoIS2_EENS6_IS5_EEE4growEj
__ZN4llvm25ReversePostOrderTraversalIPNS_15MachineFunctionENS_11GraphTraitsIS2_EEEC2ES2_
__ZN4llvm8po_beginIPNS_17MachineBasicBlockEEENS_11po_iteratorIT_NS_11SmallPtrSetIPNS_11GraphTraitsIS4_E8NodeTypeELj8EEELb0ES7_EES4_
__ZNSt6vectorISt4pairIPN4llvm17MachineBasicBlockEN9__gnu_cxx17__normal_iteratorIPS3_S_IS3_SaIS3_EEEEESaISA_EE13_M_insert_auxENS5_IPSA_SC_EERKSA_
__ZN4llvm11po_iteratorIPNS_17MachineBasicBlockENS_11SmallPtrSetIS2_Lj8EEELb0ENS_11GraphTraitsIS2_EEE13traverseChildEv
__ZSt4copyIN4llvm11po_iteratorIPNS0_17MachineBasicBlockENS0_11SmallPtrSetIS3_Lj8EEELb0ENS0_11GraphTraitsIS3_EEEESt20back_insert_iteratorISt6vectorIS3_SaIS3_EEEET0_T_SF_SE_
__ZNSt13__copy_normalILb0ELb0EE8__copy_nIN4llvm11po_iteratorIPNS2_17MachineBasicBlockENS2_11SmallPtrSetIS5_Lj8EEELb0ENS2_11GraphTraitsIS5_EEEESt20back_insert_iteratorISt6vectorIS5_SaIS5_EEEEET0_T_SH_SG_
__ZSt10__copy_auxIN4llvm11po_iteratorIPNS0_17MachineBasicBlockENS0_11SmallPtrSetIS3_Lj8EEELb0ENS0_11GraphTraitsIS3_EEEESt20back_insert_iteratorISt6vectorIS3_SaIS3_EEEET0_T_SF_SE_
__ZNSt6__copyILb0ESt20forward_iterator_tagE4copyIN4llvm11po_iteratorIPNS3_17MachineBasicBlockENS3_11SmallPtrSetIS6_Lj8EEELb0ENS3_11GraphTraitsIS6_EEEESt20back_insert_iteratorISt6vectorIS6_SaIS6_EEEEET0_T_SI_SH_
__ZN12_GLOBAL__N_118ARMConstantIslands20runOnMachineFunctionERN4llvm15MachineFunctionE
__ZNK4llvm16ARMBaseInstrInfo18GetInstSizeInBytesEPKNS_12MachineInstrE
__ZN4llvm13ARMAsmPrinter20runOnMachineFunctionERNS_15MachineFunctionE
__ZN4llvm13ARMAsmPrinter16EmitConstantPoolEv
__ZN12_GLOBAL__N_113MCAsmStreamer19EmitSymbolAttributeEPN4llvm8MCSymbolENS1_12MCSymbolAttrE
__ZN4llvm8DenseMapIPKNS_8MCSymbolEjNS_12DenseMapInfoIS3_EENS4_IjEEE16InsertIntoBucketERKS3_RKjPSt4pairIS3_jE
__ZN4llvm8DenseMapIPKNS_8MCSymbolEjNS_12DenseMapInfoIS3_EENS4_IjEEE4growEj
__ZNK4llvm8MCSymbol5printERNS_11raw_ostreamE
__ZN12_GLOBAL__N_113MCAsmStreamer17EmitCodeAlignmentEjj
__ZN12_GLOBAL__N_113MCAsmStreamer20EmitValueToAlignmentEjxjj
__ZN4llvm13ARMAsmPrinter22EmitFunctionEntryLabelEv
__ZN12_GLOBAL__N_113MCAsmStreamer13EmitThumbFuncEPN4llvm8MCSymbolE
__ZN12_GLOBAL__N_113MCAsmStreamer9EmitLabelEPN4llvm8MCSymbolE
__ZN4llvm13ARMAsmPrinter15EmitInstructionEPKNS_12MachineInstrE
__ZN4llvm13ARMAsmPrinter27emitPseudoExpansionLoweringERNS_10MCStreamerEPKNS_12MachineInstrE
__ZN4llvm28LowerARMMachineInstrToMCInstEPKNS_12MachineInstrERNS_6MCInstERNS_13ARMAsmPrinterE
__ZN4llvm13ARMAsmPrinter12lowerOperandERKNS_14MachineOperandERNS_9MCOperandE
__ZN12_GLOBAL__N_113MCAsmStreamer15EmitInstructionERKN4llvm6MCInstE
__ZN4llvm14ARMInstPrinter9printInstEPKNS_6MCInstERNS_11raw_ostreamENS_9StringRefE
__ZN4llvm14ARMInstPrinter16printInstructionEPKNS_6MCInstERNS_11raw_ostreamE
__ZN4llvm14ARMInstPrinter12printOperandEPKNS_6MCInstEjRNS_11raw_ostreamE
__ZN4llvm11raw_ostreamlsEx
__ZN4llvm13MCInstPrinter15printAnnotationERNS_11raw_ostreamENS_9StringRefE
__ZN4llvm14ARMInstPrinter30printThumbAddrModeImm5SOperandEPKNS_6MCInstEjRNS_11raw_ostreamEj
__ZN12_GLOBAL__N_113MCAsmStreamer12AddBlankLineEv
__ZN4llvm15ARMFunctionInfoD1Ev
__ZN12_GLOBAL__N_113MCAsmStreamer9EmitBytesEN4llvm9StringRefEj
__ZL17PrintQuotedStringN4llvm9StringRefERNS_11raw_ostreamE
__ZN12_GLOBAL__N_113MCAsmStreamer12EmitIntValueEyjj
__ZN12_GLOBAL__N_113MCAsmStreamer13EmitValueImplEPKN4llvm6MCExprEjj
__ZNK4llvm6MCExpr5printERNS_11raw_ostreamE
__ZN12_GLOBAL__N_113MCAsmStreamer8EmitFillEyhj
__ZN4llvm13ARMAsmPrinter16EmitEndOfAsmFileERNS_6ModuleE
__ZN12_GLOBAL__N_113MCAsmStreamer6FinishEv
__ZN12_GLOBAL__N_110SjLjEHPassD0Ev
__ZN12_GLOBAL__N_115ARMDAGToDAGISelD0Ev
__ZN12_GLOBAL__N_113A9LoadBugPassD0Ev
__ZN12_GLOBAL__N_115ARMExpandPseudoD0Ev
__ZN12_GLOBAL__N_117Thumb2ITBlockPassD0Ev
__ZN12_GLOBAL__N_116Thumb2SizeReduceD0Ev
__ZN12_GLOBAL__N_114A9StoreBugPassD0Ev
__ZN12_GLOBAL__N_118ARMConstantIslandsD0Ev
__ZN12_GLOBAL__N_118ARMConstantIslandsD1Ev
__ZN4llvm13ARMAsmPrinterD0Ev
__ZN12_GLOBAL__N_113MCAsmStreamerD0Ev
__ZN12_GLOBAL__N_113MCAsmStreamerD1Ev
__ZN4llvm14ARMInstPrinterD0Ev
__ZN4llvm13MCInstPrinterD2Ev
__ZN4llvm15Thumb1InstrInfoC1ERKNS_12ARMSubtargetE
__ZN4llvm18Thumb1RegisterInfoC1ERKNS_16ARMBaseInstrInfoERKNS_12ARMSubtargetE
__ZNK4llvm15Thumb1InstrInfo15getRegisterInfoEv
__ZN4llvm19SelectionDAGBuilder11visitAllocaERKNS_10AllocaInstE
__ZN4llvm19SelectionDAGBuilder10visitStoreERKNS_9StoreInstE
__ZN4llvm12SelectionDAG13getFrameIndexEiNS_3EVTEb
__ZN4llvm19SelectionDAGBuilder7getRootEv
__ZN4llvm12SelectionDAG8getStoreENS_7SDValueENS_8DebugLocES1_S1_NS_18MachinePointerInfoEbbjPKNS_6MDNodeE
__ZN4llvm12SelectionDAG8getStoreENS_7SDValueENS_8DebugLocES1_S1_PNS_17MachineMemOperandE
__ZN4llvm12SelectionDAG7getNodeEjNS_8DebugLocENS_3EVTE
__ZN4llvm16FoldingSetNodeID10AddIntegerEl
__ZN4llvm11StoreSDNodeC2EPNS_7SDValueENS_8DebugLocENS_8SDVTListENS_3ISD14MemIndexedModeEbNS_3EVTEPNS_17MachineMemOperandE
__ZN4llvm12SelectionDAG7getNodeEjNS_8DebugLocENS_3EVTENS_7SDValueE
__ZN4llvm19SelectionDAGBuilder20AssignOrderingToNodeEPKNS_6SDNodeE
__ZN4llvm12SelectionDAG14AssignOrderingEPKNS_6SDNodeEj
__ZNK4llvm17ARMTargetLowering11LowerReturnENS_7SDValueENS_11CallingConv2IDEbRKNS_15SmallVectorImplINS_3ISD9OutputArgEEERKNS4_IS1_EENS_8DebugLocERNS_12SelectionDAGE
__ZL14RetCC_ARM_APCSjN4llvm3MVTES0_NS_11CCValAssign7LocInfoENS_3ISD10ArgFlagsTyERNS_7CCStateE
__ZNK4llvm17ARMTargetLowering17PerformDAGCombineEPNS_6SDNodeERNS_14TargetLowering15DAGCombinerInfoE
__ZN12_GLOBAL__N_111DAGCombiner28CombineToPreIndexedLoadStoreEPN4llvm6SDNodeE
__ZN12_GLOBAL__N_111DAGCombiner29CombineToPostIndexedLoadStoreEPN4llvm6SDNodeE
__ZNK4llvm6SDNode15hasNUsesOfValueEjj
__ZNK4llvm17MachineMemOperand12getAlignmentEv
__ZN4llvm12SelectionDAG18UpdateNodeOperandsEPNS_6SDNodeENS_7SDValueES3_S3_S3_
__ZNK4llvm17ARMTargetLowering29allowsUnalignedMemoryAccessesENS_3EVTE
__ZNK12_GLOBAL__N_115ARMDAGToDAGISel21CheckPatternPredicateEj
__ZNK12_GLOBAL__N_115ARMDAGToDAGISel18CheckNodePredicateEPN4llvm6SDNodeEj
__ZN12_GLOBAL__N_115ARMDAGToDAGISel19CheckComplexPatternEPN4llvm6SDNodeES3_NS1_7SDValueEjRNS1_15SmallVectorImplISt4pairIS4_S3_EEE
__ZN12_GLOBAL__N_115ARMDAGToDAGISel21SelectThumbAddrModeRIEN4llvm7SDValueERS2_S3_j
__ZN12_GLOBAL__N_115ARMDAGToDAGISel21SelectThumbAddrModeSPEN4llvm7SDValueERS2_S3_
__ZN12_GLOBAL__N_115ARMDAGToDAGISel24SelectThumbAddrModeImm5SEN4llvm7SDValueEjRS2_S3_
__ZN4llvm6ARM_AML17isSOImmTwoPartValEj
__ZN4llvm12InstrEmitter10AddOperandEPNS_12MachineInstrENS_7SDValueEjPKNS_11MCInstrDescERNS_8DenseMapIS3_jNS_12DenseMapInfoIS3_EENS8_IjEEEEbbb
__ZN4llvm12InstrEmitter18AddRegisterOperandEPNS_12MachineInstrENS_7SDValueEjPKNS_11MCInstrDescERNS_8DenseMapIS3_jNS_12DenseMapInfoIS3_EENS8_IjEEEEbbb
__ZN4llvm19MachineRegisterInfo17constrainRegClassEjPKNS_19TargetRegisterClassEj
__ZNK4llvm18Thumb1RegisterInfo18getPointerRegClassEj
__ZNK4llvm19ARMBaseRegisterInfo28materializeFrameBaseRegisterEPNS_17MachineBasicBlockEjix
__ZNK4llvm18Thumb1RegisterInfo17resolveFrameIndexENS_14ilist_iteratorINS_12MachineInstrEEEjx
__ZNK4llvm18Thumb1RegisterInfo17rewriteFrameIndexENS_14ilist_iteratorINS_12MachineInstrEEEjjRiRKNS_16ARMBaseInstrInfoE
__ZNK4llvm18Thumb1RegisterInfo25getLargestLegalSuperClassEPKNS_19TargetRegisterClassE
__ZN12_GLOBAL__N_16RAFast12spillVirtRegEN4llvm14ilist_iteratorINS1_12MachineInstrEEEj
__ZN12_GLOBAL__N_16RAFast12spillVirtRegEN4llvm14ilist_iteratorINS1_12MachineInstrEEENS1_16DenseMapIteratorIjNS0_7LiveRegENS1_12DenseMapInfoIjEENS7_IS6_EELb0EEE
__ZNK4llvm15Thumb1InstrInfo19storeRegToStackSlotERNS_17MachineBasicBlockENS_14ilist_iteratorINS_12MachineInstrEEEjbiPKNS_19TargetRegisterClassEPKNS_18TargetRegisterInfoE
__ZN4llvm8DenseMapIjNS_11SmallVectorIPNS_12MachineInstrELj4EEENS_12DenseMapInfoIjEENS5_IS4_EEE16FindAndConstructERKj
__ZN4llvm8DenseMapIjNS_11SmallVectorIPNS_12MachineInstrELj4EEENS_12DenseMapInfoIjEENS5_IS4_EEE16InsertIntoBucketERKjRKS4_PSt4pairIjS4_E
__ZN4llvm8DenseMapIjNS_11SmallVectorIPNS_12MachineInstrELj4EEENS_12DenseMapInfoIjEENS5_IS4_EEE4growEj
__ZNK4llvm15Thumb1InstrInfo11copyPhysRegERNS_17MachineBasicBlockENS_14ilist_iteratorINS_12MachineInstrEEENS_8DebugLocEjjb
__ZNK4llvm19Thumb1FrameLowering12emitPrologueERNS_15MachineFunctionE
__ZN4llvm25emitThumbRegPlusImmediateERNS_17MachineBasicBlockERNS_14ilist_iteratorINS_12MachineInstrEEENS_8DebugLocEjjiRKNS_15TargetInstrInfoERKNS_19ARMBaseRegisterInfoEj
__ZNK4llvm19Thumb1FrameLowering12emitEpilogueERNS_15MachineFunctionERNS_17MachineBasicBlockE
__ZNK4llvm18Thumb1RegisterInfo19eliminateFrameIndexENS_14ilist_iteratorINS_12MachineInstrEEEiPNS_12RegScavengerE
__ZN4llvm21createGlobalMergePassEPKNS_14TargetLoweringE
__ZN4llvm25initializeGlobalMergePassERNS_12PassRegistryE
__ZNK12_GLOBAL__N_111GlobalMerge16getAnalysisUsageERN4llvm13AnalysisUsageE
__ZN4llvm34createARMLoadStoreOptimizationPassEb
__ZN4llvm21createIfConverterPassEv
__ZN4llvm25initializeIfConverterPassERNS_12PassRegistryE
__ZN4llvm42initializeMachineBranchProbabilityInfoPassERNS_12PassRegistryE
__ZNK12_GLOBAL__N_111IfConverter16getAnalysisUsageERN4llvm13AnalysisUsageE
__ZN4llvm15callDefaultCtorINS_28MachineBranchProbabilityInfoEEEPNS_4PassEv
__ZNK4llvm28MachineBranchProbabilityInfo16getAnalysisUsageERNS_13AnalysisUsageE
__ZN12_GLOBAL__N_111GlobalMerge16doInitializationERN4llvm6ModuleE
__ZNK4llvm17ARMTargetLowering22getMaximalGlobalOffsetEv
__ZN12_GLOBAL__N_111GlobalMerge13runOnFunctionERN4llvm8FunctionE
__ZN4llvm28createHybridListDAGSchedulerEPNS_16SelectionDAGISelENS_10CodeGenOpt5LevelE
__ZNK4llvm19ARMBaseRegisterInfo19getRegPressureLimitEPKNS_19TargetRegisterClassERNS_15MachineFunctionE
__ZNK4llvm16ARMBaseInstrInfo28CreateTargetHazardRecognizerEPKNS_13TargetMachineEPKNS_11ScheduleDAGE
__ZNK4llvm19TargetInstrInfoImpl24usePreRAHazardRecognizerEv
__ZN4llvm26ScoreboardHazardRecognizerC1EPKNS_18InstrItineraryDataEPKNS_11ScheduleDAGEPKc
__ZN4llvm26ScoreboardHazardRecognizerC2EPKNS_18InstrItineraryDataEPKNS_11ScheduleDAGEPKc
__ZNK4llvm16ARMBaseInstrInfo15getInstrLatencyEPKNS_18InstrItineraryDataEPNS_6SDNodeE
__ZNK4llvm16ARMBaseInstrInfo17getOperandLatencyEPKNS_18InstrItineraryDataEPNS_6SDNodeEjS5_j
__ZN4llvm26ScoreboardHazardRecognizer5ResetEv
__ZN12_GLOBAL__N_125RegReductionPriorityQueueINS_17hybrid_ls_rr_sortEE3popEv
__ZN12_GLOBAL__N_112popFromQueueINS_17hybrid_ls_rr_sortEEEPN4llvm5SUnitERSt6vectorIS4_SaIS4_EERT_PNS2_11ScheduleDAGE
__ZN4llvm26ScoreboardHazardRecognizer13getHazardTypeEPNS_5SUnitEi
__ZNK4llvm11ScheduleDAG11getNodeDescEPKNS_6SDNodeE
__ZN4llvm26ScoreboardHazardRecognizer15EmitInstructionEPNS_5SUnitE
__ZNK4llvm26ScoreboardHazardRecognizer12atIssueLimitEv
__ZN4llvm26ScoreboardHazardRecognizer11RecedeCycleEv
__ZN4llvm26ScoreboardHazardRecognizerD0Ev
__ZN4llvm24ScheduleHazardRecognizerD2Ev
__ZN12_GLOBAL__N_125RegReductionPriorityQueueINS_17hybrid_ls_rr_sortEED0Ev
__ZNK4llvm3ARM8DPRClass21getRawAllocationOrderERKNS_15MachineFunctionE
__ZNK4llvm3ARM8QPRClass21getRawAllocationOrderERKNS_15MachineFunctionE
__ZNK4llvm3ARM12GPRnopcClass21getRawAllocationOrderERKNS_15MachineFunctionE
__ZNK4llvm3ARM9QQPRClass21getRawAllocationOrderERKNS_15MachineFunctionE
__ZNK4llvm3ARM10tcGPRClass21getRawAllocationOrderERKNS_15MachineFunctionE
__ZNK4llvm3ARM11QQQQPRClass21getRawAllocationOrderERKNS_15MachineFunctionE
__ZNK4llvm3ARM23QQQQPR_with_ssub_0Class21getRawAllocationOrderERKNS_15MachineFunctionE
__ZNK4llvm14MachineOperand13isIdenticalToERKS0_
__ZN4llvm8DenseMapIjPNS_12MachineInstrENS_12DenseMapInfoIjEENS3_IS2_EEE6insertERKSt4pairIjS2_E
__ZN4llvm8DenseMapIjPNS_12MachineInstrENS_12DenseMapInfoIjEENS3_IS2_EEE16InsertIntoBucketERKjRKS2_PSt4pairIjS2_E
__ZN4llvm8DenseMapIjPNS_12MachineInstrENS_12DenseMapInfoIjEENS3_IS2_EEE4growEj
__ZN4llvm8SmallSetIjLj4EE6insertERKj
__ZNK4llvm15TargetInstrInfo21isCoalescableExtInstrERKNS_12MachineInstrERjS4_S4_
__ZNK4llvm16ARMBaseInstrInfo13FoldImmediateEPNS_12MachineInstrES2_jPNS_19MachineRegisterInfoE
__ZN12_GLOBAL__N_123ARMPreAllocLoadStoreOpt20runOnMachineFunctionERN4llvm15MachineFunctionE
__ZL10isMemoryOpPKN4llvm12MachineInstrE
__ZNK4llvm15TargetInstrInfo33isReallyTriviallyReMaterializableEPKNS_12MachineInstrEPNS_13AliasAnalysisE
__ZNK4llvm15TargetInstrInfo40isReallyTriviallyReMaterializableGenericEPKNS_12MachineInstrEPNS_13AliasAnalysisE
__ZNK4llvm16ARMBaseInstrInfo19isLoadFromStackSlotEPKNS_12MachineInstrERi
__ZNK4llvm16ARMBaseInstrInfo13reMaterializeERNS_17MachineBasicBlockENS_14ilist_iteratorINS_12MachineInstrEEEjjPKS4_RKNS_18TargetRegisterInfoE
__ZN12_GLOBAL__N_115ARMLoadStoreOpt20runOnMachineFunctionERN4llvm15MachineFunctionE
__ZN12_GLOBAL__N_111IfConverter20runOnMachineFunctionERN4llvm15MachineFunctionE
__ZN4llvm12BranchFolderC1Ebb
__ZNK4llvm16ARMBaseInstrInfo13AnalyzeBranchERNS_17MachineBasicBlockERPS1_S4_RNS_15SmallVectorImplINS_14MachineOperandEEEb
__ZNK4llvm15TargetInstrInfo24isUnpredicatedTerminatorEPKNS_12MachineInstrE
__ZN12_GLOBAL__N_111IfConverter6BBInfoC1ERKS1_
__ZN12_GLOBAL__N_111IfConverter12AnalyzeBlockEPN4llvm17MachineBasicBlockERSt6vectorIPNS0_10IfcvtTokenESaIS6_EE
__ZNK4llvm16ARMBaseInstrInfo15getInstrLatencyEPKNS_18InstrItineraryDataEPKNS_12MachineInstrEPj
__ZNK4llvm16ARMBaseInstrInfo16DefinesPredicateEPNS_12MachineInstrERSt6vectorINS_14MachineOperandESaIS4_EE
__ZSt21__inplace_stable_sortIN9__gnu_cxx17__normal_iteratorIPPN12_GLOBAL__N_111IfConverter10IfcvtTokenESt6vectorIS5_SaIS5_EEEEPFbS5_S5_EEvT_SD_T0_
__ZSt16__insertion_sortIN9__gnu_cxx17__normal_iteratorIPPN12_GLOBAL__N_111IfConverter10IfcvtTokenESt6vectorIS5_SaIS5_EEEEPFbS5_S5_EEvT_SD_T0_
__ZNK4llvm12ARMSubtarget21enablePostRASchedulerENS_10CodeGenOpt5LevelERNS_19TargetSubtargetInfo16AntiDepBreakModeERNS_15SmallVectorImplIPNS_19TargetRegisterClassEEE
__ZN4llvm17ScheduleDAGInstrsC2ERNS_15MachineFunctionERKNS_15MachineLoopInfoERKNS_20MachineDominatorTreeE
__ZNSt6vectorIS_IPN4llvm5SUnitESaIS2_EESaIS4_EEC2EmRKS4_RKS5_
__ZNK4llvm16ARMBaseInstrInfo34CreateTargetPostRAHazardRecognizerEPKNS_18InstrItineraryDataEPKNS_11ScheduleDAGE
__ZN4llvm22CriticalAntiDepBreakerC1ERNS_15MachineFunctionERKNS_17RegisterClassInfoE
__ZN4llvm22CriticalAntiDepBreakerC2ERNS_15MachineFunctionERKNS_17RegisterClassInfoE
__ZN4llvm17ScheduleDAGInstrs10StartBlockEPNS_17MachineBasicBlockE
__ZNSt8_Rb_treeIjSt4pairIKjS0_IPKN4llvm14MachineOperandEjEESt10_Select1stIS7_ESt4lessIjESaIS7_EE8_M_eraseEPSt13_Rb_tree_nodeIS7_E
__ZN4llvm19ARMHazardRecognizer5ResetEv
__ZN4llvm22CriticalAntiDepBreaker10StartBlockEPNS_17MachineBasicBlockE
__ZNK4llvm16ARMBaseInstrInfo20isSchedulingBoundaryEPKNS_12MachineInstrEPKNS_17MachineBasicBlockERKNS_15MachineFunctionE
__ZN4llvm17ScheduleDAGInstrs3RunEPNS_17MachineBasicBlockENS_14ilist_iteratorINS_12MachineInstrEEES5_j
__ZN12_GLOBAL__N_120SchedulePostRATDList8ScheduleEv
__ZN4llvm17ScheduleDAGInstrs15BuildSchedGraphEPNS_13AliasAnalysisE
__ZNK4llvm11ScheduleDAG18ForceUnitLatenciesEv
__ZNK4llvm19TargetSubtargetInfo24getSpecialAddressLatencyEv
__ZN4llvm17ScheduleDAGInstrs19AddSchedBarrierDepsEv
__ZNSt8_Rb_treeIPKN4llvm5ValueESt4pairIKS3_St6vectorIPNS0_5SUnitESaIS8_EEESt10_Select1stISB_ESt4lessIS3_ESaISB_EE8_M_eraseEPSt13_Rb_tree_nodeISB_E
__ZNSt8_Rb_treeIPKN4llvm5ValueESt4pairIKS3_PNS0_5SUnitEESt10_Select1stIS8_ESt4lessIS3_ESaIS8_EE8_M_eraseEPSt13_Rb_tree_nodeIS8_E
__ZN4llvm22CriticalAntiDepBreaker21BreakAntiDependenciesERKSt6vectorINS_5SUnitESaIS2_EENS_14ilist_iteratorINS_12MachineInstrEEES9_jRS1_ISt4pairIPS8_SB_ESaISC_EE
__ZN4llvm20LatencyPriorityQueue9initNodesERSt6vectorINS_5SUnitESaIS2_EE
__ZNK4llvm20LatencyPriorityQueue5emptyEv
__ZN4llvm20LatencyPriorityQueue12releaseStateEv
__ZN4llvm17ScheduleDAGInstrs12EmitScheduleEv
__ZN4llvm22CriticalAntiDepBreaker7ObserveEPNS_12MachineInstrEjj
__ZN4llvm22CriticalAntiDepBreaker18PrescanInstructionEPNS_12MachineInstrE
__ZN4llvm22CriticalAntiDepBreaker15ScanInstructionEPNS_12MachineInstrEj
__ZN4llvm17ScheduleDAGInstrs8NewSUnitEPNS_12MachineInstrE
__ZN4llvm17ScheduleDAGInstrs14ComputeLatencyEPNS_5SUnitE
__ZNK4llvm17ScheduleDAGInstrs21ComputeOperandLatencyEPNS_5SUnitES2_RNS_4SDepE
__ZNK4llvm16ARMBaseInstrInfo17getOperandLatencyEPKNS_18InstrItineraryDataEPKNS_12MachineInstrEjS6_j
__ZNK4llvm16ARMBaseInstrInfo17getOperandLatencyEPKNS_18InstrItineraryDataERKNS_11MCInstrDescEjjS6_jj
__ZNK4llvm12MachineInstr20hasVolatileMemoryRefEv
__ZN4llvm8DenseMapIPNS_12MachineInstrEPKNS_5SUnitENS_12DenseMapInfoIS2_EENS6_IS5_EEE16InsertIntoBucketERKS2_RKS5_PSt4pairIS2_S5_E
__ZN4llvm8DenseMapIPNS_12MachineInstrEPKNS_5SUnitENS_12DenseMapInfoIS2_EENS6_IS5_EEE4growEj
__ZNK4llvm12MachineInstr21isRegTiedToUseOperandEjPj
__ZN4llvm8SmallSetIjLj4EE5eraseERKj
__ZNSt8_Rb_treeIjSt4pairIKjPN4llvm14MachineOperandEESt10_Select1stIS5_ESt4lessIjESaIS5_EE5eraseESt17_Rb_tree_iteratorIS5_ESD_
__ZNSt8_Rb_treeIjSt4pairIKjPN4llvm14MachineOperandEESt10_Select1stIS5_ESt4lessIjESaIS5_EE8_M_eraseEPSt13_Rb_tree_nodeIS5_E
__ZN4llvm20LatencyPriorityQueue4pushEPNS_5SUnitE
__ZN4llvm20LatencyPriorityQueue3popEv
__ZN4llvm19ARMHazardRecognizer13getHazardTypeEPNS_5SUnitEi
__ZN4llvm5SUnit17setDepthToAtLeastEj
__ZN4llvm20LatencyPriorityQueue13ScheduledNodeEPNS_5SUnitE
__ZN4llvm20LatencyPriorityQueue32AdjustPriorityOfUnscheduledPredsEPNS_5SUnitE
__ZN4llvm19ARMHazardRecognizer15EmitInstructionEPNS_5SUnitE
__ZN4llvm22CriticalAntiDepBreaker11FinishBlockEv
__ZN4llvm17ScheduleDAGInstrs11FinishBlockEv
__ZNSt8_Rb_treeIjjSt9_IdentityIjESt4lessIjESaIjEE16_M_insert_uniqueERKj
__ZN12_GLOBAL__N_120SchedulePostRATDListD1Ev
__ZN4llvm19ARMHazardRecognizerD0Ev
__ZN4llvm22CriticalAntiDepBreakerD0Ev
__ZN4llvm22CriticalAntiDepBreakerD2Ev
__ZN4llvm14AntiDepBreakerD2Ev
__ZN4llvm17ScheduleDAGInstrsD2Ev
__ZN12_GLOBAL__N_111GlobalMergeD0Ev
__ZN12_GLOBAL__N_123ARMPreAllocLoadStoreOptD0Ev
__ZN12_GLOBAL__N_115ARMLoadStoreOptD0Ev
__ZN12_GLOBAL__N_111IfConverterD0Ev
__ZN4llvm28MachineBranchProbabilityInfoD0Ev
__ZN4llvm26createBURRListDAGSchedulerEPNS_16SelectionDAGISelENS_10CodeGenOpt5LevelE
__ZN12_GLOBAL__N_125RegReductionPriorityQueueINS_13bu_ls_rr_sortEE3popEv
__ZN12_GLOBAL__N_125RegReductionPriorityQueueINS_13bu_ls_rr_sortEED0Ev
__ZN4llvm14VirtRegAuxInfo22CalculateWeightAndHintERNS_12LiveIntervalE
__ZN4llvm8DenseMapIjfNS_12DenseMapInfoIjEENS1_IfEEE16InsertIntoBucketERKjRKfPSt4pairIjfE
__ZN4llvm8DenseMapIjfNS_12DenseMapInfoIjEENS1_IfEEE4growEj
__ZN4llvm8DenseMapIjfNS_12DenseMapInfoIjEENS1_IfEEE5clearEv
__ZThn32_N12_GLOBAL__N_18RAGreedy7enqueueEPN4llvm12LiveIntervalE
__ZN12_GLOBAL__N_18RAGreedy7enqueueEPN4llvm12LiveIntervalE
__ZNK4llvm12LiveInterval7getSizeEv
__ZN4llvm10VirtRegMap15getRegAllocPrefEj
__ZNSt14priority_queueISt4pairIjjESt6vectorIS1_SaIS1_EESt4lessIS1_EE4pushERKS1_
__ZSt13__adjust_heapIN9__gnu_cxx17__normal_iteratorIPSt4pairIjjESt6vectorIS3_SaIS3_EEEElS3_St4lessIS3_EEvT_T0_SC_T1_T2_
__ZThn32_N12_GLOBAL__N_18RAGreedy13selectOrSplitERN4llvm12LiveIntervalERNS1_15SmallVectorImplIPS2_EE
__ZN12_GLOBAL__N_18RAGreedy13selectOrSplitERN4llvm12LiveIntervalERNS1_15SmallVectorImplIPS2_EE
__ZN4llvm15AllocationOrderC1EjRKNS_10VirtRegMapERKNS_17RegisterClassInfoE
__ZN4llvm15AllocationOrderC2EjRKNS_10VirtRegMapERKNS_17RegisterClassInfoE
__ZN12_GLOBAL__N_18RAGreedy9tryAssignERN4llvm12LiveIntervalERNS1_15AllocationOrderERNS1_15SmallVectorImplIPS2_EE
__ZN4llvm12RegAllocBase24checkPhysRegInterferenceERNS_12LiveIntervalEj
__ZN4llvm17LiveIntervalUnion5Query23collectInterferingVRegsEj
__ZN4llvm15AllocationOrderD1Ev
__ZN4llvm12RegAllocBase6assignERNS_12LiveIntervalEj
__ZN4llvm10VirtRegMap26RemoveMachineInstrFromMapsEPNS_12MachineInstrE
__ZNSt8_Rb_treeIPN4llvm12MachineInstrESt4pairIKS2_S3_IjNS0_10VirtRegMap6ModRefEEESt10_Select1stIS8_ESt4lessIS2_ESaIS8_EE5eraseESt17_Rb_tree_iteratorIS8_ESG_
__ZNSt8_Rb_treeIPN4llvm12MachineInstrESt4pairIKS2_St6vectorIS3_IjbESaIS6_EEESt10_Select1stIS9_ESt4lessIS2_ESaIS9_EE5eraseESt17_Rb_tree_iteratorIS9_ESH_
__ZNSt8_Rb_treeIPN4llvm12MachineInstrESt4pairIKS2_St6vectorIjSaIjEEESt10_Select1stIS8_ESt4lessIS2_ESaIS8_EE5eraseESt17_Rb_tree_iteratorIS8_ESG_
__ZN5clang10ASTContext24GetGVALinkageForVariableEPKNS_7VarDeclE
__ZN5clang4Sema18SemaBuiltinVAStartEPNS_8CallExprE
__ZN5clang8CallExpr15getDirectCalleeEv
__ZNK5clang12FunctionDecl10isVariadicEv
__ZN5clang6Parser29ParseBuiltinPrimaryExpressionEv
__ZN5clang6Parser13ParseTypeNameEPNS_11SourceRangeENS_10Declarator10TheContextENS_15AccessSpecifierEPPNS_4DeclE
__ZN5clang4Sema10ActOnVAArgENS_14SourceLocationEPNS_4ExprENS_9OpaquePtrINS_8QualTypeEEES1_
__ZN5clang4Sema14BuildVAArgExprENS_14SourceLocationEPNS_4ExprEPNS_14TypeSourceInfoES1_
__ZN5clang9VAArgExprC2ENS_14SourceLocationEPNS_4ExprEPNS_14TypeSourceInfoES1_NS_8QualTypeE
__ZN5clang6Parser19ParseWhileStatementERNS_16ParsedAttributesE
__ZN5clang6Parser18ParseGotoStatementERNS_16ParsedAttributesE
__ZN5clang4Sema19LookupOrCreateLabelEPNS_14IdentifierInfoENS_14SourceLocationES3_
__ZN5clang9LabelDecl6CreateERNS_10ASTContextEPNS_11DeclContextENS_14SourceLocationEPNS_14IdentifierInfoE
__ZN5clang18IdentifierResolver15InsertDeclAfterENS0_8iteratorEPNS_9NamedDeclE
__ZN5clang4Sema13ActOnGotoStmtENS_14SourceLocationES1_PNS_9LabelDeclE
__ZN5clang4Sema14ActOnWhileStmtENS_14SourceLocationENS0_11FullExprArgEPNS_4DeclEPNS_4StmtE
__ZN5clang9WhileStmtC1ERNS_10ASTContextEPNS_7VarDeclEPNS_4ExprEPNS_4StmtENS_14SourceLocationE
__ZN5clang9WhileStmt20setConditionVariableERNS_10ASTContextEPNS_7VarDeclE
__ZN5clang6Parser21ParseLabeledStatementERNS_16ParsedAttributesE
__ZN5clang4Sema14ActOnLabelStmtENS_14SourceLocationEPNS_9LabelDeclES1_PNS_4StmtE
__ZN5clang19AnalysisDeclContext6getCFGEv
__ZNK5clang19AnalysisDeclContext7getBodyEv
__ZN5clang3CFG8buildCFGEPKNS_4DeclEPNS_4StmtEPNS_10ASTContextERKNS0_12BuildOptionsE
__ZN5clang3CFG11createBlockEv
__ZN5clang8CFGBlockC2EjRNS_17BumpVectorContextE
__ZN12_GLOBAL__N_110CFGBuilder5VisitEPN5clang4StmtENS_13AddStmtChoiceE
__ZN12_GLOBAL__N_110CFGBuilder17VisitCompoundStmtEPN5clang12CompoundStmtE
__ZN12_GLOBAL__N_110CFGBuilder20addLocalScopeForStmtEPN5clang4StmtE
__ZNK5clang4Stmt24stripLabelLikeStatementsEv
__ZN12_GLOBAL__N_110CFGBuilder23addLocalScopeForVarDeclEPN5clang7VarDeclEPNS_10LocalScopeE
__ZN12_GLOBAL__N_110CFGBuilder20addAutomaticObjDtorsENS_10LocalScope14const_iteratorES2_PN5clang4StmtE
__ZN5clang8CFGBlock12addSuccessorEPS0_RNS_17BumpVectorContextE
__ZN12_GLOBAL__N_110CFGBuilder9alwaysAddEPKN5clang4StmtE
__ZN5clang8CFGBlock10appendStmtEPNS_4StmtERNS_17BumpVectorContextE
__ZN12_GLOBAL__N_110CFGBuilder13VisitChildrenEPN5clang4StmtE
__ZN5clang18getFunctionExtInfoERKNS_4TypeE
__ZN4llvm8DenseMapIPN5clang9LabelDeclEN12_GLOBAL__N_117BlockScopePosPairENS_12DenseMapInfoIS3_EENS6_IS5_EEE4growEj
__ZNK5clang4Expr26EvaluateAsBooleanConditionERbRKNS_10ASTContextE
__ZNK5clang6IfStmt20getConditionVariableEv
__ZNK5clang9WhileStmt20getConditionVariableEv
__ZN12_GLOBAL__N_110CFGBuilder16VisitDeclSubExprEPN5clang8DeclStmtE
__ZN5clang14reachable_code22ScanReachableFromBlockEPKNS_8CFGBlockERN4llvm9BitVectorE
__ZN5clang3CFGD1Ev
__ZN5clang3CFGD2Ev
__ZN5clang4Sema32DefaultVariadicArgumentPromotionEPNS_4ExprENS0_16VariadicCallTypeEPNS_12FunctionDeclE
__ZN5clang8CFGBlock10FilterEdgeERKNS0_13FilterOptionsEPKS0_S5_
__ZN4llvm7APFloat19multiplySignificandERKS0_PS1_
__ZN4llvm5APInt12tcShiftRightEPyjj
__ZL26handleIntToFloatConversionRN5clang4SemaERNS_12ActionResultIPNS_4ExprELb1EEES6_NS_8QualTypeES7_bb
__ZN12_GLOBAL__N_110CFGBuilder24VisitConditionalOperatorEPN5clang27AbstractConditionalOperatorENS_13AddStmtChoiceE
__ZN5clang4Sema30CreateUnaryExprOrTypeTraitExprEPNS_4ExprENS_14SourceLocationENS_20UnaryExprOrTypeTraitE
__ZN5clang4Sema32CheckUnaryExprOrTypeTraitOperandEPNS_4ExprENS_20UnaryExprOrTypeTraitE
__ZN5clang4Sema23RequireCompleteExprTypeEPNS_4ExprERKNS_17PartialDiagnosticESt4pairINS_14SourceLocationES3_E
__ZNK5clang4Stmt7ProfileERN4llvm16FoldingSetNodeIDERKNS_10ASTContextEb
__ZN5clang15StmtVisitorBaseINS_14make_const_ptrEN12_GLOBAL__N_112StmtProfilerEvE5VisitEPKNS_4StmtE
__ZN12_GLOBAL__N_112StmtProfiler9VisitStmtEPKN5clang4StmtE
__ZN12_GLOBAL__N_112StmtProfiler9VisitDeclEPKN5clang4DeclE
__ZN5clang4Sema28FindCompositeObjCPointerTypeERNS_12ActionResultIPNS_4ExprELb1EEES5_NS_14SourceLocationE
__ZN5clang15StmtVisitorBaseINS_14make_const_ptrEN12_GLOBAL__N_113HasSideEffectEbE5VisitEPKNS_4StmtE
__ZN4llvm8DenseMapIPN5clang9NamedDeclENS1_14SourceLocationENS_12DenseMapInfoIS3_EENS5_IS4_EEE16InsertIntoBucketERKS3_RKS4_PSt4pairIS3_S4_E
__ZN4llvm8DenseMapIPN5clang9NamedDeclENS1_14SourceLocationENS_12DenseMapInfoIS3_EENS5_IS4_EEE4growEj
__ZN5clang4Sema20IsNoReturnConversionENS_8QualTypeES1_RS1_
__ZN5clang7VarDecl16getCanonicalDeclEv
__ZN5clang6Parser17ParseForStatementERNS_16ParsedAttributesE
__ZNK5clang6Parser18isTokIdentifier_inEv
__ZN5clang4Sema12ActOnForStmtENS_14SourceLocationES1_PNS_4StmtENS0_11FullExprArgEPNS_4DeclES4_S1_S3_
__ZN5clang7ForStmtC1ERNS_10ASTContextEPNS_4StmtEPNS_4ExprEPNS_7VarDeclES6_S4_NS_14SourceLocationES9_S9_
__ZN5clang7ForStmt20setConditionVariableERNS_10ASTContextEPNS_7VarDeclE
__ZN4llvm7APFloatC1ERKNS_12fltSemanticsEy
__ZN4llvm7APFloatC2ERKNS_12fltSemanticsEy
__ZN4llvm7APFloat16convertFromAPIntERKNS_5APIntEbNS0_12roundingModeE
__ZNSt15__copy_backwardILb0ESt26random_access_iterator_tagE8__copy_bIPSt4pairIN4llvm6APSIntEPN5clang8CaseStmtEESA_EET0_T_SC_SB_
__ZSt25__unguarded_linear_insertIPSt4pairIN4llvm6APSIntEPN5clang8CaseStmtEES6_PFbRKS6_S9_EEvT_T0_T1_
__ZNK5clang10SwitchStmt20getConditionVariableEv
__ZN12_GLOBAL__N_1L13shouldAddCaseERbPKN5clang4Expr10EvalResultEPKNS1_8CaseStmtERNS1_10ASTContextE
__ZN12_GLOBAL__N_17CCValueC1ERKN5clang7APValueENS0_11GlobalValueE
__ZNK5clang7ForStmt20getConditionVariableEv
__ZL12IsStringInitPN5clang4ExprEPKNS_9ArrayTypeERNS_10ASTContextE
__ZL15CheckStringInitPN5clang4ExprERNS_8QualTypeEPKNS_9ArrayTypeERNS_4SemaE
__ZN5clang4Sema27CheckForConstantInitializerEPNS_4ExprENS_8QualTypeE
__ZNK5clang4Expr21isConstantInitializerERNS_10ASTContextEb
__ZN12_GLOBAL__N_120PointerExprEvaluator19VisitBinaryOperatorEPKN5clang14BinaryOperatorE
__ZSt16__merge_backwardIPSt4pairIN4llvm6APSIntEPN5clang8CaseStmtEES7_S7_PFbRKS6_S9_EET1_T_SD_T0_SE_SC_T2_
__ZN12_GLOBAL__N_118FloatExprEvaluator19VisitBinaryOperatorEPKN5clang14BinaryOperatorE
__ZL36checkConditionalPointerCompatibilityRN5clang4SemaERNS_12ActionResultIPNS_4ExprELb1EEES6_NS_14SourceLocationE
__ZNK5clang4Type15isAggregateTypeEv
__ZN12_GLOBAL__N_115InitListChecker14CheckArrayTypeERKN5clang17InitializedEntityEPNS1_12InitListExprERNS1_8QualTypeEN4llvm6APSIntEbRjS6_SB_
__ZN12_GLOBAL__N_115InitListChecker21CheckStructUnionTypesERKN5clang17InitializedEntityEPNS1_12InitListExprENS1_8QualTypeENS1_11DeclContext22specific_decl_iteratorINS1_9FieldDeclEEEbRjS6_SC_b
__ZN5clang4Sema10CanUseDeclEPNS_9NamedDeclE
__ZN5clang8QualType27getSplitUnqualifiedTypeImplES0_
__ZN12_GLOBAL__N_115InitListChecker23FillInValueInitForFieldEjPN5clang9FieldDeclERKNS1_17InitializedEntityEPNS1_12InitListExprERb
__ZNK5clang4Expr13isEvaluatableERKNS_10ASTContextE
__ZN5clang7APValue9setLValueEPKNS_4ExprERKNS_9CharUnitsEN4llvm8ArrayRefINS0_15LValuePathEntryEEE
__ZN5clang4Sema14CheckBlockCallEPNS_9NamedDeclEPNS_8CallExprE
__ZN5clang4Sema13ActOnNullStmtENS_14SourceLocationEb
__ZN5clang4Sema18CheckSelfReferenceEPNS_4DeclEPNS_4ExprE
__ZN5clang20EvaluatedExprVisitorIN12_GLOBAL__N_120SelfReferenceCheckerEE9VisitStmtEPNS_4StmtE
__ZNK5clang4Expr14HasSideEffectsERKNS_10ASTContextE
__ZL15isSafeToConvertPKN5clang10RecordDeclERNS_7CodeGen12CodeGenTypesERN4llvm11SmallPtrSetIS2_Lj16EEE
__ZNK5clang7CodeGen12CodeGenTypes22isRecordLayoutCompleteEPKNS_4TypeE
__ZN5clang7CodeGen12CodeGenTypes29isFuncTypeArgumentConvertibleENS_8QualTypeE
__ZL15isSafeToConvertN5clang8QualTypeERNS_7CodeGen12CodeGenTypesERN4llvm11SmallPtrSetIPKNS_10RecordDeclELj16EEE
__ZN4llvm4Type11getDoubleTyERNS_11LLVMContextE
__ZN5clang7CodeGen15CodeGenFunction12EmitDeclStmtERKNS_8DeclStmtE
__ZN5clang7CodeGen15CodeGenFunction8EmitDeclERKNS_4DeclE
__ZN5clang7CodeGen15CodeGenFunction11EmitVarDeclERKNS_7VarDeclE
__ZN5clang7CodeGen15CodeGenFunction17EmitAutoVarAllocaERKNS_7VarDeclE
__ZNK5clang10TargetInfo31useGlobalsForAutomaticVariablesEv
__ZN5clang7CodeGen15CodeGenFunction15EmitAutoVarInitERKNS1_15AutoVarEmissionE
__ZNK5clang7CodeGen15CodeGenFunction15AutoVarEmission16getObjectAddressERS1_
__ZN5clang7CodeGen15CodeGenFunction14EmitExprAsInitEPKNS_4ExprEPKNS_9ValueDeclENS0_6LValueEb
__ZN5clang7CodeGen15CodeGenFunction14EmitScalarInitEPKNS_4ExprEPKNS_9ValueDeclENS0_6LValueEb
__ZN12_GLOBAL__N_117ScalarExprEmitter13VisitCallExprEPKN5clang8CallExprE
__ZNK5clang8CallExpr17getCallReturnTypeEv
__ZN5clang7CodeGen15CodeGenFunction12EmitCallExprEPKNS_8CallExprENS0_15ReturnValueSlotE
__ZN12_GLOBAL__N_117ScalarExprEmitter13VisitCastExprEPN5clang8CastExprE
__ZN5clang7CodeGen15CodeGenFunction10EmitLValueEPKNS_4ExprE
__ZN5clang7CodeGen15CodeGenFunction17EmitDeclRefLValueEPKNS_11DeclRefExprE
__ZL22EmitFunctionDeclLValueRN5clang7CodeGen15CodeGenFunctionEPKNS_4ExprEPKNS_12FunctionDeclE
__ZN5clang7CodeGen13CodeGenModule17GetAddrOfFunctionENS_10GlobalDeclEPN4llvm4TypeEb
__ZN5clang7CodeGen15CodeGenFunction8EmitCallENS_8QualTypeEPN4llvm5ValueENS0_15ReturnValueSlotENS_17ConstExprIteratorES7_PKNS_4DeclE
__ZN5clang7CodeGen15CodeGenFunction12EmitCallArgsINS_17FunctionProtoTypeEEEvRNS0_11CallArgListEPKT_NS_17ConstExprIteratorES9_
__ZNK5clang17ConstExprIteratordeEv
__ZN5clang7CodeGen15CodeGenFunction11EmitCallArgERNS0_11CallArgListEPKNS_4ExprENS_8QualTypeE
__ZN5clang7CodeGen15CodeGenFunction17EmitAnyExprToTempEPKNS_4ExprE
__ZN5clang7CodeGen15CodeGenFunction11EmitAnyExprEPKNS_4ExprENS0_12AggValueSlotEb
__ZN4llvm15SmallVectorImplIN5clang7CodeGen7CallArgEE9push_backERKS3_
__ZN5clang7CodeGen12CodeGenTypes15getFunctionInfoENS_8QualTypeERKNS0_11CallArgListERKNS_12FunctionType7ExtInfoE
__ZN5clang7CodeGen15CodeGenFunction8EmitCallERKNS0_14CGFunctionInfoEPN4llvm5ValueENS0_15ReturnValueSlotERKNS0_11CallArgListEPKNS_4DeclEPPNS5_11InstructionE
__ZN4llvm9IRBuilderILb0ENS_14ConstantFolderENS_24IRBuilderDefaultInserterILb0EEEE10CreateCallEPNS_5ValueENS_8ArrayRefIS6_EERKNS_5TwineE
__ZN4llvm8CallInst4initEPNS_5ValueENS_8ArrayRefIS2_EERKNS_5TwineE
__ZNSt6__copyILb0ESt26random_access_iterator_tagE4copyIPKPN4llvm5ValueEPNS3_3UseEEET0_T_SB_SA_
__ZNK4llvm8CallInst12paramHasAttrEjj
__ZN5clang7CodeGen15CodeGenFunction22EmitStoreThroughLValueENS0_6RValueENS0_6LValueE
__ZN5clang7CodeGen15CodeGenFunction19EmitAutoVarCleanupsERKNS1_15AutoVarEmissionE
__ZN5clang8QualType20isDestructedTypeImplES0_
__ZN4llvm19ConstantPointerNull3getEPNS_11PointerTypeE
__ZN5clang7CodeGen15CodeGenFunction17EmitStaticVarDeclERKNS_7VarDeclEN4llvm11GlobalValue12LinkageTypesE
__ZN5clang7CodeGen15CodeGenFunction19CreateStaticVarDeclERKNS_7VarDeclEPKcN4llvm11GlobalValue12LinkageTypesE
__ZL17GetStaticDeclNameRN5clang7CodeGen15CodeGenFunctionERKNS_7VarDeclEPKc
__ZN5clang7CodeGen13CodeGenModule16EmitNullConstantENS_8QualTypeE
__ZN5clang7CodeGen12CodeGenTypes19isZeroInitializableENS_8QualTypeE
__ZN5clang7CodeGen15CodeGenFunction29AddInitializerToStaticVarDeclERKNS_7VarDeclEPN4llvm14GlobalVariableE
__ZN5clang7CodeGen13CodeGenModule16EmitConstantExprEPKNS_4ExprENS_8QualTypeEPNS0_15CodeGenFunctionE
__ZN5clang7CodeGen15CodeGenFunction15EmitIgnoredExprEPKNS_4ExprE
__ZN5clang7CodeGen15CodeGenFunction17EmitCheckedLValueEPKNS_4ExprE
__ZL20setObjCGCLValueClassRKN5clang10ASTContextEPKNS_4ExprERNS_7CodeGen6LValueEb
__ZN5clang7CodeGen15CodeGenFunction16EmitLoadOfLValueENS0_6LValueE
__ZN5clang7CodeGen15CodeGenFunction16EmitLoadOfScalarENS0_6LValueE
__ZN4llvm9IRBuilderILb0ENS_14ConstantFolderENS_24IRBuilderDefaultInserterILb0EEEE10CreateLoadEPNS_5ValueERKNS_5TwineE
__ZN4llvm8LoadInstC1EPNS_5ValueEPKcbPNS_11InstructionE
__ZN4llvm8LoadInstC2EPNS_5ValueEPKcbPNS_11InstructionE
__ZN4llvm8LoadInst12setAlignmentEj
__ZN5clang7CodeGen15CodeGenFunction14EmitFromMemoryEPN4llvm5ValueENS_8QualTypeE
__ZN5clang7CodeGen15CodeGenFunction14GetUndefRValueENS_8QualTypeE
__ZN5clang7CodeGen15CodeGenFunction10EmitIfStmtERKNS_6IfStmtE
__ZN5clang7CodeGen15CodeGenFunction28ConstantFoldsToSimpleIntegerEPKNS_4ExprERb
__ZN5clang7CodeGen15CodeGenFunction28ConstantFoldsToSimpleIntegerEPKNS_4ExprERN4llvm5APIntE
__ZN5clang7CodeGen15CodeGenFunction20EmitBranchOnBoolExprEPKNS_4ExprEPN4llvm10BasicBlockES7_
__ZN5clang7CodeGen15CodeGenFunction18EvaluateExprAsBoolEPKNS_4ExprE
__ZN5clang7CodeGen15CodeGenFunction20EmitScalarConversionEPN4llvm5ValueENS_8QualTypeES5_
__ZN12_GLOBAL__N_117ScalarExprEmitter20EmitScalarConversionEPN4llvm5ValueEN5clang8QualTypeES5_
__ZN12_GLOBAL__N_117ScalarExprEmitter23EmitIntToBoolConversionEPN4llvm5ValueE
__ZN4llvm9IRBuilderILb0ENS_14ConstantFolderENS_24IRBuilderDefaultInserterILb0EEEE10CreateICmpENS_7CmpInst9PredicateEPNS_5ValueES8_RKNS_5TwineE
__ZN4llvm4Type9getInt1TyERNS_11LLVMContextE
__ZN4llvm7CmpInstC2EPNS_4TypeENS_11Instruction8OtherOpsEtPNS_5ValueES6_RKNS_5TwineEPS3_
__ZN4llvm9IRBuilderILb0ENS_14ConstantFolderENS_24IRBuilderDefaultInserterILb0EEEE12CreateCondBrEPNS_5ValueEPNS_10BasicBlockES8_
__ZN4llvm10BranchInstC1EPNS_10BasicBlockES2_PNS_5ValueEPNS_11InstructionE
__ZN4llvm10BranchInstC2EPNS_10BasicBlockES2_PNS_5ValueEPNS_11InstructionE
__ZN5clang7CodeGen15CodeGenFunction9EmitBlockEPN4llvm10BasicBlockEb
__ZN4llvm21SymbolTableListTraitsINS_10BasicBlockENS_8FunctionEE13addNodeToListEPS1_
__ZN4llvm10BasicBlock9setParentEPNS_8FunctionE
__ZL23EmitGlobalVarDeclLValueRN5clang7CodeGen15CodeGenFunctionEPKNS_4ExprEPKNS_7VarDeclE
__ZN5clang7CodeGen13CodeGenModule18GetAddrOfGlobalVarEPKNS_7VarDeclEPN4llvm4TypeE
__ZN5clang7CodeGen13CodeGenModule21GetOrCreateLLVMGlobalEN4llvm9StringRefEPNS2_11PointerTypeEPKNS_7VarDeclEb
__ZNSt6vectorIN5clang10GlobalDeclESaIS1_EE13_M_insert_auxEN9__gnu_cxx17__normal_iteratorIPS1_S3_EERKS1_
__ZL20DeclIsConstantGlobalRN5clang10ASTContextEPKNS_7VarDeclEb
__ZN4llvm9IRBuilderILb0ENS_14ConstantFolderENS_24IRBuilderDefaultInserterILb0EEEE10CreateCastENS_11Instruction7CastOpsEPNS_5ValueEPNS_4TypeERKNS_5TwineE
__ZN5clang7CodeGen15CodeGenFunction11EmitForStmtERKNS_7ForStmtE
__ZN4llvm15SmallVectorImplIN5clang7CodeGen15CodeGenFunction13BreakContinueEE9push_backERKS4_
__ZN12_GLOBAL__N_117ScalarExprEmitter11EmitCompareEPKN5clang14BinaryOperatorEjjj
__ZNK4llvm4Type16isFPOrFPVectorTyEv
__ZN4llvm9IRBuilderILb0ENS_14ConstantFolderENS_24IRBuilderDefaultInserterILb0EEEE13CreateIntCastEPNS_5ValueEPNS_4TypeEbRKNS_5TwineE
__ZN4llvm8CastInst17CreateIntegerCastEPNS_5ValueEPNS_4TypeEbRKNS_5TwineEPNS_11InstructionE
__ZN4llvm4Type19getScalarSizeInBitsEv
__ZN4llvm8CastInst6CreateENS_11Instruction7CastOpsEPNS_5ValueEPNS_4TypeERKNS_5TwineEPS1_
__ZN4llvm8CastInstC2EPNS_4TypeEjPNS_5ValueERKNS_5TwineEPNS_11InstructionE
__ZN4llvm8ZExtInstD0Ev
__ZN5clang7CodeGen15CodeGenFunction14EmitMemberExprEPKNS_10MemberExprE
__ZN5clang7CodeGen15CodeGenFunction18EmitLValueForFieldEPN4llvm5ValueEPKNS_9FieldDeclEj
__ZN5clang7CodeGen12CodeGenTypes17getCGRecordLayoutEPKNS_10RecordDeclE
__ZN4llvm9IRBuilderILb0ENS_14ConstantFolderENS_24IRBuilderDefaultInserterILb0EEEE26CreateConstInBoundsGEP2_32EPNS_5ValueEjjRKNS_5TwineE
__ZN4llvm17GetElementPtrInst4initEPNS_5ValueENS_8ArrayRefIS2_EERKNS_5TwineE
__ZN4llvm17GetElementPtrInst13setIsInBoundsEb
__ZN5clang7CodeGen15CodeGenFunction9EmitCheckEPN4llvm5ValueEj
__ZN12_GLOBAL__N_117ScalarExprEmitter7EmitAddERKNS_9BinOpInfoE
__ZN4llvm9IRBuilderILb0ENS_14ConstantFolderENS_24IRBuilderDefaultInserterILb0EEEE23CreateInsertNUWNSWBinOpENS_11Instruction9BinaryOpsEPNS_5ValueES8_RKNS_5TwineEbb
__ZN4llvm14BinaryOperator6CreateENS_11Instruction9BinaryOpsEPNS_5ValueES4_RKNS_5TwineEPS1_
__ZN4llvm14BinaryOperatorC2ENS_11Instruction9BinaryOpsEPNS_5ValueES4_PNS_4TypeERKNS_5TwineEPS1_
__ZN4llvm14BinaryOperator18setHasNoSignedWrapEb
__ZN5clang7CodeGen15CodeGenFunction15EmitBuiltinExprEPKNS_12FunctionDeclEjPKNS_8CallExprE
__ZN12_GLOBAL__N_120PointerExprEvaluator13VisitCallExprEPKN5clang8CallExprE
__ZN5clang7CodeGen15CodeGenFunction22EmitArraySubscriptExprEPKNS_18ArraySubscriptExprE
__ZN4llvm12ConstantExpr14getIntegerCastEPNS_8ConstantEPNS_4TypeEb
__ZN4llvm12ConstantExpr7getCastEjPNS_8ConstantEPNS_4TypeE
__ZN4llvm9IRBuilderILb0ENS_14ConstantFolderENS_24IRBuilderDefaultInserterILb0EEEE17CreateInBoundsGEPEPNS_5ValueES6_RKNS_5TwineE
__ZN12_GLOBAL__N_117ScalarExprEmitter23EmitScalarPrePostIncDecEPKN5clang13UnaryOperatorENS1_7CodeGen6LValueEbb
__ZN12_GLOBAL__N_117ScalarExprEmitter24EmitCompoundAssignLValueEPKN5clang22CompoundAssignOperatorEMS0_FPN4llvm5ValueERKNS_9BinOpInfoEERS7_
__ZN5clang7CodeGen15CodeGenFunction17EmitUnaryOpLValueEPKNS_13UnaryOperatorE
__ZN12_GLOBAL__N_117ScalarExprEmitter7EmitSubERKNS_9BinOpInfoE
__ZN4llvm9IRBuilderILb0ENS_14ConstantFolderENS_24IRBuilderDefaultInserterILb0EEEE13CreateRetVoidEv
__ZN5clang12InitListExpr14setArrayFillerEPNS_4ExprE
__ZN4llvm17ConstantUniqueMapIccNS_4TypeENS_21ConstantAggregateZeroELb0EE11getOrCreateEPS1_c
__ZNSt8_Rb_treeISt4pairIPN4llvm4TypeEcES0_IKS4_PNS1_21ConstantAggregateZeroEESt10_Select1stIS8_ESt4lessIS4_ESaIS8_EE16_M_insert_uniqueERKS8_
__ZNSt8_Rb_treeISt4pairIPN4llvm4TypeEcES0_IKS4_PNS1_21ConstantAggregateZeroEESt10_Select1stIS8_ESt4lessIS4_ESaIS8_EE16_M_insert_uniqueESt17_Rb_tree_iteratorIS8_ERKS8_
__ZN5clang15StmtVisitorBaseINS_8make_ptrEN12_GLOBAL__N_116ConstExprEmitterEPN4llvm8ConstantEE5VisitEPNS_4StmtE
__ZN12_GLOBAL__N_116ConstExprEmitter23EmitArrayInitializationEPN5clang12InitListExprE
__ZNK5clang4Type13isLiteralTypeEv
__ZN12_GLOBAL__N_118ConstStructBuilder11BuildStructERN5clang7CodeGen13CodeGenModuleEPNS2_15CodeGenFunctionEPNS1_12InitListExprE
__ZN12_GLOBAL__N_118ConstStructBuilder13AppendPaddingEN5clang9CharUnitsE
__ZNK4llvm10StructType17isLayoutIdenticalEPS0_
__ZN5clang7CodeGen15CodeGenFunction14EmitSwitchStmtERKNS_10SwitchStmtE
__ZN4llvm9IRBuilderILb0ENS_14ConstantFolderENS_24IRBuilderDefaultInserterILb0EEEE12CreateSwitchEPNS_5ValueEPNS_10BasicBlockEj
__ZN4llvm10SwitchInstC1EPNS_5ValueEPNS_10BasicBlockEjPNS_11InstructionE
__ZN4llvm10SwitchInst4initEPNS_5ValueEPNS_10BasicBlockEj
__ZNK4llvm4User16allocHungoffUsesEj
__ZN5clang7CodeGen15CodeGenFunction12EmitCaseStmtERKNS_8CaseStmtE
__ZN4llvm10SwitchInst7addCaseEPNS_11ConstantIntEPNS_10BasicBlockE
__ZN12_GLOBAL__N_120ItaniumMangleContext10mangleNameEPKN5clang9NamedDeclERN4llvm11raw_ostreamE
__ZN12_GLOBAL__N_114CXXNameMangler6mangleEPKN5clang9NamedDeclEN4llvm9StringRefE
__ZN4llvm9IRBuilderILb0ENS_14ConstantFolderENS_24IRBuilderDefaultInserterILb0EEEE17CreateInBoundsGEPEPNS_5ValueENS_8ArrayRefIS6_EERKNS_5TwineE
__ZN4llvm5Value18replaceAllUsesWithEPS0_
__ZN4llvm10BasicBlock28replaceSuccessorsPhiUsesWithEPS0_
__ZNK4llvm4Type22getPrimitiveSizeInBitsEv
__ZNK5clang13SourceManager22getSpellingLocSlowCaseENS_14SourceLocationE
__ZNK5clang13SourceManager16getDecomposedLocENS_14SourceLocationE
__ZN5clang15StmtVisitorBaseINS_8make_ptrEN12_GLOBAL__N_120SelfReferenceCheckerEvE5VisitEPNS_4StmtE
__ZN12_GLOBAL__N_120SelfReferenceChecker9VisitExprEPN5clang4ExprE
__ZN5clang4Sema31DiagnoseEqualityWithExtraParensEPNS_9ParenExprE
__ZN5clang7CodeGen15CodeGenFunction13EmitVAListRefEPKNS_4ExprE
__ZN5clang7CodeGen13CodeGenModule12getIntrinsicEjN4llvm8ArrayRefIPNS2_4TypeEEE
__ZN4llvm9IRBuilderILb0ENS_14ConstantFolderENS_24IRBuilderDefaultInserterILb0EEEE10CreateCallEPNS_5ValueES6_RKNS_5TwineE
__ZNK5clang7VarDecl17getAnyInitializerERPKS0_
__ZL26EvaluateConstantExpressionRN5clang7APValueERN12_GLOBAL__N_18EvalInfoEPKNS_4ExprE
__ZNK5clang7VarDecl17setEvaluatedValueERKNS_7APValueE
__ZL16ExtractSubobjectRN12_GLOBAL__N_18EvalInfoERNS_7CCValueEN5clang8QualTypeERKNS_19SubobjectDesignatorES5_
__ZL7EvalValPN5clang4ExprERN4llvm15SmallVectorImplIPNS_11DeclRefExprEEE
__ZNK5clang9MacroInfo13isIdenticalToERKS0_RNS_12PreprocessorE
__ZN5clang5Lexer11getSpellingERKNS_5TokenERKNS_13SourceManagerERKNS_11LangOptionsEPb
__ZNK5clang13SourceManager16getCharacterDataENS_14SourceLocationEPb
__ZNK5clang13SourceManager24getDecomposedSpellingLocENS_14SourceLocationE
__ZN5clang4Sema17ActOnContinueStmtENS_14SourceLocationEPNS_5ScopeE
__ZN5clang24UnaryExprOrTypeTraitExpr8childrenEv
__ZNK4llvm5APInt7ProfileERNS_16FoldingSetNodeIDE
__ZN5clang12LookupResult22resolveKindAfterFilterEv
__ZN5clang4Decl16getCanonicalDeclEv
__ZNK4llvm5APInt11shlSlowCaseEj
__ZNK4llvm5APInt4lshrEj
__ZN4llvm7APFloat21shiftSignificandRightEj
__ZN5clang7CodeGen14CGBitFieldInfo8MakeInfoERNS0_12CodeGenTypesEPKNS_9FieldDeclEyy
__ZN5clang7CodeGen14CGBitFieldInfo8MakeInfoERNS0_12CodeGenTypesEPKNS_9FieldDeclEyyyj
__ZN4llvm8DenseMapIPKN5clang9FieldDeclENS1_7CodeGen14CGBitFieldInfoENS_12DenseMapInfoIS4_EENS7_IS6_EEE6insertERKSt4pairIS4_S6_E
__ZN4llvm8DenseMapIPKN5clang9FieldDeclENS1_7CodeGen14CGBitFieldInfoENS_12DenseMapInfoIS4_EENS7_IS6_EEE16InsertIntoBucketERKS4_RKS6_PSt4pairIS4_S6_E
__ZN4llvm8DenseMapIPKN5clang9FieldDeclENS1_7CodeGen14CGBitFieldInfoENS_12DenseMapInfoIS4_EENS7_IS6_EEE4growEj
__ZN4llvm19raw_svector_ostream6resyncEv
__ZNK4llvm7PHINode16allocHungoffUsesEj
__ZN4llvm11ConstantInt7getTrueERNS_11LLVMContextE
__ZN4llvm7PHINode11addIncomingEPNS_5ValueEPNS_10BasicBlockE
__ZN4llvm9IRBuilderILb0ENS_14ConstantFolderENS_24IRBuilderDefaultInserterILb0EEEE19CreateZExtOrBitCastEPNS_5ValueEPNS_4TypeERKNS_5TwineE
__ZN4llvm8CastInst19CreateZExtOrBitCastEPNS_5ValueEPNS_4TypeERKNS_5TwineEPNS_11InstructionE
__ZN4llvm12ConstantExpr6getSubEPNS_8ConstantES2_bb
__ZN4llvm12ConstantExpr3getEjPNS_8ConstantES2_j
__ZN4llvm29ConstantFoldBinaryInstructionEjPNS_8ConstantES1_
__ZN4llvm11ConstantInt8getFalseERNS_11LLVMContextE
__ZN4llvm9IRBuilderILb0ENS_14ConstantFolderENS_24IRBuilderDefaultInserterILb0EEEE8CreateOrEPNS_5ValueES6_RKNS_5TwineE
__ZN4llvm12ConstantExpr5getOrEPNS_8ConstantES2_
__ZNK4llvm8Constant14isAllOnesValueEv
__ZN4llvm9IRBuilderILb0ENS_14ConstantFolderENS_24IRBuilderDefaultInserterILb0EEEE9CreateAndEPNS_5ValueES6_RKNS_5TwineE
__ZN4llvm9IRBuilderILb0ENS_14ConstantFolderENS_24IRBuilderDefaultInserterILb0EEEE9CreateNotEPNS_5ValueERKNS_5TwineE
__ZN4llvm12ConstantExpr6getNotEPNS_8ConstantE
__ZN4llvm8Constant15getAllOnesValueEPNS_4TypeE
__ZN12_GLOBAL__N_117ScalarExprEmitter7EmitAndERKNS_9BinOpInfoE
__ZN12_GLOBAL__N_117ScalarExprEmitter6EmitOrERKNS_9BinOpInfoE
__ZN12_GLOBAL__N_117ScalarExprEmitter32VisitAbstractConditionalOperatorEPKN5clang27AbstractConditionalOperatorE
__ZL38isCheapEnoughToEvaluateUnconditionallyPKN5clang4ExprERNS_7CodeGen15CodeGenFunctionE
__ZN4llvm9IRBuilderILb0ENS_14ConstantFolderENS_24IRBuilderDefaultInserterILb0EEEE12CreateSelectEPNS_5ValueES6_S6_RKNS_5TwineE
__ZN4llvm10SelectInst4initEPNS_5ValueES2_S2_
__ZNK12_GLOBAL__N_113X86_64ABIInfo18GetSSETypeAtOffsetEPN4llvm4TypeEjN5clang8QualTypeEj
__ZL21ContainsFloatAtOffsetPN4llvm4TypeEjRKNS_10TargetDataE
__ZN4llvm12ConstantExpr6getAddEPNS_8ConstantES2_bb
__ZN5clang7CodeGen15CodeGenFunction13EmitWhileStmtERKNS_9WhileStmtE
__ZN4llvm7PHINode12growOperandsEv
__ZNSt6__copyILb0ESt26random_access_iterator_tagE4copyIPN4llvm3UseES5_EET0_T_S7_S6_
__ZN5clang7CodeGen15CodeGenFunction12EmitGotoStmtERKNS_8GotoStmtE
__ZN5clang7CodeGen15CodeGenFunction19getJumpDestForLabelEPKNS_9LabelDeclE
__ZN4llvm8DenseMapIPKN5clang9LabelDeclENS1_7CodeGen15CodeGenFunction8JumpDestENS_12DenseMapInfoIS4_EENS8_IS7_EEE16InsertIntoBucketERKS4_RKS7_PSt4pairIS4_S7_E
__ZN4llvm8DenseMapIPKN5clang9LabelDeclENS1_7CodeGen15CodeGenFunction8JumpDestENS_12DenseMapInfoIS4_EENS8_IS7_EEE4growEj
__ZN4llvm9IRBuilderILb0ENS_14ConstantFolderENS_24IRBuilderDefaultInserterILb0EEEE9CreatePHIEPNS_4TypeEjRKNS_5TwineE
__ZN12_GLOBAL__N_117ScalarExprEmitter7EmitMulERKNS_9BinOpInfoE
__ZNK4llvm3EVT12getEVTStringEv
__ZN4llvm9IRBuilderILb0ENS_14ConstantFolderENS_24IRBuilderDefaultInserterILb0EEEE11CreateCall2EPNS_5ValueES6_S6_RKNS_5TwineE
__ZN5clang7CodeGen13CodeGenModule21getBuiltinLibFunctionEPKNS_12FunctionDeclEj
__ZN5clang7CodeGen15CodeGenFunction9EmitLabelEPKNS_9LabelDeclE
__ZN5clang7CodeGen15CodeGenFunction19ResolveBranchFixupsEPN4llvm10BasicBlockE
__ZNK4llvm10FoldingSetIN5clang7CodeGen14CGFunctionInfoEE15ComputeNodeHashEPNS_14FoldingSetImpl4NodeERNS_16FoldingSetNodeIDE
__ZN4llvm23SmallVectorTemplateBaseISt4pairINS_6APSIntEPN5clang8CaseStmtEELb0EE4growEm
__ZN5clang10BumpVectorINS_10CFGElementEE6insertEPS1_mRKS1_RNS_17BumpVectorContextE
__ZNK12_GLOBAL__N_113X86_64ABIInfo17getIndirectResultEN5clang8QualTypeE
__ZN5clang7CodeGen15CodeGenFunction10EmitDoStmtERKNS_6DoStmtE
__ZN5clang7CodeGen15CodeGenFunction13ContainsLabelEPKNS_4StmtEb
__ZN4llvm13IRBuilderBase12CreateMemSetEPNS_5ValueES2_S2_jbPNS_6MDNodeE
__ZN4llvm13IRBuilderBase21getCastedInt8PtrValueEPNS_5ValueE
__ZL16createCallHelperPN4llvm5ValueENS_8ArrayRefIS1_EEPNS_13IRBuilderBaseE
__ZN5clang7CodeGen15CodeGenFunction23EmitStringLiteralLValueEPKNS_13StringLiteralE
__ZN5clang7CodeGen13CodeGenModule34GetAddrOfConstantStringFromLiteralEPKNS_13StringLiteralE
__ZN5clang7CodeGen13CodeGenModule25GetStringForStringLiteralEPKNS_13StringLiteralE
__ZN5clang7CodeGen13CodeGenModule23GetAddrOfConstantStringEN4llvm9StringRefEPKcj
__ZL21GenerateStringLiteralN4llvm9StringRefEbRN5clang7CodeGen13CodeGenModuleEPKcj
__ZNK5clang17ConstExprIteratorptEv
__ZN12_GLOBAL__N_117ScalarExprEmitter7EmitDivERKNS_9BinOpInfoE
__ZN4llvm9IRBuilderILb0ENS_14ConstantFolderENS_24IRBuilderDefaultInserterILb0EEEE10CreateUDivEPNS_5ValueES6_RKNS_5TwineEb
__ZN4llvm12ConstantExpr7getUDivEPNS_8ConstantES2_b
__ZNK5clang7VarDecl16hasGlobalStorageEv
__ZN12_GLOBAL__N_125AnalyzeBitFieldAssignmentERN5clang4SemaEPNS0_9FieldDeclEPNS0_4ExprENS0_14SourceLocationE
__ZN5clang4Sema27CheckBitFieldInitializationENS_14SourceLocationEPNS_9FieldDeclEPNS_4ExprE
__ZN4llvm15SmallVectorImplIN5clang4Sema17OffsetOfComponentEE9push_backERKS3_
__ZN5clang4Sema20ActOnBuiltinOffsetOfEPNS_5ScopeENS_14SourceLocationES3_NS_9OpaquePtrINS_8QualTypeEEEPNS0_17OffsetOfComponentEjS3_
__ZN5clang4Sema20BuildBuiltinOffsetOfENS_14SourceLocationEPNS_14TypeSourceInfoEPNS0_17OffsetOfComponentEjS1_
__ZN5clang4Sema13IsDerivedFromENS_8QualTypeES1_RNS_12CXXBasePathsE
__ZN4llvm15SmallVectorImplIN5clang12OffsetOfExpr12OffsetOfNodeEE9push_backERKS3_
__ZN5clang12CXXBasePathsD2Ev
__ZNSt8_Rb_treeIN5clang8QualTypeESt4pairIKS1_S2_IbjEESt10_Select1stIS5_ENS0_16QualTypeOrderingESaIS5_EE8_M_eraseEPSt13_Rb_tree_nodeIS5_E
__ZN5clang12OffsetOfExpr6CreateERNS_10ASTContextENS_8QualTypeENS_14SourceLocationEPNS_14TypeSourceInfoEPNS0_12OffsetOfNodeEjPPNS_4ExprEjS4_
__ZN5clang12OffsetOfExprC2ERNS_10ASTContextENS_8QualTypeENS_14SourceLocationEPNS_14TypeSourceInfoEPNS0_12OffsetOfNodeEjPPNS_4ExprEjS4_
__ZN4llvm12ConstantExpr10getCompareEtPNS_8ConstantES2_
__ZN4llvm12ConstantExpr7getICmpEtPNS_8ConstantES2_
__ZN4llvm30ConstantFoldCompareInstructionEtPNS_8ConstantES1_
__ZN5clang7CodeGen15CodeGenFunction24SimplifyForwardingBlocksEPN4llvm10BasicBlockE
__ZNK4llvm10BranchInst17getNumSuccessorsVEv
__ZNK4llvm10BranchInst13getSuccessorVEj
__ZN4llvm10BasicBlock15eraseFromParentEv
__ZN4llvm6iplistINS_10BasicBlockENS_12ilist_traitsIS1_EEE5eraseENS_14ilist_iteratorIS1_EE
__ZN5clang4Expr20IgnoreParenNoopCastsERNS_10ASTContextE
__ZL21emitPointerArithmeticRN5clang7CodeGen15CodeGenFunctionERKN12_GLOBAL__N_19BinOpInfoEb
__ZN4llvm10SwitchInst12growOperandsEv
__ZN5clang7CodeGen13CodeGenModule23EmitGlobalVarDefinitionEPKNS_7VarDeclE
__ZN5clang7CodeGen13CodeGenModule33GetConstantArrayFromStringLiteralEPKNS_13StringLiteralE
__ZN5clang7CodeGen13CodeGenModule27GetLLVMLinkageVarDefinitionEPKNS_7VarDeclEPN4llvm14GlobalVariableE
__ZN4llvm12ConstantExpr11getIntToPtrEPNS_8ConstantEPNS_4TypeE
__ZN4llvm9IRBuilderILb0ENS_14ConstantFolderENS_24IRBuilderDefaultInserterILb0EEEE10CreateSDivEPNS_5ValueES6_RKNS_5TwineEb
__ZN5clang7CodeGen15CodeGenFunction9EmitVAArgEPN4llvm5ValueENS_8QualTypeE
__ZNK12_GLOBAL__N_113X86_64ABIInfo9EmitVAArgEPN4llvm5ValueEN5clang8QualTypeERNS4_7CodeGen15CodeGenFunctionE
__ZN4llvm9IRBuilderILb0ENS_14ConstantFolderENS_24IRBuilderDefaultInserterILb0EEEE10CreateLoadEPNS_5ValueEPKc
__ZN4llvm9IRBuilderILb0ENS_14ConstantFolderENS_24IRBuilderDefaultInserterILb0EEEE9CreateGEPEPNS_5ValueES6_RKNS_5TwineE
__ZN5clang7CodeGen15CodeGenFunction10EmitBranchEPN4llvm10BasicBlockE
__ZL19EmitVAArgFromMemoryPN4llvm5ValueEN5clang8QualTypeERNS2_7CodeGen15CodeGenFunctionE
__ZL22ShouldRemoveFromUnusedPN5clang4SemaEPKNS_14DeclaratorDeclE
__ZN5clang7VarDecl19getActingDefinitionEv
__ZN5clang15BackendConsumer27CompleteTentativeDefinitionEPNS_7VarDeclE
__ZN12_GLOBAL__N_117CodeGeneratorImpl27CompleteTentativeDefinitionEPN5clang7VarDeclE
__ZN5clang7CodeGen13CodeGenModule23EmitTentativeDefinitionEPKNS_7VarDeclE
__ZNK5clang4Decl12isReferencedEv
__ZN12_GLOBAL__N_117ScalarExprEmitter7EmitRemERKNS_9BinOpInfoE
__ZN4llvm9IRBuilderILb0ENS_14ConstantFolderENS_24IRBuilderDefaultInserterILb0EEEE10CreateSRemEPNS_5ValueES6_RKNS_5TwineE
__ZN12_GLOBAL__N_117ScalarExprEmitter7EmitShlERKNS_9BinOpInfoE
__ZN4llvm9IRBuilderILb0ENS_14ConstantFolderENS_24IRBuilderDefaultInserterILb0EEEE9CreateXorEPNS_5ValueES6_RKNS_5TwineE
__ZN4llvm12ConstantExpr6getMulEPNS_8ConstantES2_bb
__ZN12_GLOBAL__N_116ConstExprEmitter10EmitLValueEPN5clang4ExprE
__ZN4llvm10ConstantFP3getERNS_11LLVMContextERKNS_7APFloatE
__ZNK4llvm8DenseMapINS_22DenseMapAPFloatKeyInfo5KeyTyEPNS_10ConstantFPES1_NS_12DenseMapInfoIS4_EEE15LookupBucketForERKS2_RPSt4pairIS2_S4_E
__ZNK4llvm7APFloat12getHashValueEv
__ZN4llvm8DenseMapINS_22DenseMapAPFloatKeyInfo5KeyTyEPNS_10ConstantFPES1_NS_12DenseMapInfoIS4_EEE16InsertIntoBucketERKS2_RKS4_PSt4pairIS2_S4_E
__ZN4llvm8DenseMapINS_22DenseMapAPFloatKeyInfo5KeyTyEPNS_10ConstantFPES1_NS_12DenseMapInfoIS4_EEE4growEj
__ZNK4llvm7APFloat14bitwiseIsEqualERKS0_
__ZN4llvm9IRBuilderILb0ENS_14ConstantFolderENS_24IRBuilderDefaultInserterILb0EEEE10CreateFCmpENS_7CmpInst9PredicateEPNS_5ValueES8_RKNS_5TwineE
__ZN5clang7CodeGen15CodeGenFunction11EmitAggExprEPKNS_4ExprENS0_12AggValueSlotEb
__ZL24GetNumNonZeroBytesInInitPKN5clang4ExprERNS_7CodeGen15CodeGenFunctionE
__ZL12isSimpleZeroPKN5clang4ExprERNS_7CodeGen15CodeGenFunctionE
__ZN5clang15StmtVisitorBaseINS_8make_ptrEN12_GLOBAL__N_114AggExprEmitterEvE5VisitEPNS_4StmtE
__ZN12_GLOBAL__N_114AggExprEmitter13VisitCastExprEPN5clang8CastExprE
__ZN12_GLOBAL__N_114AggExprEmitter17EmitFinalDestCopyEPKN5clang4ExprENS1_7CodeGen6RValueEbj
__ZN5clang7CodeGen15CodeGenFunction17EmitAggregateCopyEPN4llvm5ValueES4_NS_8QualTypeEbj
__ZN4llvm13IRBuilderBase12CreateMemCpyEPNS_5ValueES2_S2_jbPNS_6MDNodeE
__ZN4llvm9IRBuilderILb0ENS_14ConstantFolderENS_24IRBuilderDefaultInserterILb0EEEE10CreateFSubEPNS_5ValueES6_RKNS_5TwineE
__ZN4llvm9IRBuilderILb0ENS_14ConstantFolderENS_24IRBuilderDefaultInserterILb0EEEE10CreateFAddEPNS_5ValueES6_RKNS_5TwineE
__ZN4llvm9IRBuilderILb0ENS_14ConstantFolderENS_24IRBuilderDefaultInserterILb0EEEE10CreateFMulEPNS_5ValueES6_RKNS_5TwineE
__ZN4llvm9IRBuilderILb0ENS_14ConstantFolderENS_24IRBuilderDefaultInserterILb0EEEE10CreateFDivEPNS_5ValueES6_RKNS_5TwineE
__ZN4llvm10ConstantFP23getZeroValueForNegationEPNS_4TypeE
__ZN4llvm12ConstantExpr7getFMulEPNS_8ConstantES2_
__ZN4llvm7APFloat8multiplyERKS0_NS0_12roundingModeE
__ZN4llvm7APFloat16multiplySpecialsERKS0_
__ZN4llvm12ConstantExpr6getShlEPNS_8ConstantES2_bb
__ZN4llvm14BinaryOperator9CreateNotEPNS_5ValueERKNS_5TwineEPNS_11InstructionE
__ZN4llvm4Type13getX86_FP80TyERNS_11LLVMContextE
__ZN12_GLOBAL__N_114AggExprEmitter7needsGCEN5clang8QualTypeE
__ZN5clang7CodeGen15CodeGenFunction23EmitDeclRefExprDbgValueEPKNS_11DeclRefExprEPN4llvm8ConstantE
__ZN4llvm9IRBuilderILb0ENS_14ConstantFolderENS_24IRBuilderDefaultInserterILb0EEEE10CreateURemEPNS_5ValueES6_RKNS_5TwineE
__ZN12_GLOBAL__N_117ScalarExprEmitter7EmitShrERKNS_9BinOpInfoE
__ZN4llvm9IRBuilderILb0ENS_14ConstantFolderENS_24IRBuilderDefaultInserterILb0EEEE10CreateLShrEPNS_5ValueES6_RKNS_5TwineEb
__ZN4llvm9IRBuilderILb0ENS_14ConstantFolderENS_24IRBuilderDefaultInserterILb0EEEE10CreateAShrEPNS_5ValueES6_RKNS_5TwineEb
__ZN5clang7CodeGen15CodeGenFunction21EmitLValueForBitfieldEPN4llvm5ValueEPKNS_9FieldDeclEj
__ZN5clang7CodeGen15CodeGenFunction30EmitStoreThroughBitfieldLValueENS0_6RValueENS0_6LValueEPPN4llvm5ValueE
__ZN4llvm5APInt13getLowBitsSetEjj
__ZN4llvm11ConstantInt3getEPNS_4TypeERKNS_5APIntE
__ZN4llvm9IRBuilderILb0ENS_14ConstantFolderENS_24IRBuilderDefaultInserterILb0EEEE18CreateConstGEP1_32EPNS_5ValueEjRKNS_5TwineE
__ZN4llvm4Type9getIntNTyERNS_11LLVMContextEj
__ZN4llvm9IRBuilderILb0ENS_14ConstantFolderENS_24IRBuilderDefaultInserterILb0EEEE10CreateLoadEPNS_5ValueEbRKNS_5TwineE
__ZN4llvm5APInt10getBitsSetEjjj
__ZN5clang7CodeGen15CodeGenFunction24EmitLoadOfBitfieldLValueENS0_6LValueE
__ZN4llvm4Type12getIntNPtrTyERNS_11LLVMContextEjj
__ZNK4llvm12ConstantExpr6isCastEv
__ZL15getFoldedSizeOfPN4llvm4TypeES1_b
__ZN4llvm12ConstantExpr9getSizeOfEPNS_4TypeE
__ZN4llvm8CastInst13getCastOpcodeEPKNS_5ValueEbPNS_4TypeEb
__ZN4llvm8CastInst20isEliminableCastPairENS_11Instruction7CastOpsES2_PNS_4TypeES4_S4_S4_
__ZNK12_GLOBAL__N_113X86_64ABIInfo9postMergeEjRNS0_5ClassES2_
__ZNK4llvm12StructLayout26getElementContainingOffsetEy
__ZL26GetX86_64ByValArgumentPairPN4llvm4TypeES1_RKNS_10TargetDataE
__ZN4llvm9IRBuilderILb0ENS_14ConstantFolderENS_24IRBuilderDefaultInserterILb0EEEE18CreateConstGEP2_32EPNS_5ValueEjjRKNS_5TwineE
__ZN5clang7CodeGen15CodeGenFunction13CreateMemTempENS_8QualTypeERKN4llvm5TwineE
__ZN4llvm12ConstantExpr6getAndEPNS_8ConstantES2_
__ZN12_GLOBAL__N_114AggExprEmitter32VisitAbstractConditionalOperatorEPKN5clang27AbstractConditionalOperatorE
__ZN4llvm9IRBuilderILb0ENS_14ConstantFolderENS_24IRBuilderDefaultInserterILb0EEEE9CreateNegEPNS_5ValueERKNS_5TwineEbb
__ZN4llvm14BinaryOperator9CreateNegEPNS_5ValueERKNS_5TwineEPNS_11InstructionE
__ZNK5clang7CodeGen15CodeGenFunction32isObviouslyBranchWithoutCleanupsENS1_8JumpDestE
__ZN4llvm12ConstantExpr7getFSubEPNS_8ConstantES2_
__ZN4llvm7APFloat8subtractERKS0_NS0_12roundingModeE
__ZN4llvm7APFloat13addOrSubtractERKS0_NS0_12roundingModeEb
__ZN4llvm7APFloat21addOrSubtractSpecialsERKS0_b
__ZN4llvm5APIntoRERKS0_
__ZN4llvm5Value8takeNameEPS0_
__ZN4llvm14GlobalVariable15eraseFromParentEv
__ZN4llvm21SymbolTableListTraitsINS_14GlobalVariableENS_6ModuleEE18removeNodeFromListEPS1_
__ZN4llvm14GlobalVariableD0Ev
__ZN4llvm11GlobalValueD2Ev
__ZN4llvm12ConstantExpr7getFDivEPNS_8ConstantES2_
__ZN4llvm7APFloat6divideERKS0_NS0_12roundingModeE
__ZN4llvm7APFloat14divideSpecialsERKS0_
__ZN5clang7CodeGen13CodeGenModule7getSizeENS_9CharUnitsE
__ZN4llvm14BinaryOperator10setIsExactEb
__ZN4llvm12ConstantExpr6getNegEPNS_8ConstantEbb
__ZN5clang7CodeGen12CodeGenTypes15getFunctionInfoENS_7CanQualINS_19FunctionNoProtoTypeEEE
__ZNK12_GLOBAL__N_123X86_64TargetCodeGenInfo21isNoProtoCallVariadicERKN5clang7CodeGen14CGFunctionInfoE
__ZN4llvm16ValueSymbolTable15removeValueNameEPNS_14StringMapEntryIPNS_5ValueEEE
__ZN4llvm8CallInstD0Ev
__ZN4llvm12ConstantExpr15destroyConstantEv
__ZN4llvm17ConstantUniqueMapINS_14ExprMapKeyTypeERKS1_NS_4TypeENS_12ConstantExprELb0EE6removeEPS5_
__ZN4llvm17ConstantUniqueMapINS_14ExprMapKeyTypeERKS1_NS_4TypeENS_12ConstantExprELb0EE19FindExistingElementEPS5_
__ZN4llvm15ConstantKeyDataINS_12ConstantExprEE10getValTypeEPS1_
__ZN4llvm17UnaryConstantExprD0Ev
__ZN4llvm8Function15eraseFromParentEv
__ZN4llvm8FunctionD0Ev
__ZN4llvm8FunctionD2Ev
__ZN4llvm6iplistINS_8ArgumentENS_12ilist_traitsIS1_EEE5clearEv
__ZN4llvm16ValueSymbolTableD1Ev
__ZN4llvm8Function7clearGCEv
__ZN4llvm12ConstantExpr7getSDivEPNS_8ConstantES2_b
__ZN4llvm15SmallVectorImplISt4pairINS_8CallSiteEiEE9push_backERKS3_
__ZN4llvm7Inliner12shouldInlineENS_8CallSiteE
__ZN12_GLOBAL__N_113AlwaysInliner13getInlineCostEN4llvm8CallSiteE
__ZN4llvm18InlineCostAnalyzer13getInlineCostENS_8CallSiteERNS_11SmallPtrSetIPKNS_8FunctionELj16EEE
__ZN4llvm18InlineCostAnalyzer13getInlineCostENS_8CallSiteEPNS_8FunctionERNS_11SmallPtrSetIPKS2_Lj16EEE
__ZNK4llvm17MachineBasicBlock17isLayoutSuccessorEPKS0_
__ZN12_GLOBAL__N_111X86FastISel18X86FastEmitCompareEPKN4llvm5ValueES4_NS1_3EVTE
__ZN4llvm8FastISel14FastEmitBranchEPNS_17MachineBasicBlockENS_8DebugLocE
__ZN4llvm17MachineBasicBlock12addSuccessorEPS0_j
__ZN4llvm16SelectionDAGISel21TryToFoldFastISelLoadEPKNS_8LoadInstEPKNS_11InstructionEPNS_8FastISelE
__ZN12_GLOBAL__N_111X86FastISel13TryToFoldLoadEPN4llvm12MachineInstrEjPKNS1_8LoadInstE
__ZNK4llvm12X86Subtarget23ClassifyGlobalReferenceEPKNS_11GlobalValueERKNS_13TargetMachineE
__ZN4llvm14X86AddressMode14getFullAddressERNS_15SmallVectorImplINS_14MachineOperandEEE
__ZN4llvm15SmallVectorImplINS_14MachineOperandEE9push_backERKS1_
__ZNK4llvm12X86InstrInfo21foldMemoryOperandImplERNS_15MachineFunctionEPNS_12MachineInstrEjRKNS_15SmallVectorImplINS_14MachineOperandEEEjj
__ZN4llvm8FastISel10SelectCallEPKNS_4UserE
__ZN12_GLOBAL__N_111X86FastISel12DoSelectCallEPKN4llvm11InstructionEPKc
__ZN4llvm3X8611isCalleePopENS_11CallingConv2IDEbbb
__ZN4llvm15SmallVectorImplINS_3MVTEE7reserveEj
__ZN4llvm15SmallVectorImplINS_3ISD10ArgFlagsTyEE7reserveEj
__ZN4llvm15SmallVectorImplINS_3MVTEE9push_backERKS1_
__ZN4llvm15SmallVectorImplINS_3ISD10ArgFlagsTyEE9push_backERKS2_
__ZN4llvm7CCState19AnalyzeCallOperandsERNS_15SmallVectorImplINS_3MVTEEERNS1_INS_3ISD10ArgFlagsTyEEEPFbjS2_S2_NS_11CCValAssign7LocInfoES6_RS0_E
__ZN4llvm7CCState17AnalyzeCallResultERKNS_15SmallVectorImplINS_3ISD8InputArgEEEPFbjNS_3MVTES7_NS_11CCValAssign7LocInfoENS2_10ArgFlagsTyERS0_E
__ZN4llvm12MachineInstr21setPhysRegsDeadExceptERKNS_15SmallVectorImplIjEERKNS_18TargetRegisterInfoE
__ZN12_GLOBAL__N_111X86FastISel15X86FastEmitLoadEN4llvm3EVTERKNS1_14X86AddressModeERj
__ZN4llvm8FastISel14UpdateValueMapEPKNS_5ValueEjj
__ZNK4llvm10TargetData13getIntPtrTypeERNS_11LLVMContextE
__ZN4llvm7CmpInst19getInversePredicateENS0_9PredicateE
__ZNK4llvm12X86InstrInfo12InsertBranchERNS_17MachineBasicBlockEPS1_S3_RKNS_15SmallVectorImplINS_14MachineOperandEEENS_8DebugLocE
__ZN4llvm19MachineRegisterInfo14replaceRegWithEjj
__ZN4llvm12IntEqClasses4joinEjj
__ZN4llvm23SmallVectorTemplateBaseINS_11SmallVectorIjLj8EEELb0EE4growEm
__ZN4llvm12df_ext_beginIPNS_17MachineBasicBlockENS_11SmallPtrSetIS2_Lj8EEEEENS_15df_ext_iteratorIT_T0_EERKS6_RS7_
__ZN12_GLOBAL__N_13FPS17processBasicBlockERN4llvm15MachineFunctionERNS1_17MachineBasicBlockE
__ZN12_GLOBAL__N_13FPS14adjustLiveRegsEjN4llvm14ilist_iteratorINS1_12MachineInstrEEE
__ZN4llvm11df_iteratorIPNS_17MachineBasicBlockENS_11SmallPtrSetIS2_Lj8EEELb1ENS_11GraphTraitsIS2_EEE6toNextEv
__ZNK4llvm12X86InstrInfo18expandPostRAPseudoENS_14ilist_iteratorINS_12MachineInstrEEE
__ZNK4llvm12X86InstrInfo11copyPhysRegERNS_17MachineBasicBlockENS_14ilist_iteratorINS_12MachineInstrEEENS_8DebugLocEjjb
__ZNSt6vectorIN4llvm14ilist_iteratorINS0_12MachineInstrEEESaIS3_EE13_M_insert_auxEN9__gnu_cxx17__normal_iteratorIPS3_S5_EERKS3_
__ZNK4llvm19TargetFrameLowering27canSimplifyCallFramePseudosERKNS_15MachineFunctionE
__ZNK4llvm16X86FrameLowering20hasReservedCallFrameERKNS_15MachineFunctionE
__ZNK4llvm15X86RegisterInfo29eliminateCallFramePseudoInstrERNS_15MachineFunctionERNS_17MachineBasicBlockENS_14ilist_iteratorINS_12MachineInstrEEE
__ZL12emitSPUpdateRN4llvm17MachineBasicBlockERNS_14ilist_iteratorINS_12MachineInstrEEEjxbRKNS_15TargetInstrInfoERKNS_18TargetRegisterInfoE
__ZNK4llvm14X86MCInstLower20GetSymbolFromOperandERKNS_14MachineOperandE
__ZNK4llvm14X86MCInstLower18LowerSymbolOperandERKNS_14MachineOperandEPNS_8MCSymbolE
__ZN4llvm15SmallVectorImplINS_9MCOperandEEaSERKS2_
__ZN4llvm15SmallVectorImplINS_7MCFixupEE9push_backERKS1_
__ZNK4llvm17MachineBasicBlock9getSymbolEv
__ZNK12_GLOBAL__N_113X86AsmBackend16RelaxInstructionERKN4llvm6MCInstERS2_
__ZNK4llvm10AsmPrinter33isBlockOnlyReachableByFallthroughEPKNS_17MachineBasicBlockE
__ZL20SimplifyShortImmFormRN4llvm6MCInstEj
__ZNK4llvm10SwitchInst17getNumSuccessorsVEv
__ZNK4llvm10SwitchInst13getSuccessorVEj
__ZNK12_GLOBAL__N_112RegsForValue15getCopyFromRegsERN4llvm12SelectionDAGERNS1_20FunctionLoweringInfoENS1_8DebugLocERNS1_7SDValueEPS7_
__ZN4llvm12SelectionDAG9getVTListEPKNS_3EVTEj
__ZN4llvm19SelectionDAGBuilder9visitLoadERKNS_8LoadInstE
__ZN4llvm13AliasAnalysis16getTypeStoreSizeEPNS_4TypeE
__ZThn32_N12_GLOBAL__N_118BasicAliasAnalysis22pointsToConstantMemoryERKN4llvm13AliasAnalysis8LocationEb
__ZN12_GLOBAL__N_118BasicAliasAnalysis22pointsToConstantMemoryERKN4llvm13AliasAnalysis8LocationEb
__ZN4llvm19GetUnderlyingObjectEPNS_5ValueEPKNS_10TargetDataEj
__ZN4llvm13AliasAnalysis22pointsToConstantMemoryERKNS0_8LocationEb
__ZThn32_N12_GLOBAL__N_122TypeBasedAliasAnalysis22pointsToConstantMemoryERKN4llvm13AliasAnalysis8LocationEb
__ZN12_GLOBAL__N_122TypeBasedAliasAnalysis22pointsToConstantMemoryERKN4llvm13AliasAnalysis8LocationEb
__ZThn32_N12_GLOBAL__N_14NoAA22pointsToConstantMemoryERKN4llvm13AliasAnalysis8LocationEb
__ZN4llvm12SelectionDAG7getLoadENS_3EVTENS_8DebugLocENS_7SDValueES3_NS_18MachinePointerInfoEbbbjPKNS_6MDNodeE
__ZN4llvm12SelectionDAG7getLoadENS_3ISD14MemIndexedModeENS1_11LoadExtTypeENS_3EVTENS_8DebugLocENS_7SDValueES6_S6_NS_18MachinePointerInfoES4_bbbjPKNS_6MDNodeE
__ZN4llvm12SelectionDAG7getLoadENS_3ISD14MemIndexedModeENS1_11LoadExtTypeENS_3EVTENS_8DebugLocENS_7SDValueES6_S6_S4_PNS_17MachineMemOperandE
__ZN4llvm10LoadSDNodeC2EPNS_7SDValueENS_8DebugLocENS_8SDVTListENS_3ISD14MemIndexedModeENS5_11LoadExtTypeENS_3EVTEPNS_17MachineMemOperandE
__ZN4llvm19SelectionDAGBuilder11visitSwitchERKNS_10SwitchInstE
__ZN4llvm19SelectionDAGBuilder10ClusterifyERSt6vectorINS0_4CaseESaIS2_EERKNS_10SwitchInstE
__ZNSt6vectorIN4llvm19SelectionDAGBuilder4CaseESaIS2_EE13_M_insert_auxEN9__gnu_cxx17__normal_iteratorIPS2_S4_EERKS2_
__ZSt16__introsort_loopIN9__gnu_cxx17__normal_iteratorIPN4llvm19SelectionDAGBuilder4CaseESt6vectorIS4_SaIS4_EEEElNS3_7CaseCmpEEvT_SB_T0_T1_
__ZSt22__final_insertion_sortIN9__gnu_cxx17__normal_iteratorIPN4llvm19SelectionDAGBuilder4CaseESt6vectorIS4_SaIS4_EEEENS3_7CaseCmpEEvT_SB_T0_
__ZSt16__insertion_sortIN9__gnu_cxx17__normal_iteratorIPN4llvm19SelectionDAGBuilder4CaseESt6vectorIS4_SaIS4_EEEENS3_7CaseCmpEEvT_SB_T0_
__ZNSt6vectorIN4llvm19SelectionDAGBuilder7CaseRecESaIS2_EE13_M_insert_auxEN9__gnu_cxx17__normal_iteratorIPS2_S4_EERKS2_
__ZN4llvm19SelectionDAGBuilder24handleBitTestsSwitchCaseERNS0_7CaseRecERSt6vectorIS1_SaIS1_EEPKNS_5ValueEPNS_17MachineBasicBlockESB_
__ZNK4llvm5APInt3ugeEy
__ZN4llvm19SelectionDAGBuilder22handleSmallSwitchRangeERNS0_7CaseRecERSt6vectorIS1_SaIS1_EEPKNS_5ValueEPNS_17MachineBasicBlockESB_
__ZN4llvm19SelectionDAGBuilder22ExportFromCurrentBlockEPKNS_5ValueE
__ZN4llvm19SelectionDAGBuilder15visitSwitchCaseERNS0_9CaseBlockEPNS_17MachineBasicBlockE
__ZN4llvm12SelectionDAG11getCondCodeENS_3ISD8CondCodeE
__ZNSt6vectorIPN4llvm14CondCodeSDNodeESaIS2_EE14_M_fill_insertEN9__gnu_cxx17__normal_iteratorIPS2_S4_EEmRKS2_
__ZN4llvm12SelectionDAG9FoldSetCCENS_3EVTENS_7SDValueES2_NS_3ISD8CondCodeENS_8DebugLocE
__ZN4llvm12SelectionDAG13getBasicBlockEPNS_17MachineBasicBlockE
__ZNSt6vectorIN4llvm19SelectionDAGBuilder9CaseBlockESaIS2_EE13_M_insert_auxEN9__gnu_cxx17__normal_iteratorIPS2_S4_EERKS2_
__ZNK4llvm14TargetLowering13SimplifySetCCENS_3EVTENS_7SDValueES2_NS_3ISD8CondCodeEbRNS0_15DAGCombinerInfoENS_8DebugLocE
__ZN12_GLOBAL__N_111DAGCombiner9CombineToEPN4llvm6SDNodeEPKNS1_7SDValueEjb
__ZN4llvm12SelectionDAG18ReplaceAllUsesWithEPNS_6SDNodeEPKNS_7SDValueEPNS0_17DAGUpdateListenerE
__ZN4llvm12SelectionDAG24AddModifiedNodeToCSEMapsEPNS_6SDNodeEPNS0_17DAGUpdateListenerE
__ZN4llvm14FoldingSetImpl15GetOrInsertNodeEPNS0_4NodeE
__ZNK4llvm10FoldingSetINS_6SDNodeEE14GetNodeProfileEPNS_14FoldingSetImpl4NodeERNS_16FoldingSetNodeIDE
__ZN12_GLOBAL__N_118RAUWUpdateListener11NodeUpdatedEPN4llvm6SDNodeE
__ZN12_GLOBAL__N_115WorkListRemover11NodeUpdatedEPN4llvm6SDNodeE
__ZN4llvm16DAGTypeLegalizer20PromoteIntegerResultEPNS_6SDNodeEj
__ZN4llvm16DAGTypeLegalizer15CustomLowerNodeEPNS_6SDNodeENS_3EVTEb
__ZN4llvm16DAGTypeLegalizer19PromoteIntRes_SETCCEPNS_6SDNodeE
__ZNK4llvm17X86TargetLowering18getSetCCResultTypeENS_3EVTE
__ZN4llvm16DAGTypeLegalizer18SetPromotedIntegerENS_7SDValueES1_
__ZN4llvm16DAGTypeLegalizer14AnalyzeNewNodeEPNS_6SDNodeE
__ZN4llvm16DAGTypeLegalizer11ExpungeNodeEPNS_6SDNodeE
__ZN4llvm16DAGTypeLegalizer10RemapValueERNS_7SDValueE
__ZN4llvm16DAGTypeLegalizer21PromoteIntegerOperandEPNS_6SDNodeEj
__ZN4llvm16DAGTypeLegalizer20PromoteTargetBooleanENS_7SDValueENS_3EVTE
__ZN4llvm12SelectionDAG18UpdateNodeOperandsEPNS_6SDNodeENS_7SDValueES3_S3_
__ZN4llvm12SelectionDAG20FindModifiedNodeSlotEPNS_6SDNodeEPKNS_7SDValueEjRPv
__ZN4llvm16DAGTypeLegalizer24PromoteIntOp_ZERO_EXTENDEPNS_6SDNodeE
__ZN4llvm12SelectionDAG18getZeroExtendInRegENS_7SDValueENS_8DebugLocENS_3EVTE
__ZN4llvm16DAGTypeLegalizer16ReplaceValueWithENS_7SDValueES1_
__ZN4llvm12SelectionDAG25ReplaceAllUsesOfValueWithENS_7SDValueES1_PNS0_17DAGUpdateListenerE
__ZN4llvm12SelectionDAG18ReplaceAllUsesWithENS_7SDValueES1_PNS0_17DAGUpdateListenerE
__ZN12_GLOBAL__N_118NodeUpdateListener11NodeUpdatedEPN4llvm6SDNodeE
__ZNK4llvm12SelectionDAG17MaskedValueIsZeroENS_7SDValueERKNS_5APIntEj
__ZNK4llvm12SelectionDAG17ComputeMaskedBitsENS_7SDValueERKNS_5APIntERS2_S5_j
__ZN4llvm5APInt14getHighBitsSetEjj
__ZN4llvm5APIntaNERKS0_
__ZN12_GLOBAL__N_111DAGCombiner14ReassociateOpsEjN4llvm8DebugLocENS1_7SDValueES3_
__ZL17isSetCCEquivalentN4llvm7SDValueERS0_S1_S1_
__ZN12_GLOBAL__N_111DAGCombiner20SimplifyDemandedBitsEN4llvm7SDValueE
__ZN12_GLOBAL__N_111DAGCombiner20SimplifyDemandedBitsEN4llvm7SDValueERKNS1_5APIntE
__ZNK4llvm14TargetLowering20SimplifyDemandedBitsENS_7SDValueERKNS_5APIntERS2_S5_RNS0_17TargetLoweringOptEj
__ZN12_GLOBAL__N_111DAGCombiner23CommitTargetLoweringOptERKN4llvm14TargetLowering17TargetLoweringOptE
__ZNK4llvm3EVT6bitsLEES0_
__ZNK4llvm17X86TargetLowering14LowerOperationENS_7SDValueERNS_12SelectionDAGE
__ZNK4llvm17X86TargetLowering10LowerSETCCENS_7SDValueERNS_12SelectionDAGE
__ZL14TranslateX86CCN4llvm3ISD8CondCodeEbRNS_7SDValueES3_RNS_12SelectionDAGE
__ZNK4llvm17X86TargetLowering7EmitCmpENS_7SDValueES1_jRNS_12SelectionDAGE
__ZNK4llvm17X86TargetLowering8EmitTestENS_7SDValueEjRNS_12SelectionDAGE
__ZNK4llvm17X86TargetLowering29allowsUnalignedMemoryAccessesENS_3EVTE
__ZNK4llvm17X86TargetLowering11LowerBRCONDENS_7SDValueERNS_12SelectionDAGE
__ZN4llvm12SelectionDAG7getNodeEjNS_8DebugLocENS_3EVTENS_7SDValueES3_S3_S3_
__ZNK12_GLOBAL__N_115X86DAGToDAGISel18CheckNodePredicateEPN4llvm6SDNodeEj
__ZN12_GLOBAL__N_115X86DAGToDAGISel19CheckComplexPatternEPN4llvm6SDNodeES3_NS1_7SDValueEjRNS1_15SmallVectorImplISt4pairIS4_S3_EEE
__ZN12_GLOBAL__N_115X86DAGToDAGISel10SelectAddrEPN4llvm6SDNodeENS1_7SDValueERS4_S5_S5_S5_S5_
__ZNK4llvm18MachinePointerInfo12getAddrSpaceEv
__ZN12_GLOBAL__N_115X86DAGToDAGISel12MatchAddressEN4llvm7SDValueERNS_18X86ISelAddressModeE
__ZN12_GLOBAL__N_115X86DAGToDAGISel23MatchAddressRecursivelyEN4llvm7SDValueERNS_18X86ISelAddressModeEj
__ZN12_GLOBAL__N_115X86DAGToDAGISel18getAddressOperandsERNS_18X86ISelAddressModeERN4llvm7SDValueES5_S5_S5_S5_
__ZNK4llvm18TargetRegisterInfo22getMinimalPhysRegClassEjNS_3EVTE
__ZN4llvm26ScheduleDAGTopologicalSort11IsReachableEPKNS_5SUnitES3_
__ZNSt6vectorIN4llvm19SelectionDAGBuilder12BitTestBlockESaIS2_EE5clearEv
__ZN12_GLOBAL__N_111DAGCombiner8visitXOREPN4llvm6SDNodeE
__ZN4llvm3ISD15getSetCCInverseENS0_8CondCodeEb
__ZN4llvm12SelectionDAG18ReplaceAllUsesWithEPNS_6SDNodeES2_PNS0_17DAGUpdateListenerE
__ZN4llvm8FastISel13SelectBitCastEPKNS_4UserE
__ZNK4llvm8FastISel14hasTrivialKillEPKNS_5ValueE
__ZN4llvm8FastISel19SelectGetElementPtrEPKNS_4UserE
__ZN12_GLOBAL__N_111X86FastISel23TargetMaterializeAllocaEPKN4llvm10AllocaInstE
__ZN12_GLOBAL__N_111X86FastISel25TargetMaterializeConstantEPKN4llvm8ConstantE
__ZN4llvm8FastISel17getRegForGEPIndexEPKNS_5ValueE
__ZNK4llvm8CastInst10isNoopCastEPNS_4TypeE
__ZNK4llvm3EVT6bitsGTES0_
__ZN4llvm8FastISel12FastEmit_ri_ENS_3MVTEjjbyS1_
__ZN12_GLOBAL__N_111X86FastISel11FastEmit_riEN4llvm3MVTES2_jjby
__ZN4llvm8FastISel15FastEmitInst_riEjPKNS_19TargetRegisterClassEjby
__ZN12_GLOBAL__N_111X86FastISel11FastEmit_rrEN4llvm3MVTES2_jjbjb
__ZN4llvm8FastISel15FastEmitInst_rrEjPKNS_19TargetRegisterClassEjbjb
__ZN4llvm8FastISel10SelectCastEPKNS_4UserEj
__ZN12_GLOBAL__N_111X86FastISel10FastEmit_rEN4llvm3MVTES2_jjb
__ZN4llvm8FastISel14FastEmitInst_rEjPKNS_19TargetRegisterClassEjb
__ZN4llvm8FastISel14SelectBinaryOpEPKNS_4UserEj
__ZN4llvm8DenseMapIjNS_11SmallVectorISt4pairIjjELj4EEENS_12DenseMapInfoIjEENS5_IS4_EEE16FindAndConstructERKj
__ZN4llvm8DenseMapIjNS_11SmallVectorISt4pairIjjELj4EEENS_12DenseMapInfoIjEENS5_IS4_EEE16InsertIntoBucketERKjRKS4_PS2_IjS4_E
__ZN12_GLOBAL__N_125TwoAddressInstructionPass23TryInstructionTransformERN4llvm14ilist_iteratorINS1_12MachineInstrEEES5_RNS2_INS1_17MachineBasicBlockEEEjjjRNS1_11SmallPtrSetIPS3_Lj8EEE
__ZL8isKilledRN4llvm12MachineInstrEjPKNS_19MachineRegisterInfoEPKNS_15TargetInstrInfoE
__ZNK4llvm15TargetInstrInfo21scheduleTwoAddrSourceEPNS_12MachineInstrES2_RKNS_18TargetRegisterInfoE
__ZNK4llvm19TargetInstrInfoImpl21findCommutedOpIndicesEPNS_12MachineInstrERjS3_
__ZNK4llvm12X86InstrInfo18commuteInstructionEPNS_12MachineInstrEb
__ZNK4llvm19TargetInstrInfoImpl18commuteInstructionEPNS_12MachineInstrEb
__ZL12getMappedRegjRN4llvm8DenseMapIjjNS_12DenseMapInfoIjEES2_EE
__ZNK4llvm12X86InstrInfo19storeRegToStackSlotERNS_17MachineBasicBlockENS_14ilist_iteratorINS_12MachineInstrEEEjbiPKNS_19TargetRegisterClassEPKNS_18TargetRegisterInfoE
__ZL21getLoadStoreRegOpcodejPKN4llvm19TargetRegisterClassEbRKNS_13TargetMachineEb
__ZNK4llvm12X86InstrInfo20loadRegFromStackSlotERNS_17MachineBasicBlockENS_14ilist_iteratorINS_12MachineInstrEEEjiPKNS_19TargetRegisterClassEPKNS_18TargetRegisterInfoE
__ZNSt6vectorISt4pairIPN4llvm12MachineInstrEjESaIS4_EE13_M_insert_auxEN9__gnu_cxx17__normal_iteratorIPS4_S6_EERKS4_
__ZNK4llvm8DenseMapISt4pairIjjEjNS_12DenseMapInfoIS2_EENS3_IjEEE15LookupBucketForERKS2_RPS1_IS2_jE
__ZN4llvm8DenseMapISt4pairIjjEjNS_12DenseMapInfoIS2_EENS3_IjEEE16InsertIntoBucketERKS2_RKjPS1_IS2_jE
__ZN4llvm8DenseMapISt4pairIjjEjNS_12DenseMapInfoIS2_EENS3_IjEEE4growEj
__ZN4llvm17MachineBasicBlock17SkipPHIsAndLabelsENS_14ilist_iteratorINS_12MachineInstrEEE
__ZNK4llvm8DenseMapIPNS_12MachineInstrEjNS_27MachineInstrExpressionTraitENS_12DenseMapInfoIjEEE15LookupBucketForERKS2_RPSt4pairIS2_jE
__ZN4llvm8DenseMapIPNS_12MachineInstrEjNS_27MachineInstrExpressionTraitENS_12DenseMapInfoIjEEE16InsertIntoBucketERKS2_RKjPSt4pairIS2_jE
__ZN4llvm8DenseMapIPNS_12MachineInstrEjNS_27MachineInstrExpressionTraitENS_12DenseMapInfoIjEEE4growEj
__ZN4llvm22findPHICopyInsertPointEPNS_17MachineBasicBlockES1_j
__ZN12_GLOBAL__N_125TwoAddressInstructionPass17NoUseAfterLastDefEjPN4llvm17MachineBasicBlockEjRj
__ZN4llvm8FastISel26FastEmitInst_extractsubregENS_3MVTEjbj
__ZNK4llvm18X86GenRegisterInfo9getSubRegEjj
__ZN4llvm22getX86SubSuperRegisterEjNS_3EVTEb
__ZNK4llvm12MachineInstr13isSafeToReMatEPKNS_15TargetInstrInfoEPNS_13AliasAnalysisEj
__ZNK4llvm17X86TargetLowering22getStackCookieLocationERjS1_
__ZN4llvm6Module17getOrInsertGlobalENS_9StringRefEPNS_4TypeE
__ZN4llvm10AllocaInstC1EPNS_4TypeERKNS_5TwineEPNS_11InstructionE
__ZN4llvm10AllocaInstC2EPNS_4TypeERKNS_5TwineEPNS_11InstructionE
__ZN4llvm8CallInstC1EPNS_5ValueERKNS_5TwineEPNS_10BasicBlockE
__ZN4llvm8CallInstC2EPNS_5ValueERKNS_5TwineEPNS_10BasicBlockE
__ZN4llvm15UnreachableInstC1ERNS_11LLVMContextEPNS_10BasicBlockE
__ZN4llvm10BasicBlock15splitBasicBlockENS_14ilist_iteratorINS_11InstructionEEERKNS_5TwineE
__ZN4llvm21SymbolTableListTraitsINS_11InstructionENS_10BasicBlockEE21transferNodesFromListERNS_12ilist_traitsIS1_EENS_14ilist_iteratorIS1_EES8_
__ZN4llvm10BranchInstC1EPNS_10BasicBlockES2_
__ZN4llvm10BranchInstC2EPNS_10BasicBlockES2_
__ZN4llvm10BasicBlock9moveAfterEPS0_
__ZN4llvm8LoadInstC1EPNS_5ValueEPKcbPNS_10BasicBlockE
__ZN4llvm8LoadInstC2EPNS_5ValueEPKcbPNS_10BasicBlockE
__ZN4llvm7CmpInstC2EPNS_4TypeENS_11Instruction8OtherOpsEtPNS_5ValueES6_RKNS_5TwineEPNS_10BasicBlockE
__ZN4llvm10BranchInstC1EPNS_10BasicBlockES2_PNS_5ValueES2_
__ZN4llvm10BranchInstC2EPNS_10BasicBlockES2_PNS_5ValueES2_
__ZNK4llvm15UnreachableInst17getNumSuccessorsVEv
__ZN4llvm8FastISel19leaveLocalValueAreaENS0_9SavePointE
__ZN4llvm19SelectionDAGBuilder18handleJTSwitchCaseERNS0_7CaseRecERSt6vectorIS1_SaIS1_EEPKNS_5ValueEPNS_17MachineBasicBlockESB_
__ZNK4llvm5APInt3ultEy
__ZL12ComputeRangeRKN4llvm5APIntES2_
__ZN4llvm19SelectionDAGBuilder23handleBTSplitSwitchCaseERNS0_7CaseRecERSt6vectorIS1_SaIS1_EEPKNS_5ValueEPNS_17MachineBasicBlockESB_
__ZNK4llvm5APInt13roundToDoubleEb
__ZN4llvm5APIntmIERKS0_
__ZN4llvm5APInt17getSignedMinValueEj
__ZN4llvm5APInt6setBitEj
__ZN4llvm12SelectionDAG11getConstantERKNS_5APIntENS_3EVTEb
__ZNK4llvm17X86TargetLowering20isTypeDesirableForOpEjNS_3EVTE
__ZNK12_GLOBAL__N_115X86DAGToDAGISel18IsProfitableToFoldEN4llvm7SDValueEPNS1_6SDNodeES4_
__ZN4llvm18ScheduleDAGSDNodes23ClusterNeighboringLoadsEPNS_6SDNodeE
__ZNK4llvm12X86InstrInfo23areLoadsFromSameBasePtrEPNS_6SDNodeES2_RxS3_
__ZN4llvm11Instruction13isCommutativeEj
__ZN4llvm19SelectionDAGBuilder9visitZExtERKNS_4UserE
__ZNK4llvm17X86TargetLowering20getJumpTableEncodingEv
__ZNK4llvm14TargetLowering20getJumpTableEncodingEv
__ZN4llvm15MachineFunction24getOrCreateJumpTableInfoEj
__ZN4llvm20MachineJumpTableInfo20createJumpTableIndexERKSt6vectorIPNS_17MachineBasicBlockESaIS3_EE
__ZNSt6vectorIN4llvm21MachineJumpTableEntryESaIS1_EE9push_backERKS1_
__ZNSt6vectorIN4llvm21MachineJumpTableEntryESaIS1_EE13_M_insert_auxEN9__gnu_cxx17__normal_iteratorIPS1_S3_EERKS1_
__ZN4llvm19SelectionDAGBuilder20visitJumpTableHeaderERNS0_9JumpTableERNS0_15JumpTableHeaderEPNS_17MachineBasicBlockE
__ZN4llvm12SelectionDAG14getZExtOrTruncENS_7SDValueENS_8DebugLocENS_3EVTE
__ZN4llvm20FunctionLoweringInfo9CreateRegENS_3EVTE
__ZNSt6vectorISt4pairIN4llvm19SelectionDAGBuilder15JumpTableHeaderENS2_9JumpTableEESaIS5_EE9push_backERKS5_
__ZNSt6vectorISt4pairIN4llvm19SelectionDAGBuilder15JumpTableHeaderENS2_9JumpTableEESaIS5_EE13_M_insert_auxEN9__gnu_cxx17__normal_iteratorIPS5_S7_EERKS5_
__ZN4llvm12SelectionDAG10getExtLoadENS_3ISD11LoadExtTypeENS_8DebugLocENS_3EVTENS_7SDValueES5_NS_18MachinePointerInfoES4_bbjPKNS_6MDNodeE
__ZN12_GLOBAL__N_111DAGCombiner15ExtendSetCCUsesEN4llvm11SmallVectorIPNS1_6SDNodeELj4EEENS1_7SDValueES6_NS1_8DebugLocENS1_3ISD8NodeTypeE
__ZN4llvm14TargetLowering17TargetLoweringOpt16ShrinkDemandedOpENS_7SDValueEjRKNS_5APIntENS_8DebugLocE
__ZL30OptimizeConditionalInDecrementPN4llvm6SDNodeERNS_12SelectionDAGE
__ZNK12_GLOBAL__N_115X86DAGToDAGISel21CheckPatternPredicateEj
__ZN12_GLOBAL__N_115X86DAGToDAGISel13SelectLEAAddrEN4llvm7SDValueERS2_S3_S3_S3_S3_
__ZN4llvm3X8628isOffsetSuitableForCodeModelExNS_9CodeModel5ModelEb
__ZN4llvm12InstrEmitter14EmitSubregNodeEPNS_6SDNodeERNS_8DenseMapINS_7SDValueEjNS_12DenseMapInfoIS4_EENS5_IjEEEEbb
__ZNK4llvm15X86RegisterInfo21getSubClassWithSubRegEPKNS_19TargetRegisterClassEj
__ZN4llvm19SelectionDAGBuilder14visitJumpTableERNS0_9JumpTableE
__ZN4llvm12SelectionDAG12getJumpTableEiNS_3EVTEbh
__ZNK4llvm17X86TargetLowering14LowerJumpTableENS_7SDValueERNS_12SelectionDAGE
__ZN12_GLOBAL__N_120SelectionDAGLegalize10ExpandNodeEPN4llvm6SDNodeERNS1_15SmallVectorImplINS1_7SDValueEEE
__ZNK4llvm20MachineJumpTableInfo12getEntrySizeERKNS_10TargetDataE
__ZN4llvm18MachinePointerInfo12getJumpTableEv
__ZN4llvm17PseudoSourceValue12getJumpTableEv
__ZNK4llvm17X86TargetLowering24getPICJumpTableRelocBaseENS_7SDValueERNS_12SelectionDAGE
__ZNK4llvm17X86TargetLowering30computeMaskedBitsForTargetNodeENS_7SDValueERKNS_5APIntERS2_S5_RKNS_12SelectionDAGEj
__ZN4llvm12SelectionDAG15getNodeIfExistsEjNS_8SDVTListEPKNS_7SDValueEj
__ZNK4llvm17X86TargetLowering16getShiftAmountTyENS_3EVTE
__ZL21combineShlAddConstantN4llvm8DebugLocENS_7SDValueES1_RNS_12SelectionDAGE
__ZN12_GLOBAL__N_111DAGCombiner20visitShiftByConstantEPN4llvm6SDNodeEj
__ZNK4llvm12SelectionDAG24isBaseWithConstantOffsetENS_7SDValueE
__ZNK4llvm15X86RegisterInfo18getPointerRegClassEj
__ZNK4llvm18TargetRegisterInfo17getCommonSubClassEPKNS_19TargetRegisterClassES3_
__ZN4llvm8FastISel17lookUpRegForValueEPKNS_5ValueE
__ZN12_GLOBAL__N_111X86FastISel13X86SelectZExtEPKN4llvm11InstructionE
__ZN4llvm8FastISel18FastEmitZExtFromI1ENS_3MVTEjb
__ZN4llvm19SelectionDAGBuilder10visitFPExtERKNS_4UserE
__ZN4llvm12SelectionDAG17getIntPtrConstantEyb
__ZN12_GLOBAL__N_111X86FastISel26TargetMaterializeFloatZeroEPKN4llvm10ConstantFPE
__ZNK4llvm7APFloat16convertToIntegerEPyjbNS0_12roundingModeEPb
__ZNK4llvm7APFloat28convertToSignExtendedIntegerEPyjbNS0_12roundingModeEPb
__ZN4llvm19SelectionDAGBuilder9visitFCmpERKNS_4UserE
__ZN4llvm12SelectionDAG13getConstantFPERKNS_10ConstantFPENS_3EVTEb
__ZN4llvm15getFCmpCondCodeENS_7CmpInst9PredicateE
__ZN4llvm19SelectionDAGBuilder7visitBrERKNS_10BranchInstE
__ZNK4llvm17X86TargetLowering12isFPImmLegalERKNS_7APFloatENS_3EVTE
__ZN4llvm3ISD23getSetCCSwappedOperandsENS0_8CondCodeE
__ZNK4llvm16ConstantFPSDNode14isExactlyValueERKNS_7APFloatE
__ZN4llvm19SelectionDAGBuilder9visitFSubERKNS_4UserE
__ZL18isNegatibleForFreeN4llvm7SDValueEbj
__ZN4llvm8FastISel10FastEmit_fENS_3MVTES1_jPKNS_10ConstantFPE
__ZN4llvm19MachineConstantPool20getConstantPoolIndexEPKNS_8ConstantEj
__ZNSt6vectorIN4llvm24MachineConstantPoolEntryESaIS1_EE13_M_insert_auxEN9__gnu_cxx17__normal_iteratorIPS1_S3_EERKS1_
__ZN4llvm19SelectionDAGBuilder11visitBinaryERKNS_4UserEj
__ZN4llvm17MachineMemOperand15refineAlignmentEPKS0_
__ZN4llvm8DenseMapIPKNS_8ConstantEjNS_12DenseMapInfoIS3_EENS4_IjEEE16InsertIntoBucketERKS3_RKjPSt4pairIS3_jE
__ZN4llvm8DenseMapIPKNS_8ConstantEjNS_12DenseMapInfoIS3_EENS4_IjEEE4growEj
__ZN4llvm16ConstantFPSDNode19isValueValidForTypeENS_3EVTERKNS_7APFloatE
__ZNK4llvm17X86TargetLowering22ShouldShrinkFPConstantENS_3EVTE
__ZN4llvm12ConstantExpr10getFPTruncEPNS_8ConstantEPNS_4TypeE
__ZN4llvm12SelectionDAG15getConstantPoolEPKNS_8ConstantENS_3EVTEjibh
__ZN4llvm18MachinePointerInfo15getConstantPoolEv
__ZN4llvm17PseudoSourceValue15getConstantPoolEv
__ZNK4llvm17X86TargetLowering17LowerConstantPoolENS_7SDValueERNS_12SelectionDAGE
__ZNK4llvm18ConstantPoolSDNode7getTypeEv
__ZL25CanShareConstantPoolEntryPKN4llvm8ConstantES2_PKNS_10TargetDataE
__ZN4llvm4Type10getFloatTyERNS_11LLVMContextE
__ZN4llvm19SelectionDAGBuilder9visitSDivERKNS_4UserE
__ZNK4llvm14BinaryOperator7isExactEv
__ZN4llvm19SelectionDAGBuilder10visitTruncERKNS_4UserE
__ZN4llvm19SelectionDAGBuilder18visitGetElementPtrERKNS_4UserE
__ZNK4llvm12SelectionDAG13SignBitIsZeroENS_7SDValueEj
__ZNK4llvm14TargetLowering9BuildSDIVEPNS_6SDNodeERNS_12SelectionDAGEbPSt6vectorIS2_SaIS2_EE
__ZNK4llvm5APInt5magicEv
__ZNK4llvm5APInt3absEv
__ZN4llvm12SelectionDAG7getNodeEjNS_8DebugLocENS_8SDVTListENS_7SDValueES3_
__ZNSt6vectorIPN4llvm6SDNodeESaIS2_EE13_M_insert_auxEN9__gnu_cxx17__normal_iteratorIPS2_S4_EERKS2_
__ZNK4llvm5APInt10intersectsERKS0_
__ZN12_GLOBAL__N_111DAGCombiner15ReduceLoadWidthEPN4llvm6SDNodeE
__ZN12_GLOBAL__N_111DAGCombiner15GetDemandedBitsEN4llvm7SDValueERKNS1_5APIntE
__ZNK4llvm17X86TargetLowering14isTruncateFreeENS_3EVTES1_
__ZNK4llvm17X86TargetLowering10isZExtFreeENS_3EVTES1_
__ZN4llvm12SelectionDAG21getShiftAmountOperandENS_3EVTENS_7SDValueE
__ZN12_GLOBAL__N_111DAGCombiner26SimplifyNodeWithTwoResultsEPN4llvm6SDNodeEjj
__ZN4llvm12SelectionDAG7getNodeEjNS_8DebugLocENS_3EVTEPKNS_5SDUseEj
__ZN4llvm3EVT20getExtendedIntegerVTERNS_11LLVMContextEj
__ZN4llvm8DenseMapIjPNS_11IntegerTypeENS_12DenseMapInfoIjEENS3_IS2_EEE16InsertIntoBucketERKjRKS2_PSt4pairIjS2_E
__ZN4llvm8DenseMapIjPNS_11IntegerTypeENS_12DenseMapInfoIjEENS3_IS2_EEE4growEj
__ZN4llvm26ScheduleDAGTopologicalSort7AddPredEPNS_5SUnitES2_
__ZN4llvm12InstrEmitter18ConstrainForSubRegEjjNS_3EVTENS_8DebugLocE
__ZN4llvm8FastISel11FastEmit_rfENS_3MVTES1_jjbPKNS_10ConstantFPE
__ZNK4llvm14TargetLowering9BuildUDIVEPNS_6SDNodeERNS_12SelectionDAGEbPSt6vectorIS2_SaIS2_EE
__ZNK4llvm5APInt6magicuEj
__ZNK4llvm3EVT21getExtendedSizeInBitsEv
__ZN4llvm14TargetLowering15DAGCombinerInfo9CombineToEPNS_6SDNodeENS_7SDValueEb
__ZN12_GLOBAL__N_115X86DAGToDAGISel11TryFoldLoadEPN4llvm6SDNodeENS1_7SDValueERS4_S5_S5_S5_S5_
__ZN4llvm12SelectionDAG14getMachineNodeEjNS_8DebugLocENS_3EVTENS_7SDValueES3_
__ZN4llvm12SelectionDAG14getMachineNodeEjNS_8DebugLocENS_8SDVTListEPKNS_7SDValueEj
__ZN4llvm12SelectionDAG9getVTListENS_3EVTES1_S1_
__ZN4llvm16SelectionDAGISel11ISelUpdater11NodeUpdatedEPNS_6SDNodeE
__ZN4llvm12SelectionDAG14RemoveDeadNodeEPNS_6SDNodeEPNS0_17DAGUpdateListenerE
__ZN4llvm16SelectionDAGISel11ISelUpdater11NodeDeletedEPNS_6SDNodeES3_
__ZNK4llvm7SDValue11isOperandOfEPNS_6SDNodeE
__ZN4llvm19SelectionDAGBuilder9visitSExtERKNS_4UserE
__ZN4llvm12SelectionDAG14getSExtOrTruncENS_7SDValueENS_8DebugLocENS_3EVTE
__ZN4llvm12SelectionDAG14getMachineNodeEjNS_8DebugLocENS_3EVTE
__ZNK4llvm12X86InstrInfo21convertToThreeAddressERNS_14ilist_iteratorINS_17MachineBasicBlockEEERNS1_INS_12MachineInstrEEEPNS_13LiveVariablesE
__ZNK4llvm12X86InstrInfo26getOpcodeAfterMemoryUnfoldEjbbPj
__ZNK4llvm12X86InstrInfo19unfoldMemoryOperandERNS_15MachineFunctionEPNS_12MachineInstrEjbbRNS_15SmallVectorImplIS4_EE
__ZN4llvm15MachineFunction18extractLoadMemRefsEPPNS_17MachineMemOperandES3_
__ZNK4llvm12X86InstrInfo15loadRegFromAddrERNS_15MachineFunctionEjRNS_15SmallVectorImplINS_14MachineOperandEEEPKNS_19TargetRegisterClassEPPNS_17MachineMemOperandESC_RNS3_IPNS_12MachineInstrEEE
__ZN12_GLOBAL__N_13FPS9moveToTopEjN4llvm14ilist_iteratorINS1_12MachineInstrEEE
__ZN12_GLOBAL__N_13FPS13popStackAfterERN4llvm14ilist_iteratorINS1_12MachineInstrEEE
__ZN12_GLOBAL__N_13FPS14duplicateToTopEjjPN4llvm12MachineInstrE
__ZNK4llvm24MachineConstantPoolEntry17getRelocationInfoEv
__ZNK4llvm24MachineConstantPoolEntry7getTypeEv
__ZNK4llvm29TargetLoweringObjectFileMachO21getSectionForConstantENS_11SectionKindE
__ZNK4llvm10AsmPrinter12GetCPISymbolEj
__ZNK4llvm10AsmPrinter12GetJTISymbolEjb
__ZNK4llvm15MachineFunction12getJTISymbolEjRNS_9MCContextEb
__ZNK4llvm20MachineJumpTableInfo17getEntryAlignmentERKNS_10TargetDataE
__ZNK4llvm10TargetData26getABIIntegerTypeAlignmentEj
__ZN4llvm10MCStreamer21EmitJumpTable32RegionEv
__ZNK4llvm17X86TargetLowering28getPICJumpTableRelocBaseExprEPKNS_15MachineFunctionEjRNS_9MCContextE
__ZNK4llvm14TargetLowering28getPICJumpTableRelocBaseExprEPKNS_15MachineFunctionEjRNS_9MCContextE
__ZNK4llvm10AsmPrinter14GetJTSetSymbolEjj
__ZNK4llvm10AsmPrinter18EmitJumpTableEntryEPKNS_20MachineJumpTableInfoEPKNS_17MachineBasicBlockEj
__ZN4llvm8DenseMapIjNS_11SmallVectorIPNS_12MachineInstrELj4EEENS_12DenseMapInfoIjEENS5_IS4_EEE16shrink_and_clearEv
__ZNK4llvm12SelectionDAG17InferPtrAlignmentENS_7SDValueE
__ZNK4llvm17X86TargetLowering14isGAPlusOffsetEPNS_6SDNodeERPKNS_11GlobalValueERx
__ZNK4llvm14TargetLowering14isGAPlusOffsetEPNS_6SDNodeERPKNS_11GlobalValueERx
__ZN12_GLOBAL__N_111DAGCombiner18MatchBSwapHWordLowEPN4llvm6SDNodeENS1_7SDValueES4_b
__ZN4llvm14TargetLowering17TargetLoweringOpt22ShrinkDemandedConstantENS_7SDValueERKNS_5APIntE
__ZL12CMPEQCombinePN4llvm6SDNodeERNS_12SelectionDAGERNS_14TargetLowering15DAGCombinerInfoEPKNS_12X86SubtargetE
__ZN4llvm19SelectionDAGBuilder9visitCallERKNS_8CallInstE
__ZNK4llvm13TargetMachine16getIntrinsicInfoEv
__ZN4llvm19SelectionDAGBuilder18visitIntrinsicCallERKNS_8CallInstEj
__ZN4llvm19SelectionDAGBuilder10visitVAEndERKNS_8CallInstE
__ZN4llvm12SelectionDAG11getSrcValueEPKNS_5ValueE
__ZN4llvm19SelectionDAGBuilder12visitVAStartERKNS_8CallInstE
__ZNK4llvm17X86TargetLowering12LowerVASTARTENS_7SDValueERNS_12SelectionDAGE
__ZN4llvm12SelectionDAG22FoldConstantArithmeticEjNS_3EVTEPNS_14ConstantSDNodeES3_
__ZNK4llvm17X86TargetLowering27EmitInstrWithCustomInserterEPNS_12MachineInstrEPNS_17MachineBasicBlockE
__ZNK4llvm17X86TargetLowering40EmitVAStartSaveXMMRegsWithCustomInserterEPNS_12MachineInstrEPNS_17MachineBasicBlockE
__ZN4llvm12ilist_traitsINS_12MachineInstrEE21transferNodesFromListERS2_NS_14ilist_iteratorIS1_EES5_
__ZN4llvm17MachineBasicBlock31transferSuccessorsAndUpdatePHIsEPS0_
__ZN4llvm17MachineBasicBlock15removeSuccessorEPS0_
__ZN4llvm12ConstantExpr7getZExtEPNS_8ConstantEPNS_4TypeE
__ZN4llvm12SelectionDAG12getValueTypeENS_3EVTE
__ZNSt6vectorIPN4llvm6SDNodeESaIS2_EE14_M_fill_insertEN9__gnu_cxx17__normal_iteratorIPS2_S4_EEmRKS2_
__ZN4llvm14BinaryOperator6isFNegEPKNS_5ValueE
__ZN4llvm12SelectionDAG16getGlobalAddressEPKNS_11GlobalValueENS_8DebugLocENS_3EVTExbh
__ZN4llvm16FoldingSetNodeID10AddIntegerEx
__ZN4llvm19SelectionDAGBuilder11LowerCallToENS_17ImmutableCallSiteENS_7SDValueEbPNS_17MachineBasicBlockE
__ZNK4llvm14TargetLowering11LowerCallToENS_7SDValueEPNS_4TypeEbbbbjNS_11CallingConv2IDEbbS1_RSt6vectorINS0_12ArgListEntryESaIS7_EERNS_12SelectionDAGENS_8DebugLocE
__ZNK4llvm17X86TargetLowering9LowerCallENS_7SDValueES1_NS_11CallingConv2IDEbRbRKNS_15SmallVectorImplINS_3ISD9OutputArgEEERKNS5_IS1_EERKNS5_INS6_8InputArgEEENS_8DebugLocERNS_12SelectionDAGERSB_
__ZN4llvm7CCState19AnalyzeCallOperandsERKNS_15SmallVectorImplINS_3ISD9OutputArgEEEPFbjNS_3MVTES7_NS_11CCValAssign7LocInfoENS2_10ArgFlagsTyERS0_E
__ZN4llvm12SelectionDAG14getCALLSEQ_ENDENS_7SDValueES1_S1_S1_
__ZNK4llvm17X86TargetLowering15LowerCallResultENS_7SDValueES1_NS_11CallingConv2IDEbRKNS_15SmallVectorImplINS_3ISD8InputArgEEENS_8DebugLocERNS_12SelectionDAGERNS4_IS1_EE
__ZN4llvm19SelectionDAGBuilder11visitFPToSIERKNS_4UserE
__ZN4llvm19SelectionDAGBuilder11visitSIToFPERKNS_4UserE
__ZN4llvm19SelectionDAGBuilder11visitFPToUIERKNS_4UserE
__ZN4llvm32HonorSignDependentRoundingFPMathEv
__ZL24FindCallEndFromCallStartPN4llvm6SDNodeEi
__ZN12_GLOBAL__N_120SelectionDAGLegalize28LegalizeAllNodesNotLeadingToEPN4llvm6SDNodeES3_RNS1_11SmallPtrSetIS3_Lj32EEE
__ZNK4llvm17X86TargetLowering15LowerFP_TO_SINTENS_7SDValueERNS_12SelectionDAGE
__ZNK4llvm17X86TargetLowering15FP_TO_INTHelperENS_7SDValueERNS_12SelectionDAGEb
__ZNK4llvm17X86TargetLowering15LowerSINT_TO_FPENS_7SDValueERNS_12SelectionDAGE
__ZN4llvm12SelectionDAG13getConstantFPERKNS_7APFloatENS_3EVTEb
__ZNK4llvm17X86TargetLowering11LowerSELECTENS_7SDValueERNS_12SelectionDAGE
__ZNK4llvm6SDNode21getConstantOperandValEj
__ZNK4llvm8Constant7canTrapEv
__ZNK4llvm17X86TargetLowering16LowerMemArgumentENS_7SDValueENS_11CallingConv2IDERKNS_15SmallVectorImplINS_3ISD8InputArgEEENS_8DebugLocERNS_12SelectionDAGERKNS_11CCValAssignEPNS_16MachineFrameInfoEj
__ZN4llvm19SelectionDAGBuilder12visitBitCastERKNS_4UserE
__ZN4llvm19SelectionDAGBuilder10visitShiftERKNS_4UserEj
__ZL18CheckForMaskedLoadN4llvm7SDValueES0_S0_
__ZNK4llvm16SelectionDAGISel12CheckAndMaskENS_7SDValueEPNS_14ConstantSDNodeEx
__ZNK4llvm5APInt3sltEy
__ZNSt6vectorIN4llvm19SelectionDAGBuilder8CaseBitsESaIS2_EE13_M_insert_auxEN9__gnu_cxx17__normal_iteratorIPS2_S4_EERKS2_
__ZSt16__introsort_loopIN9__gnu_cxx17__normal_iteratorIPN4llvm19SelectionDAGBuilder8CaseBitsESt6vectorIS4_SaIS4_EEEElNS3_11CaseBitsCmpEEvT_SB_T0_T1_
__ZSt22__final_insertion_sortIN9__gnu_cxx17__normal_iteratorIPN4llvm19SelectionDAGBuilder8CaseBitsESt6vectorIS4_SaIS4_EEEENS3_11CaseBitsCmpEEvT_SB_T0_
__ZN4llvm15SmallVectorImplINS_19SelectionDAGBuilder11BitTestCaseEE9push_backERKS2_
__ZN4llvm15SmallVectorImplINS_19SelectionDAGBuilder11BitTestCaseEEaSERKS3_
__ZNSt6vectorIN4llvm19SelectionDAGBuilder12BitTestBlockESaIS2_EE13_M_insert_auxEN9__gnu_cxx17__normal_iteratorIPS2_S4_EERKS2_
__ZSt24__uninitialized_copy_auxIPN4llvm19SelectionDAGBuilder12BitTestBlockES3_ET0_T_S5_S4_St12__false_type
__ZN9__gnu_cxx13new_allocatorIN4llvm19SelectionDAGBuilder12BitTestBlockEE9constructEPS3_RKS3_
__ZN4llvm19SelectionDAGBuilder18visitBitTestHeaderERNS0_12BitTestBlockEPNS_17MachineBasicBlockE
__ZN4llvm19SelectionDAGBuilder16visitBitTestCaseERNS0_12BitTestBlockEPNS_17MachineBasicBlockEjRNS0_11BitTestCaseES4_
__ZNK4llvm17X86TargetLowering9LowerToBTENS_7SDValueENS_3ISD8CondCodeENS_8DebugLocERNS_12SelectionDAGE
__ZNK4llvm17X86TargetLowering18LowerGlobalAddressEPKNS_11GlobalValueENS_8DebugLocExRNS_12SelectionDAGE
__ZN4llvm18MachinePointerInfo6getGOTEv
__ZN4llvm17PseudoSourceValue6getGOTEv
__ZN4llvm12SelectionDAG14getMachineNodeEjNS_8DebugLocENS_3EVTENS_7SDValueE
__ZN4llvm26ScheduleDAGTopologicalSort10RemovePredEPNS_5SUnitES2_
__ZN4llvm5SUnit10removePredERKNS_4SDepE
__ZNK4llvm8Constant19isNegativeZeroValueEv
__ZN4llvm8FastISel10SelectFNegEPKNS_4UserE
__ZN4llvm14BinaryOperator15getFNegArgumentEPKNS_5ValueE
__ZNK4llvm5APInt18countTrailingZerosEv
__ZN4llvm26ScheduleDAGTopologicalSort3DFSEPKNS_5SUnitEiRb
__ZL20GetNegatedExpressionN4llvm7SDValueERNS_12SelectionDAGEbj
__ZN4llvm26ScheduleDAGTopologicalSort5ShiftERNS_9BitVectorEii
__ZNSt6vectorIiSaIiEE13_M_insert_auxEN9__gnu_cxx17__normal_iteratorIPiS1_EERKi
__ZN4llvm19SelectionDAGBuilder12visitFPTruncERKNS_4UserE
__ZN4llvm12SelectionDAG20CreateStackTemporaryENS_3EVTEj
__ZN4llvm12SelectionDAG13getTruncStoreENS_7SDValueENS_8DebugLocES1_S1_NS_18MachinePointerInfoENS_3EVTEbbjPKNS_6MDNodeE
__ZL16InferPointerInfoN4llvm7SDValueEx
__ZN4llvm12SelectionDAG13getTruncStoreENS_7SDValueENS_8DebugLocES1_S1_NS_3EVTEPNS_17MachineMemOperandE
__ZNK4llvm17X86TargetLowering9BuildFILDENS_7SDValueENS_3EVTES1_S1_RNS_12SelectionDAGE
__ZN4llvm12SelectionDAG19getMemIntrinsicNodeEjNS_8DebugLocENS_8SDVTListEPKNS_7SDValueEjNS_3EVTEPNS_17MachineMemOperandE
__ZN4llvm9MemSDNodeC2EjNS_8DebugLocENS_8SDVTListEPKNS_7SDValueEjNS_3EVTEPNS_17MachineMemOperandE
__ZNSt6vectorIN4llvm15CalleeSavedInfoESaIS1_EE13_M_insert_auxEN9__gnu_cxx17__normal_iteratorIPS1_S3_EERKS1_
__ZNK4llvm19TargetFrameLowering24getCalleeSavedSpillSlotsERj
__ZNK4llvm15X86RegisterInfo20hasReservedSpillSlotERKNS_15MachineFunctionEjRi
__ZNSt6vectorIN4llvm15CalleeSavedInfoESaIS1_EEaSERKS3_
__ZNK4llvm16X86FrameLowering25spillCalleeSavedRegistersERNS_17MachineBasicBlockENS_14ilist_iteratorINS_12MachineInstrEEERKSt6vectorINS_15CalleeSavedInfoESaIS7_EEPKNS_18TargetRegisterInfoE
__ZNK4llvm16X86FrameLowering27restoreCalleeSavedRegistersERNS_17MachineBasicBlockENS_14ilist_iteratorINS_12MachineInstrEEERKSt6vectorINS_15CalleeSavedInfoESaIS7_EEPKNS_18TargetRegisterInfoE
__ZNK4llvm16X86FrameLowering25emitCalleeSavedFrameMovesERNS_15MachineFunctionEPNS_8MCSymbolEj
__ZN4llvm8DenseMapIxPNS_6SDNodeENS_12DenseMapInfoIxEENS3_IS2_EEE6insertERKSt4pairIxS2_E
__ZN4llvm8DenseMapIxPNS_6SDNodeENS_12DenseMapInfoIxEENS3_IS2_EEE16InsertIntoBucketERKxRKS2_PSt4pairIxS2_E
__ZN4llvm8DenseMapIxPNS_6SDNodeENS_12DenseMapInfoIxEENS3_IS2_EEE4growEj
__ZSt16__introsort_loopIPxlEvT_S1_T0_
__ZSt22__final_insertion_sortIPxEvT_S1_
__ZNK4llvm12X86InstrInfo23shouldScheduleLoadsNearEPNS_6SDNodeES2_xxj
__ZN12_GLOBAL__N_111X86FastISel18TryEmitSmallMemcpyEN4llvm14X86AddressModeES2_y
__ZNK4llvm10FoldingSetINS_6SDNodeEE15ComputeNodeHashEPNS_14FoldingSetImpl4NodeERNS_16FoldingSetNodeIDE
__ZL7AddGluePN4llvm6SDNodeENS_7SDValueEbPNS_12SelectionDAGE
__ZN12_GLOBAL__N_111DAGCombiner32SimplifyBinOpWithSameOpcodeHandsEPN4llvm6SDNodeE
__ZNK4llvm14TargetLowering20isOffsetFoldingLegalEPKNS_19GlobalAddressSDNodeE
__ZN4llvm7CCState11HandleByValEjNS_3MVTES1_NS_11CCValAssign7LocInfoEiiNS_3ISD10ArgFlagsTyE
__ZNK4llvm14TargetLowering11HandleByValEPNS_7CCStateERj
__ZN4llvm12SelectionDAG9getMemsetENS_7SDValueENS_8DebugLocES1_S1_S1_jbNS_18MachinePointerInfoE
__ZL24FindOptimalMemOpLoweringRSt6vectorIN4llvm3EVTESaIS1_EEjyjjbbRNS0_12SelectionDAGERKNS0_14TargetLoweringE
__ZNK4llvm17X86TargetLowering19getOptimalMemOpTypeEyjjbbRNS_15MachineFunctionE
__ZNSt6vectorIN4llvm3EVTESaIS1_EE13_M_insert_auxEN9__gnu_cxx17__normal_iteratorIPS1_S3_EERKS1_
__ZN4llvm10VectorType3getEPNS_4TypeEj
__ZNK4llvm8DenseMapISt4pairIPNS_4TypeEjEPNS_10VectorTypeENS_12DenseMapInfoIS4_EENS7_IS6_EEE15LookupBucketForERKS4_RPS1_IS4_S6_E
__ZN4llvm8DenseMapISt4pairIPNS_4TypeEjEPNS_10VectorTypeENS_12DenseMapInfoIS4_EENS7_IS6_EEE16InsertIntoBucketERKS4_RKS6_PS1_IS4_S6_E
__ZN4llvm8DenseMapISt4pairIPNS_4TypeEjEPNS_10VectorTypeENS_12DenseMapInfoIS4_EENS7_IS6_EEE4growEj
__ZL14getMemsetValueN4llvm7SDValueENS_3EVTERNS_12SelectionDAGENS_8DebugLocE
__ZL9SplatBytejh
__ZL23ExtendUsesToFormExtLoadPN4llvm6SDNodeENS_7SDValueEjRNS_11SmallVectorIS1_Lj4EEERKNS_14TargetLoweringE
__ZN4llvm15SmallVectorImplIPNS_6SDNodeEEaSERKS3_
__ZNK4llvm17X86TargetLowering17LowerBUILD_VECTORENS_7SDValueERNS_12SelectionDAGE
__ZN4llvm3ISD21isBuildVectorAllZerosEPKNS_6SDNodeE
__ZN4llvm20FunctionLoweringInfo21setArgumentFrameIndexEPKNS_8ArgumentEi
__ZN4llvm8DenseMapIPKNS_8ArgumentEiNS_12DenseMapInfoIS3_EENS4_IiEEE16InsertIntoBucketERKS3_RKiPSt4pairIS3_iE
__ZN4llvm8DenseMapIPKNS_8ArgumentEiNS_12DenseMapInfoIS3_EENS4_IiEEE4growEj
__ZN4llvm5APInt8tcNegateEPyj
__ZN4llvm5APInt25tcSetLeastSignificantBitsEPyjj
__ZN4llvm19SelectionDAGBuilder13visitIntToPtrERKNS_4UserE
__ZNK4llvm17X86TargetLowering16LowerMemOpCallToENS_7SDValueES1_S1_NS_8DebugLocERNS_12SelectionDAGERKNS_11CCValAssignENS_3ISD10ArgFlagsTyE
__ZN4llvm18MachinePointerInfo8getStackEx
__ZN4llvm17PseudoSourceValue8getStackEv
__ZN4llvm19SelectionDAGBuilder11visitUIToFPERKNS_4UserE
__ZNK4llvm14TargetLowering18getTypeToPromoteToEjNS_3EVTE
__ZN4llvm4Type10getInt16TyERNS_11LLVMContextE
__ZN4llvm10BasicBlock17removePredecessorEPS0_b
__ZN4llvm10BasicBlock17dropAllReferencesEv
__ZN4llvm6iplistINS_11InstructionENS_12ilist_traitsIS1_EEE5eraseENS_14ilist_iteratorIS1_EE
__ZN4llvm19SelectionDAGBuilder13visitPtrToIntERKNS_4UserE
__ZNK4llvm14TargetLowering14BuildExactSDIVENS_7SDValueES1_NS_8DebugLocERNS_12SelectionDAGE
__ZN4llvm12ConstantExpr7getSExtEPNS_8ConstantEPNS_4TypeE
__ZN12_GLOBAL__N_115MCMachOStreamer12EmitZerofillEPKN4llvm9MCSectionEPNS1_8MCSymbolEjj
__ZSt8__medianIN4llvm16MachObjectWriter14MachSymbolDataEERKT_S5_S5_S5_
__ZSt21__unguarded_partitionIN9__gnu_cxx17__normal_iteratorIPN4llvm16MachObjectWriter14MachSymbolDataESt6vectorIS4_SaIS4_EEEES4_ET_SA_SA_T0_
__ZNK12_GLOBAL__N_122DarwinX86_64AsmBackend19isSectionAtomizableERKN4llvm9MCSectionE
__ZN4llvm14MCFillFragmentD0Ev
__ZN12_GLOBAL__N_114SimplifyCFGOpt25isValueEqualityComparisonEPN4llvm14TerminatorInstE
__ZL14GetConstantIntPN4llvm5ValueEPKNS_10TargetDataE
__ZL22SpeculativelyExecuteBBPN4llvm10BranchInstEPNS_10BasicBlockE
__ZN4llvm22FoldBranchToCommonDestEPNS_10BranchInstE
__ZN4llvm10BasicBlock29getFirstNonPHIOrDbgOrLifetimeEv
__ZNK4llvm11Instruction28isSafeToSpeculativelyExecuteEv
__ZNK4llvm5Value24isDereferenceablePointerEv
__ZN12_GLOBAL__N_114SimplifyCFGOpt45SimplifyEqualityComparisonWithOnlyPredecessorEPN4llvm14TerminatorInstEPNS1_10BasicBlockERNS1_9IRBuilderILb1ENS1_14ConstantFolderENS1_24IRBuilderDefaultInserterILb1EEEEE
__ZNK4llvm11Instruction24isIdenticalToWhenDefinedEPKS0_
__ZL22SafeToMergeTerminatorsPN4llvm14TerminatorInstES1_
__ZN4llvm39TryToSimplifyUncondBranchFromEmptyBlockEPNS_10BasicBlockE
__ZN4llvm4EvalINS_11GraphTraitsIPNS_10BasicBlockEEEEEPNT_8NodeTypeERNS_17DominatorTreeBaseIS6_EES7_j
__ZN4llvm17DominatorTreeBaseINS_10BasicBlockEE15getNodeForBlockEPS1_
__ZNSt6vectorIPN4llvm15DomTreeNodeBaseINS0_10BasicBlockEEESaIS4_EE13_M_insert_auxEN9__gnu_cxx17__normal_iteratorIPS4_S6_EERKS4_
__ZN4llvm8LoadInstD0Ev
__ZN4llvm8DenseMapIPNS_15DomTreeNodeBaseINS_10BasicBlockEEEjNS_12DenseMapInfoIS4_EENS5_IjEEE16InsertIntoBucketERKS4_RKjPSt4pairIS4_jE
__ZN4llvm8DenseMapIPNS_15DomTreeNodeBaseINS_10BasicBlockEEEjNS_12DenseMapInfoIS4_EENS5_IjEEE4growEj
__ZN4llvm8DenseMapIPNS_10AllocaInstEjNS_12DenseMapInfoIS2_EENS3_IjEEE16InsertIntoBucketERKS2_RKjPSt4pairIS2_jE
__ZN4llvm8DenseMapIPNS_10AllocaInstEjNS_12DenseMapInfoIS2_EENS3_IjEEE4growEj
__ZN4llvm8DenseMapISt4pairIPNS_10BasicBlockEjEPNS_7PHINodeENS_12DenseMapInfoIS4_EENS7_IS6_EEE16FindAndConstructERKS4_
__ZN4llvm8DenseMapISt4pairIPNS_10BasicBlockEjEPNS_7PHINodeENS_12DenseMapInfoIS4_EENS7_IS6_EEE16InsertIntoBucketERKS4_RKS6_PS1_IS4_S6_E
__ZN4llvm8DenseMapISt4pairIPNS_10BasicBlockEjEPNS_7PHINodeENS_12DenseMapInfoIS4_EENS7_IS6_EEE4growEj
__ZN4llvm8DenseMapIPKNS_10BasicBlockEjNS_12DenseMapInfoIS3_EENS4_IjEEE16InsertIntoBucketERKS3_RKjPSt4pairIS3_jE
__ZN4llvm8DenseMapIPKNS_10BasicBlockEjNS_12DenseMapInfoIS3_EENS4_IjEEE4growEj
__ZN4llvm8DenseMapIPNS_7PHINodeEjNS_12DenseMapInfoIS2_EENS3_IjEEE16InsertIntoBucketERKS2_RKjPSt4pairIS2_jE
__ZN4llvm8DenseMapIPNS_7PHINodeEjNS_12DenseMapInfoIS2_EENS3_IjEEE4growEj
__ZN12_GLOBAL__N_114LargeBlockInfo19getInstructionIndexEPKN4llvm11InstructionE
__ZN4llvm8DenseMapIPKNS_11InstructionEjNS_12DenseMapInfoIS3_EENS4_IjEEE16InsertIntoBucketERKS3_RKjPSt4pairIS3_jE
__ZN4llvm8DenseMapIPKNS_11InstructionEjNS_12DenseMapInfoIS3_EENS4_IjEEE4growEj
__ZN4llvm8DenseMapIPKNS_11InstructionEjNS_12DenseMapInfoIS3_EENS4_IjEEE5clearEv
__ZNSt6vectorIN12_GLOBAL__N_114RenamePassDataESaIS1_EE9push_backERKS1_
__ZN4llvm8DenseMapISt4pairIPNS_10BasicBlockEjEPNS_7PHINodeENS_12DenseMapInfoIS4_EENS7_IS6_EEE5clearEv
__ZN4llvm28ConstantFoldLoadFromConstPtrEPNS_8ConstantEPKNS_10TargetDataE
__ZN4llvm8DenseMapIPNS_5ValueEPNS_18ScopedHashTableValIS2_St4pairIS2_jEEENS_12DenseMapInfoIS2_EENS8_IS7_EEE16InsertIntoBucketERKS2_RKS7_PS4_IS2_S7_E
__ZN4llvm8DenseMapIPNS_5ValueEPNS_18ScopedHashTableValIS2_St4pairIS2_jEEENS_12DenseMapInfoIS2_EENS8_IS7_EEE4growEj
__ZL16SimplifyICmpInstjPN4llvm5ValueES1_PKNS_10TargetDataEPKNS_13DominatorTreeEj
__ZN4llvm14isKnownNonZeroEPNS_5ValueEPKNS_10TargetDataEj
__ZN4llvm17ComputeMaskedBitsEPNS_5ValueERKNS_5APIntERS2_S5_PKNS_10TargetDataEj
__ZN4llvm8ICmpInst17makeConstantRangeENS_7CmpInst9PredicateERKNS_5APIntE
__ZN4llvm13ConstantRangeC1ERKNS_5APIntES3_
__ZNK4llvm13ConstantRange10isEmptySetEv
__ZNK4llvm13ConstantRange9isFullSetEv
__ZNK4llvm8DenseMapIN12_GLOBAL__N_111SimpleValueEPNS_18ScopedHashTableValIS2_PNS_5ValueEEENS_12DenseMapInfoIS2_EENS8_IS7_EEE15LookupBucketForERKS2_RPSt4pairIS2_S7_E
__ZN4llvm8DenseMapIN12_GLOBAL__N_111SimpleValueEPNS_18ScopedHashTableValIS2_PNS_5ValueEEENS_12DenseMapInfoIS2_EENS8_IS7_EEEixERKS2_
__ZN4llvm8DenseMapIN12_GLOBAL__N_111SimpleValueEPNS_18ScopedHashTableValIS2_PNS_5ValueEEENS_12DenseMapInfoIS2_EENS8_IS7_EEE4growEj
__ZNK4llvm7PHINode16hasConstantValueEv
__ZL16ThreadCmpOverPHIN4llvm7CmpInst9PredicateEPNS_5ValueES3_PKNS_10TargetDataEPKNS_13DominatorTreeEj
__ZN4llvm15SimplifyGEPInstENS_8ArrayRefIPNS_5ValueEEEPKNS_10TargetDataEPKNS_13DominatorTreeE
__ZNK4llvm11Instruction13isIdenticalToEPKS0_
__ZL30isOnlyCopiedFromConstantGlobalPN4llvm5ValueERPNS_15MemTransferInstEbRNS_11SmallVectorIPNS_11InstructionELj4EEE
__ZN12_GLOBAL__N_14SROA19isSafeForScalarReplEPN4llvm11InstructionEyRNS0_10AllocaInfoE
__ZN12_GLOBAL__N_119ConvertToScalarInfo18CanConvertToScalarEPN4llvm5ValueEy
__ZNK4llvm14BinaryOperator15hasNoSignedWrapEv
__ZNK4llvm14BinaryOperator17hasNoUnsignedWrapEv
__ZL15SimplifySubInstPN4llvm5ValueES1_bbPKNS_10TargetDataEPKNS_13DominatorTreeEj
__ZN4llvm12PatternMatch14BinaryOp_matchINS0_14specificval_tyENS0_17constantint_matchILx2EEELj13EE5matchINS_5ValueEEEbPT_
__ZL14FactorizeBinOpjPN4llvm5ValueES1_jPKNS_10TargetDataEPKNS_13DominatorTreeEj
__ZL15SimplifyAddInstPN4llvm5ValueES1_bbPKNS_10TargetDataEPKNS_13DominatorTreeEj
__ZN4llvm12PatternMatch9not_matchINS0_14specificval_tyEE5matchINS_5ValueEEEbPT_
__ZL24SimplifyAssociativeBinOpjPN4llvm5ValueES1_PKNS_10TargetDataEPKNS_13DominatorTreeEj
__ZNK4llvm11Instruction5cloneEv
__ZNK4llvm8LoadInst10clone_implEv
__ZN4llvm8LoadInstC2EPNS_5ValueERKNS_5TwineEbjNS_14AtomicOrderingENS_20SynchronizationScopeEPNS_11InstructionE
__ZNK4llvm8ICmpInst10clone_implEv
__ZN4llvm4User17replaceUsesOfWithEPNS_5ValueES2_
__ZN4llvm9IRBuilderILb1ENS_14ConstantFolderENS_24IRBuilderDefaultInserterILb1EEEE11CreateBinOpENS_11Instruction9BinaryOpsEPNS_5ValueES8_RKNS_5TwineE
__ZN4llvm15DeleteDeadBlockEPNS_10BasicBlockE
__ZN4llvm8ICmpInstD0Ev
__ZL22GatherConstantComparesPN4llvm5ValueERSt6vectorIPNS_11ConstantIntESaIS4_EERS1_PKNS_10TargetDataEbRj
__ZN4llvm13ConstantRangeC1ERKNS_5APIntE
__ZN4llvm13ConstantRange14makeICmpRegionEjRKS0_
__ZNK4llvm13ConstantRange10getSetSizeEv
__ZNK4llvm5APInt3ugtEy
__ZNSt6vectorIPN4llvm11ConstantIntESaIS2_EE13_M_insert_auxEN9__gnu_cxx17__normal_iteratorIPS2_S4_EERKS2_
__ZL14SimplifyOrInstPN4llvm5ValueES1_PKNS_10TargetDataEPKNS_13DominatorTreeEj
__ZN4llvm12PatternMatch11cst_pred_tyINS0_11is_all_onesEE5matchINS_5ValueEEEbPT_
__ZL11ExpandBinOpjPN4llvm5ValueES1_jPKNS_10TargetDataEPKNS_13DominatorTreeEj
__ZN4llvm8DenseMapImPNS_7PHINodeENS_12DenseMapInfoImEENS3_IS2_EEE6insertERKSt4pairImS2_E
__ZN4llvm8DenseMapImPNS_7PHINodeENS_12DenseMapInfoImEENS3_IS2_EEE16InsertIntoBucketERKmRKS2_PSt4pairImS2_E
__ZN4llvm8DenseMapImPNS_7PHINodeENS_12DenseMapInfoImEENS3_IS2_EEE4growEj
__ZL19DominatesMergePointPN4llvm5ValueEPNS_10BasicBlockEPNS_11SmallPtrSetIPNS_11InstructionELj4EEERj
__ZN4llvm17GetElementPtrInstD0Ev
__ZNK4llvm11Instruction8mayThrowEv
__ZL19FoldCondBranchOnPHIPN4llvm10BranchInstEPKNS_10TargetDataE
__ZL34BlockIsSimpleEnoughToThreadThroughPN4llvm10BasicBlockE
__ZN4llvm21GetConstantStringInfoEPKNS_5ValueERSsyb
__ZL31FoldReinterpretLoadFromConstPtrPN4llvm8ConstantERKNS_10TargetDataE
__ZL26IsConstantOffsetFromGlobalPN4llvm8ConstantERPNS_11GlobalValueERxRKNS_10TargetDataE
__ZSt16__introsort_loopIPSt4pairIjPN4llvm10BasicBlockEElEvT_S6_T0_
__ZSt22__final_insertion_sortIPSt4pairIjPN4llvm10BasicBlockEEEvT_S6_
__ZN4llvm14ComputeSignBitEPNS_5ValueERbS2_PKNS_10TargetDataEj
__ZN4llvm7CmpInst10isUnsignedEt
__ZN4llvm7CmpInst8isSignedEt
__ZN4llvm14BinaryOperatorD0Ev
__ZN4llvm8SExtInstD0Ev
__ZSt16__introsort_loopIPSt4pairIjPN4llvm9StoreInstEElEvT_S6_T0_
__ZSt22__final_insertion_sortIPSt4pairIjPN4llvm9StoreInstEEEvT_S6_
__ZL13SimplifyBinOpjPN4llvm5ValueES1_PKNS_10TargetDataEPKNS_13DominatorTreeEj
__ZN4llvm7PHINodeD0Ev
__ZN4llvm31ConstantFoldCompareInstOperandsEjPNS_8ConstantES1_PKNS_10TargetDataE
__ZN4llvm12ConstantExpr8getTruncEPNS_8ConstantEPNS_4TypeE
__ZNK4llvm17GetElementPtrInst17hasAllZeroIndicesEv
__ZN4llvm8DenseMapIPNS_5ValueES2_NS_12DenseMapInfoIS2_EES4_E16InsertIntoBucketERKS2_S7_PSt4pairIS2_S2_E
__ZN4llvm8DenseMapIPNS_5ValueES2_NS_12DenseMapInfoIS2_EES4_E4growEj
__ZN4llvm7PHINode19removeIncomingValueEjb
__ZN4llvm10BranchInst13setSuccessorVEjPNS_10BasicBlockE
__ZNK4llvm13ConstantRange12getSignedMinEv
__ZNK4llvm13ConstantRange12getSignedMaxEv
__ZNK4llvm13ConstantRange7inverseEv
__ZN4llvm13ConstantRangeaSERKS0_
__ZNK4llvm10FoldingSetINS_6MDNodeEE10NodeEqualsEPNS_14FoldingSetImpl4NodeERKNS_16FoldingSetNodeIDERS6_
__ZNK4llvm6MDNode7ProfileERNS_16FoldingSetNodeIDE
__ZNK4llvm13DominatorTree9dominatesEPKNS_11InstructionES3_
__ZL15SimplifyAndInstPN4llvm5ValueES1_PKNS_10TargetDataEPKNS_13DominatorTreeEj
__ZN4llvm12PatternMatch9neg_matchINS0_14specificval_tyEE5matchINS_5ValueEEEbPT_
__ZL15SimplifyMulInstPN4llvm5ValueES1_PKNS_10TargetDataEPKNS_13DominatorTreeEj
__ZN4llvm12PatternMatch11cst_pred_tyINS0_6is_oneEE5matchINS_5ValueEEEbPT_
__ZL18ThreadBinOpOverPHIjPN4llvm5ValueES1_PKNS_10TargetDataEPKNS_13DominatorTreeEj
__ZNK4llvm13ConstantRange8containsERKS0_
__ZL20evaluateICmpRelationPN4llvm8ConstantES1_b
__ZN4llvm7CmpInst15isTrueWhenEqualEt
__ZN4llvm8ICmpInst20getUnsignedPredicateENS_7CmpInst9PredicateE
__ZL11SimplifyRemN4llvm11Instruction9BinaryOpsEPNS_5ValueES3_PKNS_10TargetDataEPKNS_13DominatorTreeEj
__ZL11SimplifyDivN4llvm11Instruction9BinaryOpsEPNS_5ValueES3_PKNS_10TargetDataEPKNS_13DominatorTreeEj
__ZN4llvm12PtrToIntInstD0Ev
__ZL16SimplifyFCmpInstjPN4llvm5ValueES1_PKNS_10TargetDataEPKNS_13DominatorTreeEj
__ZN4llvm7CmpInst16isFalseWhenEqualEt
__ZL15SimplifyXorInstPN4llvm5ValueES1_PKNS_10TargetDataEPKNS_13DominatorTreeEj
__ZN4llvm7CmpInst19getSwappedPredicateENS0_9PredicateE
__ZN4llvm12isPowerOfTwoEPNS_5ValueEPKNS_10TargetDataEbj
__ZN4llvm9TruncInstD0Ev
__ZL16SimplifyLShrInstPN4llvm5ValueES1_bPKNS_10TargetDataEPKNS_13DominatorTreeEj
__ZL13SimplifyShiftjPN4llvm5ValueES1_PKNS_10TargetDataEPKNS_13DominatorTreeEj
__ZN12_GLOBAL__N_14SROA16TypeHasComponentEPN4llvm4TypeEyy
__ZNK4llvm17GetElementPtrInst21hasAllConstantIndicesEv
__ZN4llvm25onlyUsedByLifetimeMarkersEPKNS_5ValueE
__ZN12_GLOBAL__N_119ConvertToScalarInfo25MergeInTypeForLoadOrStoreEPN4llvm4TypeEy
__ZN4llvm15SmallVectorImplIPNS_10BasicBlockEE6appendINS_12PredIteratorIS1_NS_18value_use_iteratorINS_4UserEEEEEEEvT_SA_
__ZL18ReadDataFromGlobalPN4llvm8ConstantEyPhjRKNS_10TargetDataE
__ZN4llvm10SelectInstD0Ev
__ZL16SimplifyAShrInstPN4llvm5ValueES1_bPKNS_10TargetDataEPKNS_13DominatorTreeEj
__ZL21ThreadBinOpOverSelectjPN4llvm5ValueES1_PKNS_10TargetDataEPKNS_13DominatorTreeEj
__ZN4llvm9IRBuilderILb1ENS_8NoFolderENS_24IRBuilderDefaultInserterILb1EEEE12CreateSelectEPNS_5ValueES6_S6_RKNS_5TwineE
__ZN4llvm9IRBuilderILb1ENS_8NoFolderENS_24IRBuilderDefaultInserterILb1EEEE8CreateBrEPNS_10BasicBlockE
__ZL15SimplifyShlInstPN4llvm5ValueES1_bbPKNS_10TargetDataEPKNS_13DominatorTreeEj
__ZN12_GLOBAL__N_14SROA15isSafeMemAccessEyyPN4llvm4TypeEbRNS0_10AllocaInfoEPNS1_11InstructionEb
__ZN4llvm12PatternMatch9not_matchINS0_14BinaryOp_matchINS0_7bind_tyINS_5ValueEEES5_Lj24EEEE10matchIfNotEPS4_S8_
__ZN12_GLOBAL__N_114SimplifyCFGOpt35FoldValueComparisonIntoPredecessorsEPN4llvm14TerminatorInstERNS1_9IRBuilderILb1ENS1_14ConstantFolderENS1_24IRBuilderDefaultInserterILb1EEEEE
__ZL19ThreadCmpOverSelectN4llvm7CmpInst9PredicateEPNS_5ValueES3_PKNS_10TargetDataEPKNS_13DominatorTreeEj
__ZN4llvm10SIToFPInstD0Ev
__ZNK4llvm13ConstantRange14getUnsignedMinEv
__ZL24ConstantIntSortPredicatePKvS0_
__ZN12_GLOBAL__N_14SROA31isSafePHISelectUseForScalarReplEPN4llvm11InstructionEyRNS0_10AllocaInfoE
__ZN12_GLOBAL__N_119ConvertToScalarInfo19ConvertUsesToScalarEPN4llvm5ValueEPNS1_10AllocaInstEy
__ZN4llvm9IRBuilderILb1ENS_14ConstantFolderENS_24IRBuilderDefaultInserterILb1EEEE10CreateLoadEPNS_5ValueERKNS_5TwineE
__ZN12_GLOBAL__N_119ConvertToScalarInfo26ConvertScalar_ExtractValueEPN4llvm5ValueEPNS1_4TypeEyRNS1_9IRBuilderILb1ENS1_14ConstantFolderENS1_24IRBuilderDefaultInserterILb1EEEEE
__ZN4llvm9IRBuilderILb1ENS_14ConstantFolderENS_24IRBuilderDefaultInserterILb1EEEE10CreateLShrEPNS_5ValueES6_RKNS_5TwineEb
__ZN4llvm9IRBuilderILb1ENS_14ConstantFolderENS_24IRBuilderDefaultInserterILb1EEEE10CreateCastENS_11Instruction7CastOpsEPNS_5ValueEPNS_4TypeERKNS_5TwineE
__ZN12_GLOBAL__N_119ConvertToScalarInfo25ConvertScalar_InsertValueEPN4llvm5ValueES3_yRNS1_9IRBuilderILb1ENS1_14ConstantFolderENS1_24IRBuilderDefaultInserterILb1EEEEE
__ZNK4llvm5APInt13EqualSlowCaseERKS0_
__ZN4llvm9IRBuilderILb1ENS_14ConstantFolderENS_24IRBuilderDefaultInserterILb1EEEE23CreateInsertNUWNSWBinOpENS_11Instruction9BinaryOpsEPNS_5ValueES8_RKNS_5TwineEbb
__ZN4llvm9IRBuilderILb1ENS_14ConstantFolderENS_24IRBuilderDefaultInserterILb1EEEE9CreateAndEPNS_5ValueES6_RKNS_5TwineE
__ZNK4llvm5APInt23countPopulationSlowCaseEv
__ZN4llvm9IRBuilderILb1ENS_14ConstantFolderENS_24IRBuilderDefaultInserterILb1EEEE8CreateOrEPNS_5ValueES6_RKNS_5TwineE
__ZN4llvm9IRBuilderILb1ENS_14ConstantFolderENS_24IRBuilderDefaultInserterILb1EEEE11CreateStoreEPNS_5ValueES6_b
__ZNK4llvm5APInt13EqualSlowCaseEy
__ZNK4llvm5APInt11AndSlowCaseERKS0_
__ZN4llvm12IntToPtrInstD0Ev
__ZNK4llvm5APInt4sremERKS0_
__ZN4llvm12ConstantExpr6getXorEPNS_8ConstantES2_
__ZNK4llvm13ConstantRange14getUnsignedMaxEv
__ZNK4llvm10BranchInst10clone_implEv
__ZN4llvm10BranchInstC2ERKS0_
__ZL29EraseTerminatorInstAndDCECondPN4llvm14TerminatorInstE
__ZN4llvm42RecursivelyDeleteTriviallyDeadInstructionsEPNS_5ValueE
__ZNSt8_Rb_treeISt4pairIPN4llvm5ValueES3_ES0_IKS4_PNS1_10SelectInstEESt10_Select1stIS8_ESt4lessIS4_ESaIS8_EE8_M_eraseEPSt13_Rb_tree_nodeIS8_E
__ZN4llvm9IRBuilderILb1ENS_14ConstantFolderENS_24IRBuilderDefaultInserterILb1EEEE10CreateLoadEPNS_5ValueEPKc
__ZN4llvm10SwitchInst10removeCaseEj
__ZN4llvm9IRBuilderILb1ENS_14ConstantFolderENS_24IRBuilderDefaultInserterILb1EEEE8CreateBrEPNS_10BasicBlockE
__ZN4llvm12ConstantExpr7getFCmpEtPNS_8ConstantES2_
__ZNK4llvm7APFloat7compareERKS0_
__ZN4llvm21SymbolTableListTraitsINS_10BasicBlockENS_8FunctionEE18removeNodeFromListEPS1_
__ZNK4llvm5APInt4lshrERKS0_
__ZNK4llvm13ConstantRange12isWrappedSetEv
__ZNSt8_Rb_treeISt4pairIPN4llvm5ValueES3_ES0_IKS4_PNS1_10SelectInstEESt10_Select1stIS8_ESt4lessIS4_ESaIS8_EE16_M_insert_uniqueERKS8_
__ZNSt8_Rb_treeISt4pairIPN4llvm5ValueES3_ES0_IKS4_PNS1_10SelectInstEESt10_Select1stIS8_ESt4lessIS4_ESaIS8_EE16_M_insert_uniqueESt17_Rb_tree_iteratorIS8_ERKS8_
__ZN4llvm9IRBuilderILb1ENS_14ConstantFolderENS_24IRBuilderDefaultInserterILb1EEEE10CreateICmpENS_7CmpInst9PredicateEPNS_5ValueES8_RKNS_5TwineE
__ZN4llvm9IRBuilderILb1ENS_14ConstantFolderENS_24IRBuilderDefaultInserterILb1EEEE12CreateCondBrEPNS_5ValueEPNS_10BasicBlockES8_
__ZN4llvm10SwitchInstD0Ev
__ZNK4llvm11AttrListPtr16hasAttrSomewhereEj
__ZN12_GLOBAL__N_19GlobalOpt21ProcessInternalGlobalEPN4llvm14GlobalVariableERNS1_14ilist_iteratorIS2_EERKNS1_11SmallPtrSetIPKNS1_7PHINodeELj16EEERKNS_12GlobalStatusE
__ZN4llvm14GlobalVariableC1EPNS_4TypeEbNS_11GlobalValue12LinkageTypesEPNS_8ConstantERKNS_5TwineEbj
__ZN4llvm14GlobalVariableC2EPNS_4TypeEbNS_11GlobalValue12LinkageTypesEPNS_8ConstantERKNS_5TwineEbj
__ZN4llvm9StoreInstC1EPNS_5ValueES2_PNS_11InstructionE
__ZN4llvm9StoreInstC2EPNS_5ValueES2_PNS_11InstructionE
__ZN4llvm8LoadInstC1EPNS_5ValueERKNS_5TwineEPNS_11InstructionE
__ZN4llvm8LoadInstC2EPNS_5ValueERKNS_5TwineEPNS_11InstructionE
__ZN4llvm8ZExtInstC1EPNS_5ValueEPNS_4TypeERKNS_5TwineEPNS_11InstructionE
__ZL20isSafeSROAElementUsePN4llvm5ValueE
__ZL27getAggregateConstantElementPN4llvm8ConstantES1_
__ZN4llvm25GetElementPtrConstantExprD0Ev
__ZL26CleanupConstantGlobalUsersPN4llvm5ValueEPNS_8ConstantE
__ZN4llvm8DenseMapIPNS_14GlobalVariableEN12_GLOBAL__N_110LatticeValENS_12DenseMapInfoIS2_EENS5_IS4_EEE4growEj
__ZN12_GLOBAL__N_110SCCPSolver13visitCastInstERN4llvm8CastInstE
__ZN12_GLOBAL__N_110SCCPSolver13visitCallSiteEN4llvm8CallSiteE
__ZN4llvm21canConstantFoldCallToEPKNS_8FunctionE
__ZN12_GLOBAL__N_110SCCPSolver12visitCmpInstERN4llvm7CmpInstE
__ZN12_GLOBAL__N_110SCCPSolver19visitTerminatorInstERN4llvm14TerminatorInstE
__ZN12_GLOBAL__N_110SCCPSolver18markEdgeExecutableEPN4llvm10BasicBlockES3_
__ZN4llvm8DenseMapISt4pairIPNS_10BasicBlockES3_EcNS_12DenseMapInfoIS4_EENS5_IcEEE6insertERKS1_IS4_cE
__ZNK4llvm8DenseMapISt4pairIPNS_10BasicBlockES3_EcNS_12DenseMapInfoIS4_EENS5_IcEEE15LookupBucketForERKS4_RPS1_IS4_cE
__ZN4llvm8DenseMapISt4pairIPNS_10BasicBlockES3_EcNS_12DenseMapInfoIS4_EENS5_IcEEE16InsertIntoBucketERKS4_RKcPS1_IS4_cE
__ZN4llvm8DenseMapISt4pairIPNS_10BasicBlockES3_EcNS_12DenseMapInfoIS4_EENS5_IcEEE4growEj
__ZN12_GLOBAL__N_110SCCPSolver12mergeInValueEPN4llvm5ValueENS_10LatticeValE
__ZN12_GLOBAL__N_110SCCPSolver19visitBinaryOperatorERN4llvm11InstructionE
__ZN12_GLOBAL__N_110SCCPSolver12visitPHINodeERN4llvm7PHINodeE
__ZN12_GLOBAL__N_110SCCPSolver12markConstantEPN4llvm5ValueEPNS1_8ConstantE
__ZN4llvm38ConstantFoldLoadThroughGEPConstantExprEPNS_8ConstantEPNS_12ConstantExprE
__ZN4llvm12ConstantExpr14getPointerCastEPNS_8ConstantEPNS_4TypeE
__ZNK4llvm5APInt10OrSlowCaseERKS0_
__ZN4llvm7APFloat24addOrSubtractSignificandERKS0_b
__ZN4llvm7APFloat3addERKS0_NS0_12roundingModeE
__ZN4llvm5APInt5tcAddEPyPKyyj
__ZN4llvm12ConstantExpr16getSExtOrBitCastEPNS_8ConstantEPNS_4TypeE
__ZL24DeleteInstructionInBlockPN4llvm10BasicBlockE
__ZN12_GLOBAL__N_13DAE9MarkValueERKNS0_8RetOrArgENS0_8LivenessERKN4llvm11SmallVectorIS1_Lj5EEE
__ZN12_GLOBAL__N_13DAE9SurveyUseEN4llvm18value_use_iteratorIKNS1_4UserEEERNS1_11SmallVectorINS0_8RetOrArgELj5EEEj
__ZN12_GLOBAL__N_13DAE8MarkLiveERKNS0_8RetOrArgE
__ZN12_GLOBAL__N_13DAE13MarkIfNotLiveENS0_8RetOrArgERN4llvm11SmallVectorIS1_Lj5EEE
__ZNSt3setIN12_GLOBAL__N_13DAE8RetOrArgESt4lessIS2_ESaIS2_EE5eraseERKS2_
__ZN4llvm9Attribute16typeIncompatibleEPNS_4TypeE
__ZN4llvm8Function18copyAttributesFromEPKNS_11GlobalValueE
__ZN4llvm11GlobalValue18copyAttributesFromEPKS0_
__ZN4llvm21SymbolTableListTraitsINS_8FunctionENS_6ModuleEE13addNodeToListEPS1_
__ZN4llvm21SymbolTableListTraitsINS_10BasicBlockENS_8FunctionEE21transferNodesFromListERNS_12ilist_traitsIS1_EENS_14ilist_iteratorIS1_EES8_
__ZN4llvm10ReturnInstD0Ev
__ZNSt6vectorIPN4llvm5ValueESaIS2_EE13_M_insert_auxEN9__gnu_cxx17__normal_iteratorIPS2_S4_EERKS2_
__ZN4llvm8ArgumentD0Ev
__ZNK4llvm8Argument8getArgNoEv
__ZN4llvm12InstCombiner13visitCallInstERNS_8CallInstE
__ZN4llvm8isMallocEPKNS_5ValueE
__ZN4llvm12InstCombiner13visitCallSiteENS_8CallSiteE
__ZN4llvm25SimplifyFortifiedLibCalls4foldEPNS_8CallInstEPKNS_10TargetDataE
__ZN4llvm25SimplifyFortifiedLibCallsD2Ev
__ZN4llvm12InstCombiner13visitLoadInstERNS_8LoadInstE
__ZN4llvm26getOrEnforceKnownAlignmentEPNS_5ValueEjPKNS_10TargetDataE
__ZN4llvm24FindAvailableLoadedValueEPNS_5ValueEPNS_10BasicBlockERNS_14ilist_iteratorINS_11InstructionEEEjPNS_13AliasAnalysisE
__ZN4llvm12InstCombiner9visitZExtERNS_8ZExtInstE
__ZN4llvm12InstCombiner20commonCastTransformsERNS_8CastInstE
__ZN4llvm12InstCombiner31SimplifyDemandedInstructionBitsERNS_11InstructionE
__ZN4llvm12InstCombiner23SimplifyDemandedUseBitsEPNS_5ValueENS_5APIntERS3_S4_j
__ZN4llvm12InstCombiner20SimplifyDemandedBitsERNS_3UseENS_5APIntERS3_S4_j
__ZNK4llvm12InstCombiner16ShouldChangeTypeEPNS_4TypeES2_
__ZL16CanEvaluateZExtdPN4llvm5ValueEPNS_4TypeERj
__ZN4llvm12InstCombiner13visitICmpInstERNS_8ICmpInstE
__ZN4llvm14BinaryOperator5isNegEPKNS_5ValueE
__ZN4llvm14BinaryOperator5isNotEPKNS_5ValueE
__ZN4llvm16SimplifyICmpInstEjPNS_5ValueES1_PKNS_10TargetDataEPKNS_13DominatorTreeE
__ZN4llvm19InstCombineWorklist18AddUsersToWorkListERNS_11InstructionE
__ZN4llvm12InstCombiner21EraseInstFromFunctionERNS_11InstructionE
__ZN4llvm19InstCombineWorklist6RemoveEPNS_11InstructionE
__ZN4llvm12InstCombiner15visitBranchInstERNS_10BranchInstE
__ZN4llvm12PatternMatch9not_matchINS0_7bind_tyINS_5ValueEEEE5matchIS3_EEbPT_
__ZN4llvm12InstCombiner14visitStoreInstERNS_9StoreInstE
__ZN4llvm12InstCombiner25SimplifyStoreAtEndOfBlockERNS_9StoreInstE
__ZN4llvm12InstCombiner12visitPHINodeERNS_7PHINodeE
__ZN4llvm12InstCombiner19FoldPHIArgOpIntoPHIERNS_7PHINodeE
__ZN4llvm12InstCombiner21FoldPHIArgLoadIntoPHIERNS_7PHINodeE
__ZL29isSafeAndProfitableToSinkLoadPN4llvm8LoadInstE
__ZN4llvm12InstCombiner19InsertNewInstBeforeEPNS_11InstructionERS1_
__ZN4llvm8LoadInstC1EPNS_5ValueERKNS_5TwineEbjPNS_11InstructionE
__ZN4llvm8LoadInstC2EPNS_5ValueERKNS_5TwineEbjPNS_11InstructionE
__ZN4llvm10BasicBlock19getFirstInsertionPtEv
__ZNK4llvm4Type18isIntOrIntVectorTyEv
__ZN4llvm10BranchInst14swapSuccessorsEv
__ZN4llvm3Use4swapERS0_
__ZN4llvm12InstCombiner22visitGetElementPtrInstERNS_17GetElementPtrInstE
__ZN4llvm9IRBuilderILb1ENS_12TargetFolderENS_21InstCombineIRInserterEE13CreateIntCastEPNS_5ValueEPNS_4TypeEbRKNS_5TwineE
__ZN4llvm8CallInst12addAttributeEjj
__ZL14isSignBitCheckN4llvm7CmpInst9PredicateEPNS_11ConstantIntERb
__ZN4llvm12InstCombiner30visitICmpInstWithInstAndIntCstERNS_8ICmpInstEPNS_11InstructionEPNS_11ConstantIntE
__ZN4llvm12PatternMatch15CastClass_matchINS0_12OneUse_matchINS0_14BinaryOp_matchINS0_7bind_tyINS_5ValueEEENS0_20bind_const_intval_tyELj22EEEEELj34EE5matchIS5_EEbPT_
__ZN4llvm12InstCombiner15visitAllocaInstERNS_10AllocaInstE
__ZN4llvm12InstCombiner15visitSwitchInstERNS_10SwitchInstE
__ZN4llvm12InstCombiner12visitBitCastERNS_11BitCastInstE
__ZN4llvm12InstCombiner27commonPointerCastTransformsERNS_8CastInstE
__ZN4llvm12InstCombiner13EmitGEPOffsetEPNS_4UserE
__ZN4llvm9IRBuilderILb1ENS_12TargetFolderENS_21InstCombineIRInserterEE9CreateAddEPNS_5ValueES5_RKNS_5TwineEbb
__ZN4llvm12InstCombiner19FindElementAtOffsetEPNS_4TypeExRNS_15SmallVectorImplIPNS_5ValueEEE
__ZNK4llvm17GetElementPtrInst10isInBoundsEv
__ZN4llvm9IRBuilderILb1ENS_12TargetFolderENS_21InstCombineIRInserterEE17CreateInBoundsGEPEPNS_5ValueENS_8ArrayRefIS5_EERKNS_5TwineE
__ZNK4llvm21InstCombineIRInserter12InsertHelperEPNS_11InstructionERKNS_5TwineEPNS_10BasicBlockENS_14ilist_iteratorIS1_EE
__ZN4llvm11BitCastInstC1EPNS_5ValueEPNS_4TypeERKNS_5TwineEPNS_11InstructionE
__ZL22InstCombineStoreToCastRN4llvm12InstCombinerERNS_9StoreInstE
__ZN4llvm12InstCombiner8visitSubERNS_14BinaryOperatorE
__ZN4llvm15SimplifySubInstEPNS_5ValueES1_bbPKNS_10TargetDataEPKNS_13DominatorTreeE
__ZN4llvm12InstCombiner29SimplifyUsingDistributiveLawsERNS_14BinaryOperatorE
__ZNK4llvm12InstCombiner14dyn_castNegValEPNS_5ValueE
__ZN4llvm14BinaryOperator20setHasNoUnsignedWrapEb
__ZN4llvm12InstCombiner8visitAddERNS_14BinaryOperatorE
__ZN4llvm12InstCombiner32SimplifyAssociativeOrCommutativeERNS_14BinaryOperatorE
__ZN4llvm11Instruction13isAssociativeEj
__ZN4llvm15SimplifyAddInstEPNS_5ValueES1_bbPKNS_10TargetDataEPKNS_13DominatorTreeE
__ZL22ShrinkDemandedConstantPN4llvm11InstructionEjNS_5APIntE
__ZL19dyn_castFoldableMulPN4llvm5ValueERPNS_11ConstantIntE
__ZN4llvm12InstCombiner9visitSExtERNS_8SExtInstE
__ZL16CanEvaluateSExtdPN4llvm5ValueEPNS_4TypeE
__ZN4llvm12PatternMatch14BinaryOp_matchINS1_INS0_15CastClass_matchINS0_7bind_tyINS_5ValueEEELj34EEENS3_INS_11ConstantIntEEELj21EEES8_Lj23EE5matchIS4_EEbPT_
__ZN4llvm12InstCombiner7visitOrERNS_14BinaryOperatorE
__ZN4llvm14SimplifyOrInstEPNS_5ValueES1_PKNS_10TargetDataEPKNS_13DominatorTreeE
__ZL14dyn_castNotValPN4llvm5ValueE
__ZN4llvm12InstCombiner13FoldOrOfICmpsEPNS_8ICmpInstES2_
__ZL22foldLogOpOfMaskedICmpsPN4llvm8ICmpInstES1_NS_7CmpInst9PredicateEPNS_9IRBuilderILb1ENS_12TargetFolderENS_21InstCombineIRInserterEEE
__ZN4llvm12InstCombiner24SliceUpIllegalIntegerPHIERNS_7PHINodeE
__ZL38ComputeSignedMinMaxValuesFromKnownBitsRKN4llvm5APIntES2_RS0_S3_
__ZL14PHIsEqualValuePN4llvm7PHINodeEPNS_5ValueERNS_11SmallPtrSetIS1_Lj16EEE
__ZN4llvm12InstCombiner13FoldOpIntoPhiERNS_11InstructionE
__ZN4llvm12InstCombiner11visitMallocERNS_11InstructionE
__ZL26IsOnlyNullComparedAndFreedPN4llvm5ValueERNS_15SmallVectorImplINS_6WeakVHEEEi
__ZNK4llvm11Instruction17isSameOperationAsEPKS0_
__ZN4llvm12InstCombiner26transformConstExprCastCallENS_8CallSiteE
__ZL19InstCombineLoadCastRN4llvm12InstCombinerERNS_8LoadInstEPKNS_10TargetDataE
__ZN4llvm12InstCombiner10visitTruncERNS_9TruncInstE
__ZL20CanEvaluateTruncatedPN4llvm5ValueEPNS_4TypeE
__ZN4llvm12PatternMatch14BinaryOp_matchINS0_15CastClass_matchINS0_7bind_tyINS_5ValueEEELj35EEENS3_INS_11ConstantIntEEELj22EE5matchIS4_EEbPT_
__ZL20isEliminableCastPairPKN4llvm8CastInstEjPNS_4TypeEPNS_10TargetDataE
__ZN4llvm12InstCombiner23EvaluateInDifferentTypeEPNS_5ValueEPNS_4TypeEb
__ZN4llvm18ComputeNumSignBitsEPNS_5ValueEPKNS_10TargetDataEj
__ZN4llvm9IRBuilderILb1ENS_12TargetFolderENS_21InstCombineIRInserterEE9CreateShlEPNS_5ValueES5_RKNS_5TwineEbb
__ZN4llvm9IRBuilderILb1ENS_12TargetFolderENS_21InstCombineIRInserterEE23CreateInsertNUWNSWBinOpENS_11Instruction9BinaryOpsEPNS_5ValueES7_RKNS_5TwineEbb
__ZN4llvm12InstCombiner9visitAShrERNS_14BinaryOperatorE
__ZN4llvm16SimplifyAShrInstEPNS_5ValueES1_bPKNS_10TargetDataEPKNS_13DominatorTreeE
__ZN4llvm12InstCombiner21commonShiftTransformsERNS_14BinaryOperatorE
__ZN4llvm12InstCombiner19FoldShiftByConstantEPNS_5ValueEPNS_11ConstantIntERNS_14BinaryOperatorE
__ZN4llvm17MaskedValueIsZeroEPNS_5ValueERKNS_5APIntEPKNS_10TargetDataEj
__ZN4llvm12InstCombiner8visitShlERNS_14BinaryOperatorE
__ZN4llvm15SimplifyShlInstEPNS_5ValueES1_bbPKNS_10TargetDataEPKNS_13DominatorTreeE
__ZL18CanEvaluateShiftedPN4llvm5ValueEjbRNS_12InstCombinerE
__ZN4llvm12PatternMatch15CastClass_matchINS1_INS0_7bind_tyINS_5ValueEEELj43EEELj34EE5matchIS3_EEbPT_
__ZN4llvm12InstCombiner9visitFreeERNS_8CallInstE
__ZNK12_GLOBAL__N_128InstCombineFortifiedLibCalls10isFoldableEjjb
__ZN4llvm12PatternMatch14BinaryOp_matchINS1_INS0_7bind_tyINS_5ValueEEES4_Lj9EEENS2_INS_11ConstantIntEEELj9EE5matchIS3_EEbPT_
__ZNK4llvm11ConstantInt10isMaxValueEb
__ZN4llvm12InstCombiner28visitICmpInstWithCastAndCastERNS_8ICmpInstE
__ZN4llvm8DenseMapIPNS_12ConstantExprEPNS_8ConstantENS_12DenseMapInfoIS2_EENS5_IS4_EEE16InsertIntoBucketERKS2_RKS4_PSt4pairIS2_S4_E
__ZN4llvm8DenseMapIPNS_12ConstantExprEPNS_8ConstantENS_12DenseMapInfoIS2_EENS5_IS4_EEE4growEj
__ZN4llvm30ConstantFoldConstantExpressionEPKNS_12ConstantExprEPKNS_10TargetDataE
__ZNK4llvm12ConstantExpr9isCompareEv
__ZN4llvm17GetElementPtrInst14getIndexedTypeEPNS_4TypeENS_8ArrayRefIPNS_8ConstantEEE
__ZN4llvm11Instruction10moveBeforeEPS0_
__ZN4llvm12InstCombiner8visitAndERNS_14BinaryOperatorE
__ZN4llvm15SimplifyAndInstEPNS_5ValueES1_PKNS_10TargetDataEPKNS_13DominatorTreeE
__ZN4llvm12InstCombiner14FoldAndOfICmpsEPNS_8ICmpInstES2_
__ZNK4llvm13ConstantRange13intersectWithERKS0_
__ZN4llvm12InstCombiner15InsertRangeTestEPNS_5ValueEPNS_8ConstantES4_bb
__ZN4llvm9IRBuilderILb1ENS_12TargetFolderENS_21InstCombineIRInserterEE10CreateICmpENS_7CmpInst9PredicateEPNS_5ValueES7_RKNS_5TwineE
__ZNK4llvm13ConstantRange8subtractERKNS_5APIntE
__ZN4llvm9IRBuilderILb1ENS_12TargetFolderENS_21InstCombineIRInserterEE9CreateGEPEPNS_5ValueENS_8ArrayRefIS5_EERKNS_5TwineE
__ZN4llvm12InstCombiner9visitLShrERNS_14BinaryOperatorE
__ZN4llvm16SimplifyLShrInstEPNS_5ValueES1_bPKNS_10TargetDataEPKNS_13DominatorTreeE
__ZN4llvm12InstCombiner15visitSelectInstERNS_10SelectInstE
__ZN4llvm18SimplifySelectInstEPNS_5ValueES1_S1_PKNS_10TargetDataEPKNS_13DominatorTreeE
__ZN4llvm12InstCombiner23visitSelectInstWithICmpERNS_10SelectInstEPNS_8ICmpInstE
__ZL22SimplifyWithOpReplacedPN4llvm5ValueES1_S1_PKNS_10TargetDataE
__ZN4llvm12InstCombiner16FoldSelectIntoOpERNS_10SelectInstEPNS_5ValueES4_
__ZN4llvm12InstCombiner16FoldOpIntoSelectERNS_11InstructionEPNS_10SelectInstE
__ZL30FoldOperationIntoSelectOperandRN4llvm11InstructionEPNS_5ValueEPNS_12InstCombinerE
__ZN4llvm9IRBuilderILb1ENS_12TargetFolderENS_21InstCombineIRInserterEE10CreateCastENS_11Instruction7CastOpsEPNS_5ValueEPNS_4TypeERKNS_5TwineE
__ZN4llvm12InstCombiner8visitMulERNS_14BinaryOperatorE
__ZN4llvm15SimplifyMulInstEPNS_5ValueES1_PKNS_10TargetDataEPKNS_13DominatorTreeE
__ZN4llvm13SimplifyBinOpEjPNS_5ValueES1_PKNS_10TargetDataEPKNS_13DominatorTreeE
__ZN4llvm12InstCombiner10visitFPExtERNS_8CastInstE
__ZN4llvm12InstCombiner13visitFCmpInstERNS_8FCmpInstE
__ZN4llvm16SimplifyFCmpInstEjPNS_5ValueES1_PKNS_10TargetDataEPKNS_13DominatorTreeE
__ZN4llvm12PatternMatch10fneg_matchINS0_7bind_tyINS_5ValueEEEE5matchIS3_EEbPT_
__ZN4llvm12InstCombiner17transformZExtICmpEPNS_8ICmpInstERNS_11InstructionEb
__ZN4llvm12InstCombiner10MatchBSwapERNS_14BinaryOperatorE
__ZL17CollectBSwapPartsPN4llvm5ValueEijRNS_11SmallVectorIS1_Lj8EEE
__ZN4llvm12InstCombiner20FoldPHIArgGEPIntoPHIERNS_7PHINodeE
__ZN4llvm12InstCombiner13visitPtrToIntERNS_12PtrToIntInstE
__ZN4llvm12InstCombiner25OptimizePointerDifferenceEPNS_5ValueES2_PNS_4TypeE
__ZN4llvm12InstCombiner9visitSDivERNS_14BinaryOperatorE
__ZN4llvm16SimplifySDivInstEPNS_5ValueES1_PKNS_10TargetDataEPKNS_13DominatorTreeE
__ZN4llvm12InstCombiner20commonIDivTransformsERNS_14BinaryOperatorE
__ZL25simplifyValueKnownNonZeroPN4llvm5ValueERNS_12InstCombinerE
__ZN4llvm12InstCombiner9visitSRemERNS_14BinaryOperatorE
__ZN4llvm16SimplifySRemInstEPNS_5ValueES1_PKNS_10TargetDataEPKNS_13DominatorTreeE
__ZN4llvm12InstCombiner20commonIRemTransformsERNS_14BinaryOperatorE
__ZN4llvm12InstCombiner8visitXorERNS_14BinaryOperatorE
__ZN4llvm15SimplifyXorInstEPNS_5ValueES1_PKNS_10TargetDataEPKNS_13DominatorTreeE
__ZN4llvm14BinaryOperator14getNotArgumentEPNS_5ValueE
__ZN4llvm7CmpInst6CreateENS_11Instruction8OtherOpsEtPNS_5ValueES4_RKNS_5TwineEPS1_
__ZN4llvm12InstCombiner9visitFAddERNS_14BinaryOperatorE
__ZNK4llvm12InstCombiner15dyn_castFNegValEPNS_5ValueE
__ZN4llvm12InstCombiner9visitFMulERNS_14BinaryOperatorE
__ZNK4llvm10ConstantFP14isExactlyValueERKNS_7APFloatE
__ZN4llvm12InstCombiner9visitFSubERNS_14BinaryOperatorE
__ZN4llvm12PatternMatch15CastClass_matchINS0_14BinaryOp_matchINS0_7bind_tyINS_5ValueEEENS3_INS_11ConstantIntEEELj24EEELj34EE5matchIS4_EEbPT_
__ZN4llvm9IRBuilderILb1ENS_12TargetFolderENS_21InstCombineIRInserterEE9CreateAndEPNS_5ValueES5_RKNS_5TwineE
__ZN4llvm12InstCombiner9visitURemERNS_14BinaryOperatorE
__ZN4llvm16SimplifyURemInstEPNS_5ValueES1_PKNS_10TargetDataEPKNS_13DominatorTreeE
__ZN4llvm12PatternMatch11api_pred_tyINS0_9is_power2EE5matchINS_5ValueEEEbPT_
__ZN4llvm12InstCombiner9visitUDivERNS_14BinaryOperatorE
__ZN4llvm16SimplifyUDivInstEPNS_5ValueES1_PKNS_10TargetDataEPKNS_13DominatorTreeE
__ZN4llvm12InstCombiner28FoldCmpLoadFromIndexedGlobalEPNS_17GetElementPtrInstEPNS_14GlobalVariableERNS_7CmpInstEPNS_11ConstantIntE
__ZN4llvm12ConstantExpr15getExtractValueEPNS_8ConstantENS_8ArrayRefIjEE
__ZN4llvm16ExtractValueInst14getIndexedTypeEPNS_4TypeENS_8ArrayRefIjEE
__ZN4llvm13CompositeType14getTypeAtIndexEj
__ZN4llvm35ConstantFoldExtractValueInstructionEPNS_8ConstantENS_8ArrayRefIjEE
__ZN12_GLOBAL__N_114SimplifyCFGOpt31GetValueEqualityComparisonCasesEPN4llvm14TerminatorInstERSt6vectorISt4pairIPNS1_11ConstantIntEPNS1_10BasicBlockEESaISA_EE
__ZNSt6vectorISt4pairIPN4llvm11ConstantIntEPNS1_10BasicBlockEESaIS6_EE13_M_insert_auxEN9__gnu_cxx17__normal_iteratorIPS6_S8_EERKS6_
__ZNSt3setIPN4llvm11ConstantIntEN12_GLOBAL__N_119ConstantIntOrderingESaIS2_EE6insertERKS2_
__ZNSt8_Rb_treeIPN4llvm11ConstantIntES2_St9_IdentityIS2_EN12_GLOBAL__N_119ConstantIntOrderingESaIS2_EE8_M_eraseEPSt13_Rb_tree_nodeIS2_E
__ZN4llvm9IRBuilderILb1ENS_14ConstantFolderENS_24IRBuilderDefaultInserterILb1EEEE12CreateSwitchEPNS_5ValueEPNS_10BasicBlockEj
__ZNK4llvm5Value18isUsedInBasicBlockEPKNS_10BasicBlockE
__ZN4llvm23FoldSingleEntryPHINodesEPNS_10BasicBlockEPNS_4PassE
__ZN4llvm9IRBuilderILb1ENS_14ConstantFolderENS_24IRBuilderDefaultInserterILb1EEEE9CreateNotEPNS_5ValueERKNS_5TwineE
__ZN4llvm12InstCombiner23PromoteCastOfAllocationERNS_11BitCastInstERNS_10AllocaInstE
__ZNSt6vectorISt4pairIPN4llvm11ConstantIntEPNS1_10BasicBlockEESaIS6_EE7reserveEm
__ZN4llvmL25array_pod_sort_comparatorISt4pairIPNS_11ConstantIntEPNS_10BasicBlockEEEEiPKvS8_
__ZN4llvm9IRBuilderILb1ENS_12TargetFolderENS_21InstCombineIRInserterEE11CreateBinOpENS_11Instruction9BinaryOpsEPNS_5ValueES7_RKNS_5TwineE
__ZN4llvm12InstCombiner11visitSIToFPERNS_8CastInstE
__ZN4llvm12InstCombiner8OptAndOpEPNS_11InstructionEPNS_11ConstantIntES4_RNS_14BinaryOperatorE
__ZN4llvm9TruncInstC1EPNS_5ValueEPNS_4TypeERKNS_5TwineEPNS_11InstructionE
__ZN4llvm14BinaryOperator12swapOperandsEv
__ZN4llvm12InstCombiner18ShouldOptimizeCastENS_11Instruction7CastOpsEPKNS_5ValueEPNS_4TypeE
__ZN4llvm9IRBuilderILb1ENS_12TargetFolderENS_21InstCombineIRInserterEE8CreateOrEPNS_5ValueES5_RKNS_5TwineE
__ZN4llvm12PatternMatch14BinaryOp_matchINS0_15CastClass_matchINS0_7bind_tyINS_5ValueEEELj43EEES6_Lj25EE5matchINS_11InstructionEEEbPT_
__ZNK4llvm14BinaryOperator10clone_implEv
__ZN4llvm12InstCombiner11visitFPToSIERNS_10FPToSIInstE
__ZN4llvm12InstCombiner11visitFPToUIERNS_10FPToUIInstE
__ZN4llvm12InstCombiner14SimplifyMemSetEPNS_10MemSetInstE
__ZL15GetShiftedValuePN4llvm5ValueEjbRNS_12InstCombinerE
__ZN4llvm9IRBuilderILb1ENS_8NoFolderENS_24IRBuilderDefaultInserterILb1EEEE9CreateNotEPNS_5ValueERKNS_5TwineE
__ZN4llvm9IRBuilderILb1ENS_8NoFolderENS_24IRBuilderDefaultInserterILb1EEEE8CreateOrEPNS_5ValueES6_RKNS_5TwineE
__ZN4llvm9StoreInstC1EPNS_5ValueES2_bjNS_14AtomicOrderingENS_20SynchronizationScopeEPNS_11InstructionE
__ZN4llvm9StoreInstC2EPNS_5ValueES2_bjNS_14AtomicOrderingENS_20SynchronizationScopeEPNS_11InstructionE
__ZN4llvm12InstCombiner13visitIntToPtrERNS_12IntToPtrInstE
__ZN4llvm12InstCombiner11FoldGEPICmpEPNS_11GEPOperatorEPNS_5ValueENS_7CmpInst9PredicateERNS_11InstructionE
__ZN4llvm12InstCombiner19SimplifyMemTransferEPNS_12MemIntrinsicE
__ZN4llvm9IRBuilderILb1ENS_12TargetFolderENS_21InstCombineIRInserterEE9CreateMulEPNS_5ValueES5_RKNS_5TwineEbb
__ZN4llvm9IRBuilderILb1ENS_12TargetFolderENS_21InstCombineIRInserterEE10CreateLShrEPNS_5ValueES5_RKNS_5TwineEb
__ZN4llvm9IRBuilderILb1ENS_12TargetFolderENS_21InstCombineIRInserterEE9CreateXorEPNS_5ValueES5_RKNS_5TwineE
__ZN4llvm12PatternMatch14BinaryOp_matchINS0_12OneUse_matchINS1_INS0_7bind_tyINS_5ValueEEES5_Lj21EEEEES5_Lj22EE5matchIS4_EEbPT_
__ZN4llvm9IRBuilderILb1ENS_12TargetFolderENS_21InstCombineIRInserterEE9CreateNotEPNS_5ValueERKNS_5TwineE
__ZN4llvm8SExtInstC1EPNS_5ValueEPNS_4TypeERKNS_5TwineEPNS_11InstructionE
__ZN4llvm12InstCombiner17transformSExtICmpEPNS_8ICmpInstERNS_11InstructionE
__ZN4llvm12ConstantExpr7getLShrEPNS_8ConstantES2_b
__ZL20MatchSelectFromAndOrPN4llvm5ValueES1_S1_S1_
__ZN4llvm12InstCombiner9visitFDivERNS_14BinaryOperatorE
__ZN4llvm16SimplifyFDivInstEPNS_5ValueES1_PKNS_10TargetDataEPKNS_13DominatorTreeE
__ZNK4llvm8CastInst14isLosslessCastEv
__ZN4llvm10ConstantFP15getNegativeZeroEPNS_4TypeE
__ZN4llvm12ConstantExpr7getFNegEPNS_8ConstantE
__ZN4llvm12ConstantExpr9getFPToSIEPNS_8ConstantEPNS_4TypeE
__ZN4llvm12ConstantExpr9getSIToFPEPNS_8ConstantEPNS_4TypeE
__ZNK4llvm7APFloat15getExactInverseEPS0_
__ZN4llvm12InstCombiner14FoldSelectOpOpERNS_10SelectInstEPNS_11InstructionES4_
__ZN4llvm9IRBuilderILb1ENS_12TargetFolderENS_21InstCombineIRInserterEE12CreateSelectEPNS_5ValueES5_S5_RKNS_5TwineE
__ZN4llvm12PatternMatch9neg_matchINS0_7bind_tyINS_5ValueEEEE5matchIS3_EEbPT_
__ZNK4llvm8FCmpInst10clone_implEv
__ZN4llvm8FCmpInstD0Ev
__ZN4llvm12InstCombiner12visitFPTruncERNS_11FPTruncInstE
__ZL10isSelect01PN4llvm8ConstantES1_
__ZL19getTypeOfMaskedICmpPN4llvm5ValueES1_S1_NS_7CmpInst9PredicateE
__ZN4llvm12PatternMatch14BinaryOp_matchINS0_12BinOp2_matchINS0_7bind_tyINS_5ValueEEES5_Lj22ELj23EEENS3_INS_11ConstantIntEEELj24EE5matchIS4_EEbPT_
__ZL12getICmpValuebjPN4llvm5ValueES1_PNS_9IRBuilderILb1ENS_12TargetFolderENS_21InstCombineIRInserterEEE
__ZN4llvm9IRBuilderILb1ENS_12TargetFolderENS_21InstCombineIRInserterEE10CreateURemEPNS_5ValueES5_RKNS_5TwineE
__ZN4llvm12InstCombiner18FoldLogicalPlusAndEPNS_5ValueES2_PNS_11ConstantIntEbRNS_11InstructionE
__ZL11FoldBitCastPN4llvm8ConstantEPNS_4TypeERKNS_10TargetDataE
__ZL25DecomposeSimpleLinearExprPN4llvm5ValueERjRy
__ZN4llvm12InstCombiner22FoldPHIArgBinOpIntoPHIERNS_7PHINodeE
__ZN4llvm5Value16DoPHITranslationEPKNS_10BasicBlockES3_
__ZN4llvm15SmallVectorImplIN12_GLOBAL__N_114PHIUsageRecordEE9push_backERKS2_
__ZNK4llvm5APInt3sgtEy
__ZNK4llvm10AllocaInst14isStaticAllocaEv
__ZN4llvm12PatternMatch9not_matchINS0_7bind_tyINS_5ValueEEEE5matchINS_14BinaryOperatorEEEbPT_
__ZN4llvm9IRBuilderILb1ENS_12TargetFolderENS_21InstCombineIRInserterEE10CreateUDivEPNS_5ValueES5_RKNS_5TwineEb
__ZN4llvm12PatternMatch14BinaryOp_matchINS0_12BinOp2_matchINS0_7bind_tyINS_5ValueEEENS0_14specificval_tyELj22ELj23EEENS3_INS_11ConstantIntEEELj24EE5matchIS4_EEbPT_
__ZN4llvm8CastInst10isCastableEPNS_4TypeES2_
__ZN4llvm15SmallVectorImplINS_18AttributeWithIndexEE7reserveEj
__ZN4llvm9IRBuilderILb1ENS_12TargetFolderENS_21InstCombineIRInserterEE10CreateCallEPNS_5ValueENS_8ArrayRefIS5_EERKNS_5TwineE
__ZN4llvm14BinaryOperator14getNegArgumentEPNS_5ValueE
__ZN4llvm12InstCombiner14FoldICmpShrCstERNS_8ICmpInstEPNS_14BinaryOperatorEPNS_11ConstantIntE
__ZN4llvm9IRBuilderILb1ENS_14ConstantFolderENS_24IRBuilderDefaultInserterILb1EEEE13CreateIntCastEPNS_5ValueEPNS_4TypeEbRKNS_5TwineE
__ZN12_GLOBAL__N_128InstCombineFortifiedLibCalls11replaceCallEPN4llvm5ValueE
__ZNK4llvm17GetElementPtrInst10clone_implEv
__ZNSt6__copyILb0ESt26random_access_iterator_tagE4copyIPKN4llvm3UseEPS4_EET0_T_S9_S8_
__ZN4llvm11ConstantInt9getSignedEPNS_4TypeEx
__ZNK4llvm8CallInst10clone_implEv
__ZNK4llvm11BitCastInst10clone_implEv
__ZN4llvm5APInt12getOneBitSetEjj
__ZN4llvm12InstCombiner14FoldICmpDivCstERNS_8ICmpInstEPNS_14BinaryOperatorEPNS_11ConstantIntE
__ZL15AddWithOverflowRPN4llvm8ConstantES1_S1_b
__ZL14HasAddOverflowPN4llvm11ConstantIntES1_S1_b
__ZN4llvm9IRBuilderILb1ENS_14ConstantFolderENS_24IRBuilderDefaultInserterILb1EEEE9CreateRetEPNS_5ValueE
__ZN4llvm12InstCombiner11visitUIToFPERNS_8CastInstE
__ZN4llvm10UIToFPInstD0Ev
__ZN4llvm9IRBuilderILb1ENS_12TargetFolderENS_21InstCombineIRInserterEE9CreateNegEPNS_5ValueERKNS_5TwineEbb
__ZN4llvm9IRBuilderILb1ENS_12TargetFolderENS_21InstCombineIRInserterEE9CreateSubEPNS_5ValueES5_RKNS_5TwineEbb
__ZN4llvm8Constant15getIntegerValueEPNS_4TypeERKNS_5APIntE
__ZNK4llvm9StoreInst10clone_implEv
__ZN4llvm8DenseMapIPNS_7PHINodeENS_11SmallVectorIiLj4EEENS_12DenseMapInfoIS2_EENS5_IS4_EEE16FindAndConstructERKS2_
__ZN4llvm8DenseMapIPNS_7PHINodeENS_11SmallVectorIiLj4EEENS_12DenseMapInfoIS2_EENS5_IS4_EEE16InsertIntoBucketERKS2_RKS4_PSt4pairIS2_S4_E
__ZN4llvm8DenseMapIPNS_7PHINodeENS_11SmallVectorIiLj4EEENS_12DenseMapInfoIS2_EENS5_IS4_EEE4growEj
__ZN4llvm9IRBuilderILb1ENS_12TargetFolderENS_21InstCombineIRInserterEE10CreateAShrEPNS_5ValueES5_RKNS_5TwineEb
__ZN12_GLOBAL__N_116SimplifyLibCalls24inferPrototypeAttributesERN4llvm8FunctionE
__ZN12_GLOBAL__N_116SimplifyLibCalls15setDoesNotThrowERN4llvm8FunctionE
__ZN12_GLOBAL__N_116SimplifyLibCalls15setDoesNotAliasERN4llvm8FunctionEj
__ZThn32_N12_GLOBAL__N_118BasicAliasAnalysis17getModRefBehaviorEN4llvm17ImmutableCallSiteE
__ZN12_GLOBAL__N_118BasicAliasAnalysis17getModRefBehaviorEN4llvm17ImmutableCallSiteE
__ZN4llvm13AliasAnalysis17getModRefBehaviorENS_17ImmutableCallSiteE
__ZThn32_N12_GLOBAL__N_122TypeBasedAliasAnalysis17getModRefBehaviorEN4llvm17ImmutableCallSiteE
__ZN12_GLOBAL__N_122TypeBasedAliasAnalysis17getModRefBehaviorEN4llvm17ImmutableCallSiteE
__ZThn32_N12_GLOBAL__N_14NoAA17getModRefBehaviorEN4llvm17ImmutableCallSiteE
__ZN4llvm13LazyValueInfo11getConstantEPNS_5ValueEPNS_10BasicBlockE
__ZL8getCacheRPv
__ZNSt11_Deque_baseISt4pairIPN4llvm10BasicBlockEPNS1_5ValueEESaIS6_EE17_M_initialize_mapEm
__ZNSt5dequeISt4pairIPN4llvm10BasicBlockEPNS1_5ValueEESaIS6_EE9push_backERKS6_
__ZN12_GLOBAL__N_118LazyValueInfoCache5solveEv
__ZN4llvm8DenseMapIN12_GLOBAL__N_114LVIValueHandleESt3mapINS_11AssertingVHINS_10BasicBlockEEENS1_13LVILatticeValESt4lessIS6_ESaISt4pairIKS6_S7_EEENS_12DenseMapInfoIS2_EENSF_ISE_EEE4growEj
__ZN4llvm8DenseMapIN12_GLOBAL__N_114LVIValueHandleESt3mapINS_11AssertingVHINS_10BasicBlockEEENS1_13LVILatticeValESt4lessIS6_ESaISt4pairIKS6_S7_EEENS_12DenseMapInfoIS2_EENSF_ISE_EEEixERKS2_
__ZNK4llvm8DenseMapIN12_GLOBAL__N_114LVIValueHandleESt3mapINS_11AssertingVHINS_10BasicBlockEEENS1_13LVILatticeValESt4lessIS6_ESaISt4pairIKS6_S7_EEENS_12DenseMapInfoIS2_EENSF_ISE_EEE15LookupBucketForERKS2_RPSA_IS2_SE_E
__ZNSt8_Rb_treeIN4llvm11AssertingVHINS0_10BasicBlockEEESt4pairIKS3_N12_GLOBAL__N_113LVILatticeValEESt10_Select1stIS8_ESt4lessIS3_ESaIS8_EE14_M_create_nodeERKS8_
__ZNSt8_Rb_treeIN4llvm11AssertingVHINS0_10BasicBlockEEESt4pairIKS3_N12_GLOBAL__N_113LVILatticeValEESt10_Select1stIS8_ESt4lessIS3_ESaIS8_EE16_M_insert_uniqueERKS8_
__ZNSt8_Rb_treeIN4llvm11AssertingVHINS0_10BasicBlockEEESt4pairIKS3_N12_GLOBAL__N_113LVILatticeValEESt10_Select1stIS8_ESt4lessIS3_ESaIS8_EE7_M_copyEPKSt13_Rb_tree_nodeIS8_EPSG_
__ZNSt8_Rb_treeIN4llvm11AssertingVHINS0_10BasicBlockEEESt4pairIKS3_N12_GLOBAL__N_113LVILatticeValEESt10_Select1stIS8_ESt4lessIS3_ESaIS8_EE8_M_eraseEPSt13_Rb_tree_nodeIS8_E
__ZNSt3mapIN4llvm11AssertingVHINS0_10BasicBlockEEEN12_GLOBAL__N_113LVILatticeValESt4lessIS3_ESaISt4pairIKS3_S5_EEEixERS9_
__ZN4llvm13ConstantRangeC1Ejb
__ZN4llvm13ConstantRangeC2Ejb
__ZN4llvm8DenseMapISt4pairINS_11AssertingVHINS_10BasicBlockEEEPNS_5ValueEEcNS_12DenseMapInfoIS7_EENS8_IcEEE6insertERKS1_IS7_cE
__ZN4llvm8DenseMapISt4pairINS_11AssertingVHINS_10BasicBlockEEEPNS_5ValueEEcNS_12DenseMapInfoIS7_EENS8_IcEEE16InsertIntoBucketERKS7_RKcPS1_IS7_cE
__ZN4llvm8DenseMapISt4pairINS_11AssertingVHINS_10BasicBlockEEEPNS_5ValueEEcNS_12DenseMapInfoIS7_EENS8_IcEEE4growEj
__ZN12_GLOBAL__N_118LazyValueInfoCache13getBlockValueEPN4llvm5ValueEPNS1_10BasicBlockE
__ZN12_GLOBAL__N_114LVIValueHandleD1Ev
__ZN12_GLOBAL__N_111Reassociate21ReassociateExpressionEPN4llvm14BinaryOperatorE
__ZN12_GLOBAL__N_111Reassociate17LinearizeExprTreeEPN4llvm14BinaryOperatorERNS1_15SmallVectorImplINS_10ValueEntryEEE
__ZN12_GLOBAL__N_111Reassociate7getRankEPN4llvm5ValueE
__ZSt22__stable_sort_adaptiveIPN12_GLOBAL__N_110ValueEntryES2_lEvT_S3_T0_T1_
__ZSt24__merge_sort_with_bufferIPN12_GLOBAL__N_110ValueEntryES2_EvT_S3_T0_
__ZSt16__merge_adaptiveIPN12_GLOBAL__N_110ValueEntryElS2_EvT_S3_S3_T0_S4_T1_S4_
__ZN12_GLOBAL__N_111Reassociate18OptimizeExpressionEPN4llvm14BinaryOperatorERNS1_15SmallVectorImplINS_10ValueEntryEEE
__ZN12_GLOBAL__N_111Reassociate15RewriteExprTreeEPN4llvm14BinaryOperatorERNS1_15SmallVectorImplINS_10ValueEntryEEEj
__ZN12_GLOBAL__N_111Reassociate18RemoveDeadBinaryOpEPN4llvm5ValueE
__ZN12_GLOBAL__N_110ValueTable13lookup_or_addEPN4llvm5ValueE
__ZN12_GLOBAL__N_110ValueTable17create_expressionEPN4llvm11InstructionE
__ZN4llvm8DenseMapIPNS_5ValueEjNS_12DenseMapInfoIS2_EENS3_IjEEE16InsertIntoBucketERKS2_RKjPSt4pairIS2_jE
__ZN4llvm8DenseMapIPNS_5ValueEjNS_12DenseMapInfoIS2_EENS3_IjEEE4growEj
__ZN4llvm15SmallVectorImplIjEaSERKS1_
__ZN4llvm8DenseMapIN12_GLOBAL__N_110ExpressionEjNS_12DenseMapInfoIS2_EENS3_IjEEEixERKS2_
__ZNK4llvm8DenseMapIN12_GLOBAL__N_110ExpressionEjNS_12DenseMapInfoIS2_EENS3_IjEEE15LookupBucketForERKS2_RPSt4pairIS2_jE
__ZN4llvm8DenseMapIN12_GLOBAL__N_110ExpressionEjNS_12DenseMapInfoIS2_EENS3_IjEEE4growEj
__ZN12_GLOBAL__N_13GVN10findLeaderEPN4llvm10BasicBlockEj
__ZN4llvm8DenseMapIjN12_GLOBAL__N_13GVN16LeaderTableEntryENS_12DenseMapInfoIjEENS4_IS3_EEEixERKj
__ZN4llvm8DenseMapIjN12_GLOBAL__N_13GVN16LeaderTableEntryENS_12DenseMapInfoIjEENS4_IS3_EEE4growEj
__ZN4llvm24MemoryDependenceAnalysis13getDependencyEPNS_11InstructionE
__ZN4llvm8DenseMapIPNS_11InstructionENS_12MemDepResultENS_12DenseMapInfoIS2_EENS4_IS3_EEE16InsertIntoBucketERKS2_RKS3_PSt4pairIS2_S3_E
__ZN4llvm8DenseMapIPNS_11InstructionENS_12MemDepResultENS_12DenseMapInfoIS2_EENS4_IS3_EEE4growEj
__ZL11GetLocationPKN4llvm11InstructionERNS_13AliasAnalysis8LocationEPS3_
__ZN4llvm13AliasAnalysis11getLocationEPKNS_8LoadInstE
__ZN4llvm24MemoryDependenceAnalysis24getPointerDependencyFromERKNS_13AliasAnalysis8LocationEbNS_14ilist_iteratorINS_11InstructionEEEPNS_10BasicBlockE
__ZN4llvm13AliasAnalysis13getModRefInfoEPKNS_11InstructionERKNS0_8LocationE
__ZN4llvm13AliasAnalysis13getModRefInfoEPKNS_9StoreInstERKNS0_8LocationE
__ZThn32_N12_GLOBAL__N_118BasicAliasAnalysis5aliasERKN4llvm13AliasAnalysis8LocationES5_
__ZN12_GLOBAL__N_118BasicAliasAnalysis10aliasCheckEPKN4llvm5ValueEyPKNS1_6MDNodeES4_yS7_
__ZL13getObjectSizePKN4llvm5ValueERKNS_10TargetDataE
__ZN4llvm17extractMallocCallEPKNS_5ValueE
__ZN4llvm8DenseMapISt4pairINS_13AliasAnalysis8LocationES3_ENS2_11AliasResultENS_12DenseMapInfoIS4_EENS6_IS5_EEE6insertERKS1_IS4_S5_E
__ZNK4llvm8DenseMapISt4pairINS_13AliasAnalysis8LocationES3_ENS2_11AliasResultENS_12DenseMapInfoIS4_EENS6_IS5_EEE15LookupBucketForERKS4_RPS1_IS4_S5_E
__ZN4llvm8DenseMapISt4pairINS_13AliasAnalysis8LocationES3_ENS2_11AliasResultENS_12DenseMapInfoIS4_EENS6_IS5_EEE16InsertIntoBucketERKS4_RKS5_PS1_IS4_S5_E
__ZL22DecomposeGEPExpressionPKN4llvm5ValueERxRNS_15SmallVectorImplIN12_GLOBAL__N_116VariableGEPIndexEEEPKNS_10TargetDataE
__ZN4llvm8DenseMapISt4pairINS_13AliasAnalysis8LocationES3_ENS2_11AliasResultENS_12DenseMapInfoIS4_EENS6_IS5_EEE5clearEv
__ZThn32_N12_GLOBAL__N_118BasicAliasAnalysis13getModRefInfoEN4llvm17ImmutableCallSiteERKNS1_13AliasAnalysis8LocationE
__ZN12_GLOBAL__N_118BasicAliasAnalysis13getModRefInfoEN4llvm17ImmutableCallSiteERKNS1_13AliasAnalysis8LocationE
__ZL24isNonEscapingLocalObjectPKN4llvm5ValueE
__ZN4llvm13isNoAliasCallEPKNS_5ValueE
__ZNK4llvm8Argument14hasNoAliasAttrEv
__ZN4llvm13AliasAnalysis13getModRefInfoENS_17ImmutableCallSiteERKNS0_8LocationE
__ZThn32_N12_GLOBAL__N_122TypeBasedAliasAnalysis13getModRefInfoEN4llvm17ImmutableCallSiteERKNS1_13AliasAnalysis8LocationE
__ZN12_GLOBAL__N_122TypeBasedAliasAnalysis13getModRefInfoEN4llvm17ImmutableCallSiteERKNS1_13AliasAnalysis8LocationE
__ZThn32_N12_GLOBAL__N_14NoAA13getModRefInfoEN4llvm17ImmutableCallSiteERKNS1_13AliasAnalysis8LocationE
__ZN4llvm8DenseMapIPNS_11InstructionENS_11SmallPtrSetIS2_Lj4EEENS_12DenseMapInfoIS2_EENS5_IS4_EEE16FindAndConstructERKS2_
__ZN4llvm8DenseMapIPNS_11InstructionENS_11SmallPtrSetIS2_Lj4EEENS_12DenseMapInfoIS2_EENS5_IS4_EEE16InsertIntoBucketERKS2_RKS4_PSt4pairIS2_S4_E
__ZN4llvm8DenseMapIPNS_11InstructionENS_11SmallPtrSetIS2_Lj4EEENS_12DenseMapInfoIS2_EENS5_IS4_EEE4growEj
__ZN4llvm15isBytewiseValueEPNS_5ValueE
__ZN4llvm13AliasAnalysis11getLocationEPKNS_9StoreInstE
__ZL14getLocForWritePN4llvm11InstructionERNS_13AliasAnalysisE
__ZL11isRemovablePN4llvm11InstructionE
__ZN12_GLOBAL__N_113CGPassManager16RefreshCallGraphERN4llvm12CallGraphSCCERNS1_9CallGraphEb
__ZN4llvm8DenseMapIPNS_5ValueEPNS_13CallGraphNodeENS_12DenseMapInfoIS2_EENS5_IS4_EEE6insertERKSt4pairIS2_S4_E
__ZN4llvm8DenseMapIPNS_5ValueEPNS_13CallGraphNodeENS_12DenseMapInfoIS2_EENS5_IS4_EEE16InsertIntoBucketERKS2_RKS4_PSt4pairIS2_S4_E
__ZN4llvm8DenseMapIPNS_5ValueEPNS_13CallGraphNodeENS_12DenseMapInfoIS2_EENS5_IS4_EEE4growEj
__ZN12_GLOBAL__N_113SimpleInliner13getInlineCostEN4llvm8CallSiteE
__ZNK4llvm8DenseMapINS_18ValueMapCallbackVHIPKNS_8FunctionENS_18InlineCostAnalyzer12FunctionInfoENS_14ValueMapConfigIS4_EENS_12DenseMapInfoIS6_EEEES6_NS9_ISB_EESA_E15LookupBucketForERKSB_RPSt4pairISB_S6_E
__ZN4llvm8DenseMapIPKNS_10BasicBlockEjNS_12DenseMapInfoIS3_EENS4_IjEEE8CopyFromERKS7_
__ZNSt6vectorIN4llvm18InlineCostAnalyzer7ArgInfoESaIS2_EEC2ERKS4_
__ZN4llvm18InlineCostAnalyzer12FunctionInfo15analyzeFunctionEPNS_8FunctionEPKNS_10TargetDataE
__ZN4llvm11CodeMetrics17analyzeBasicBlockEPKNS_10BasicBlockEPKNS_10TargetDataE
__ZN4llvm11callIsSmallEPKNS_8FunctionE
__ZNSt6vectorIN4llvm18InlineCostAnalyzer7ArgInfoESaIS2_EE7reserveEm
__ZN4llvm11CodeMetrics29CountCodeReductionForConstantEPNS_5ValueE
__ZN4llvm11CodeMetrics27CountCodeReductionForAllocaEPNS_5ValueE
__ZN4llvm18InlineCostAnalyzer13getInlineSizeENS_8CallSiteEPNS_8FunctionE
__ZN4llvm18InlineCostAnalyzer16getInlineBonusesENS_8CallSiteEPNS_8FunctionE
__ZNK4llvm7Inliner18getInlineThresholdENS_8CallSiteE
__ZN12_GLOBAL__N_113SimpleInliner20getInlineFudgeFactorEN4llvm8CallSiteE
__ZN4llvm18InlineCostAnalyzer20getInlineFudgeFactorENS_8CallSiteE
__ZN4llvm14InlineFunctionENS_8CallSiteERNS_18InlineFunctionInfoE
__ZN4llvm8ValueMapIPKNS_5ValueENS_10TrackingVHIS1_EENS_14ValueMapConfigIS3_EENS_12DenseMapInfoIS5_EEEixERKS3_
__ZNK4llvm8DenseMapINS_18ValueMapCallbackVHIPKNS_5ValueENS_10TrackingVHIS2_EENS_14ValueMapConfigIS4_EENS_12DenseMapInfoIS6_EEEES6_NS9_ISB_EESA_E15LookupBucketForERKSB_RPSt4pairISB_S6_E
__ZN4llvm25CloneAndPruneFunctionIntoEPNS_8FunctionEPKS0_RNS_8ValueMapIPKNS_5ValueENS_10TrackingVHIS5_EENS_14ValueMapConfigIS7_EENS_12DenseMapInfoIS9_EEEEbRNS_15SmallVectorImplIPNS_10ReturnInstEEEPKcPNS_14ClonedCodeInfoEPKNS_10TargetDataEPNS_11InstructionE
__ZN4llvm8MapValueEPKNS_5ValueERNS_8ValueMapIS2_NS_10TrackingVHIS0_EENS_14ValueMapConfigIS2_EENS_12DenseMapInfoIS5_EEEENS_10RemapFlagsEPNS_20ValueMapTypeRemapperE
__ZNK4llvm10ReturnInst10clone_implEv
__ZN4llvm10ReturnInstC2ERKS0_
__ZN4llvm16RemapInstructionEPNS_11InstructionERNS_8ValueMapIPKNS_5ValueENS_10TrackingVHIS3_EENS_14ValueMapConfigIS5_EENS_12DenseMapInfoIS7_EEEENS_10RemapFlagsEPNS_20ValueMapTypeRemapperE
__ZN4llvm13CallGraphNode17removeCallEdgeForENS_8CallSiteE
__ZN4llvm8DenseMapINS_18ValueMapCallbackVHIPKNS_5ValueENS_10TrackingVHIS2_EENS_14ValueMapConfigIS4_EENS_12DenseMapInfoIS6_EEEES6_NS9_ISB_EESA_E16InsertIntoBucketERKSB_RKS6_PSt4pairISB_S6_E
__ZN4llvm8DenseMapINS_18ValueMapCallbackVHIPKNS_5ValueENS_10TrackingVHIS2_EENS_14ValueMapConfigIS4_EENS_12DenseMapInfoIS6_EEEES6_NS9_ISB_EESA_E4findERKSB_
__ZN4llvm8DenseMapINS_18ValueMapCallbackVHIPKNS_5ValueENS_10TrackingVHIS2_EENS_14ValueMapConfigIS4_EENS_12DenseMapInfoIS6_EEEES6_NS9_ISB_EESA_E4growEj
__ZN4llvm8DenseMapINS_18ValueMapCallbackVHIPKNS_5ValueENS_10TrackingVHIS2_EENS_14ValueMapConfigIS4_EENS_12DenseMapInfoIS6_EEEES6_NS9_ISB_EESA_E4initEj
__ZN4llvm8DenseMapINS_18ValueMapCallbackVHIPKNS_5ValueENS_10TrackingVHIS2_EENS_14ValueMapConfigIS4_EENS_12DenseMapInfoIS6_EEEES6_NS9_ISB_EESA_E5beginEv
__ZN4llvm8DenseMapINS_18ValueMapCallbackVHIPKNS_5ValueENS_10TrackingVHIS2_EENS_14ValueMapConfigIS4_EENS_12DenseMapInfoIS6_EEEES6_NS9_ISB_EESA_E5eraseENS_16DenseMapIteratorISB_S6_SC_SA_Lb0EEE
__ZN4llvm8DenseMapINS_18ValueMapCallbackVHIPKNS_5ValueENS_10TrackingVHIS2_EENS_14ValueMapConfigIS4_EENS_12DenseMapInfoIS6_EEEES6_NS9_ISB_EESA_E5eraseERKSB_
__ZN4llvm8DenseMapINS_18ValueMapCallbackVHIPKNS_5ValueENS_10TrackingVHIS2_EENS_14ValueMapConfigIS4_EENS_12DenseMapInfoIS6_EEEES6_NS9_ISB_EESA_E6insertERKSt4pairISB_S6_E
__ZN4llvm8DenseMapINS_18ValueMapCallbackVHIPKNS_5ValueENS_10TrackingVHIS2_EENS_14ValueMapConfigIS4_EENS_12DenseMapInfoIS6_EEEES6_NS9_ISB_EESA_ED2Ev
__ZN4llvm18ValueMapCallbackVHIPKNS_5ValueENS_10TrackingVHIS1_EENS_14ValueMapConfigIS3_EENS_12DenseMapInfoIS5_EEED1Ev
__ZN12_GLOBAL__N_113SimpleInliner18growCachedCostInfoEPN4llvm8FunctionES3_
__ZN4llvm18InlineCostAnalyzer18growCachedCostInfoEPNS_8FunctionES2_
__ZN4llvm18InlineCostAnalyzer19resetCachedCostInfoEPNS_8FunctionE
__ZNSt6vectorIN4llvm18InlineCostAnalyzer7ArgInfoESaIS2_EEaSERKS4_
__ZN4llvm15SmallVectorImplISt4pairIPKNS_10BasicBlockENS_12SuccIteratorIPKNS_14TerminatorInstES3_EEEE9push_backERKSA_
__ZN12_GLOBAL__N_113JumpThreading22ProcessThreadableEdgesEPN4llvm5ValueEPNS1_10BasicBlockENS_18ConstantPreferenceE
__ZN12_GLOBAL__N_113JumpThreading31ComputeValueKnownInPredecessorsEPN4llvm5ValueEPNS1_10BasicBlockERNS1_15SmallVectorImplISt4pairIPNS1_8ConstantES5_EEENS_18ConstantPreferenceE
__ZN4llvm8DenseMapISt4pairIPNS_5ValueEPNS_10BasicBlockEEcNS_12DenseMapInfoIS6_EENS7_IcEEE6insertERKS1_IS6_cE
__ZNK4llvm8DenseMapISt4pairIPNS_5ValueEPNS_10BasicBlockEEcNS_12DenseMapInfoIS6_EENS7_IcEEE15LookupBucketForERKS6_RPS1_IS6_cE
__ZN4llvm8DenseMapISt4pairIPNS_5ValueEPNS_10BasicBlockEEcNS_12DenseMapInfoIS6_EENS7_IcEEE16InsertIntoBucketERKS6_RKcPS1_IS6_cE
__ZN4llvm8DenseMapISt4pairIPNS_5ValueEPNS_10BasicBlockEEcNS_12DenseMapInfoIS6_EENS7_IcEEE4growEj
__ZN4llvm18isIdentifiedObjectEPKNS_5ValueE
__ZL26isOnlyReachableViaThisEdgePN4llvm10BasicBlockES1_PNS_13DominatorTreeE
__ZN12_GLOBAL__N_13GVN17propagateEqualityEPN4llvm5ValueES3_PNS1_10BasicBlockE
__ZN4llvm24MemoryDependenceAnalysis28getNonLocalPointerDependencyERKNS_13AliasAnalysis8LocationEbPNS_10BasicBlockERNS_15SmallVectorImplINS_17NonLocalDepResultEEE
__ZN4llvm24MemoryDependenceAnalysis27getNonLocalPointerDepFromBBERKNS_12PHITransAddrERKNS_13AliasAnalysis8LocationEbPNS_10BasicBlockERNS_15SmallVectorImplINS_17NonLocalDepResultEEERNS_8DenseMapIS9_PNS_5ValueENS_12DenseMapInfoIS9_EENSH_ISG_EEEEb
__ZN4llvm17PredIteratorCache8GetPredsEPNS_10BasicBlockE
__ZN4llvm8DenseMapIPNS_10BasicBlockEPS2_NS_12DenseMapInfoIS2_EENS4_IS3_EEE16InsertIntoBucketERKS2_RKS3_PSt4pairIS2_S3_E
__ZN4llvm8DenseMapIPNS_10BasicBlockEPS2_NS_12DenseMapInfoIS2_EENS4_IS3_EEE4growEj
__ZN4llvm8DenseMapIPNS_10BasicBlockEPNS_5ValueENS_12DenseMapInfoIS2_EENS5_IS4_EEE6insertERKSt4pairIS2_S4_E
__ZN4llvm8DenseMapIPNS_10BasicBlockEPNS_5ValueENS_12DenseMapInfoIS2_EENS5_IS4_EEE16InsertIntoBucketERKS2_RKS4_PSt4pairIS2_S4_E
__ZN4llvm8DenseMapIPNS_10BasicBlockEPNS_5ValueENS_12DenseMapInfoIS2_EENS5_IS4_EEE4growEj
__ZN4llvm24MemoryDependenceAnalysis23GetNonLocalInfoForBlockERKNS_13AliasAnalysis8LocationEbPNS_10BasicBlockEPSt6vectorINS_16NonLocalDepEntryESaIS8_EEj
__ZN4llvm32GetPointerBaseWithConstantOffsetEPNS_5ValueERxRKNS_10TargetDataE
__ZN4llvm24MemoryDependenceAnalysis31getLoadLoadClobberFullWidthSizeEPKNS_5ValueExjPKNS_8LoadInstERKNS_10TargetDataE
__ZNSt6vectorIN4llvm16NonLocalDepEntryESaIS1_EE13_M_insert_auxEN9__gnu_cxx17__normal_iteratorIPS1_S3_EERKS1_
__ZN4llvm8DenseMapIPNS_11InstructionENS_11SmallPtrSetINS_14PointerIntPairIPKNS_5ValueELj1EbNS_21PointerLikeTypeTraitsIS7_EEEELj4EEENS_12DenseMapInfoIS2_EENSC_ISB_EEE16FindAndConstructERKS2_
__ZN4llvm8DenseMapIPNS_11InstructionENS_11SmallPtrSetINS_14PointerIntPairIPKNS_5ValueELj1EbNS_21PointerLikeTypeTraitsIS7_EEEELj4EEENS_12DenseMapInfoIS2_EENSC_ISB_EEE16InsertIntoBucketERKS2_RKSB_PSt4pairIS2_SB_E
__ZN4llvm8DenseMapIPNS_11InstructionENS_11SmallPtrSetINS_14PointerIntPairIPKNS_5ValueELj1EbNS_21PointerLikeTypeTraitsIS7_EEEELj4EEENS_12DenseMapInfoIS2_EENSC_ISB_EEE16shrink_and_clearEv
__ZN4llvm8DenseMapIPNS_11InstructionENS_11SmallPtrSetINS_14PointerIntPairIPKNS_5ValueELj1EbNS_21PointerLikeTypeTraitsIS7_EEEELj4EEENS_12DenseMapInfoIS2_EENSC_ISB_EEE4growEj
__ZN4llvm15SmallVectorImplINS_17NonLocalDepResultEE9push_backERKS1_
__ZL24SortNonLocalDepInfoCacheRSt6vectorIN4llvm16NonLocalDepEntryESaIS1_EEj
__ZN4llvm15SmallVectorImplIN12_GLOBAL__N_121AvailableValueInBlockEE9push_backERKS2_
__ZL22ConstructSSAForLoadSetPN4llvm8LoadInstERNS_15SmallVectorImplIN12_GLOBAL__N_121AvailableValueInBlockEEERNS3_3GVNE
__ZN4llvm17DominatorTreeBaseINS_10BasicBlockEE17properlyDominatesEPKS1_S4_
__ZNK12_GLOBAL__N_121AvailableValueInBlock24MaterializeAdjustedValueEPN4llvm4TypeERNS_3GVNE
__ZN4llvm24MemoryDependenceAnalysis27invalidateCachedPointerInfoEPNS_5ValueE
__ZN4llvm24MemoryDependenceAnalysis39RemoveCachedNonLocalPointerDependenciesENS_14PointerIntPairIPKNS_5ValueELj1EbNS_21PointerLikeTypeTraitsIS4_EEEE
__ZN4llvm24MemoryDependenceAnalysis17removeInstructionEPNS_11InstructionE
__ZN4llvm13AliasAnalysis11deleteValueEPNS_5ValueE
__ZThn32_N12_GLOBAL__N_14NoAA11deleteValueEPN4llvm5ValueE
__ZN4llvm13AliasAnalysis5aliasERKNS0_8LocationES3_
__ZThn32_N12_GLOBAL__N_122TypeBasedAliasAnalysis5aliasERKN4llvm13AliasAnalysis8LocationES5_
__ZN12_GLOBAL__N_122TypeBasedAliasAnalysis5aliasERKN4llvm13AliasAnalysis8LocationES5_
__ZThn32_N12_GLOBAL__N_14NoAA5aliasERKN4llvm13AliasAnalysis8LocationES5_
__ZNK4llvm12PHITransAddr28IsPotentiallyPHITranslatableEv
__ZN4llvm15SmallVectorImplIPNS_11InstructionEEaSERKS3_
__ZN4llvm12PHITransAddr17PHITranslateValueEPNS_10BasicBlockES2_PKNS_13DominatorTreeE
__ZN4llvm12PHITransAddr19PHITranslateSubExprEPNS_5ValueEPNS_10BasicBlockES4_PKNS_13DominatorTreeE
__ZNK4llvm10BasicBlock12isLandingPadEv
__ZN4llvm8DenseMapIPNS_10BasicBlockEPNS_5ValueENS_12DenseMapInfoIS2_EENS5_IS4_EEE5clearEv
__ZN12_GLOBAL__N_19MemCpyOpt20tryMergingIntoMemsetEPN4llvm11InstructionEPNS1_5ValueES5_
__ZN4llvm18InlineCostAnalyzer21CountBonusForConstantEPNS_5ValueEPNS_8ConstantE
__ZN4llvm12UniqueVectorIPNS_5ValueEE6insertERKS2_
__ZNSt8_Rb_treeIPN4llvm5ValueESt4pairIKS2_jESt10_Select1stIS5_ESt4lessIS2_ESaIS5_EE16_M_insert_uniqueESt17_Rb_tree_iteratorIS5_ERKS5_
__ZNSt8_Rb_treeIPN4llvm5ValueESt4pairIKS2_jESt10_Select1stIS5_ESt4lessIS2_ESaIS5_EE16_M_insert_uniqueERKS5_
__ZNSt8_Rb_treeIPN4llvm5ValueESt4pairIKS2_jESt10_Select1stIS5_ESt4lessIS2_ESaIS5_EE8_M_eraseEPSt13_Rb_tree_nodeIS5_E
__ZN4llvm10SSAUpdaterC1EPNS_15SmallVectorImplIPNS_7PHINodeEEE
__ZN4llvm10SSAUpdater10InitializeEPNS_4TypeENS_9StringRefE
__ZNK4llvm10SSAUpdater16HasValueForBlockEPNS_10BasicBlockE
__ZN4llvm10SSAUpdater17AddAvailableValueEPNS_10BasicBlockEPNS_5ValueE
__ZN4llvm10SSAUpdater23GetValueInMiddleOfBlockEPNS_10BasicBlockE
__ZN4llvm10SSAUpdater28GetValueAtEndOfBlockInternalEPNS_10BasicBlockE
__ZN4llvm14SSAUpdaterImplINS_10SSAUpdaterEE8GetValueEPNS_10BasicBlockE
__ZN4llvm14SSAUpdaterImplINS_10SSAUpdaterEE14BuildBlockListEPNS_10BasicBlockEPNS_15SmallVectorImplIPNS2_6BBInfoEEE
__ZN4llvm8DenseMapIPNS_10BasicBlockEPNS_14SSAUpdaterImplINS_10SSAUpdaterEE6BBInfoENS_12DenseMapInfoIS2_EENS8_IS7_EEE16InsertIntoBucketERKS2_RKS7_PSt4pairIS2_S7_E
__ZN4llvm8DenseMapIPNS_10BasicBlockEPNS_14SSAUpdaterImplINS_10SSAUpdaterEE6BBInfoENS_12DenseMapInfoIS2_EENS8_IS7_EEE4growEj
__ZN4llvm16SSAUpdaterTraitsINS_10SSAUpdaterEE21FindPredecessorBlocksEPNS_10BasicBlockEPNS_15SmallVectorImplIS4_EE
__ZN4llvm14SSAUpdaterImplINS_10SSAUpdaterEE14FindDominatorsEPNS_15SmallVectorImplIPNS2_6BBInfoEEES5_
__ZN4llvm14SSAUpdaterImplINS_10SSAUpdaterEE17FindAvailableValsEPNS_15SmallVectorImplIPNS2_6BBInfoEEE
__ZN4llvm13AliasAnalysis9copyValueEPNS_5ValueES2_
__ZThn32_N12_GLOBAL__N_14NoAA9copyValueEPN4llvm5ValueES3_
__ZN4llvm13AliasAnalysis14addEscapingUseERNS_3UseE
__ZThn32_N12_GLOBAL__N_14NoAA14addEscapingUseERN4llvm3UseE
__ZN4llvm10SSAUpdaterD1Ev
__ZN4llvm13LazyValueInfo17getConstantOnEdgeEPNS_5ValueEPNS_10BasicBlockES4_
__ZN12_GLOBAL__N_118LazyValueInfoCache12getEdgeValueEPN4llvm5ValueEPNS1_10BasicBlockES5_RNS_13LVILatticeValE
__ZN12_GLOBAL__N_118LazyValueInfoCache13hasBlockValueEPN4llvm5ValueEPNS1_10BasicBlockE
__ZN12_GLOBAL__N_113LVILatticeVal15markNotConstantEPN4llvm8ConstantE
__ZN12_GLOBAL__N_113LVILatticeVal3getEPN4llvm8ConstantE
__ZN12_GLOBAL__N_113LVILatticeVal17markConstantRangeEN4llvm13ConstantRangeE
__ZN12_GLOBAL__N_113LVILatticeVal7mergeInERKS0_
__ZN4llvm13LazyValueInfo10eraseBlockEPNS_10BasicBlockE
__ZN4llvm15SimplifyCmpInstEjPNS_5ValueES1_PKNS_10TargetDataEPKNS_13DominatorTreeE
__ZN4llvm13LazyValueInfo18getPredicateOnEdgeEjPNS_5ValueEPNS_8ConstantEPNS_10BasicBlockES6_
__ZL28getJumpThreadDuplicationCostPKN4llvm10BasicBlockE
__ZN4llvm13LazyValueInfo10threadEdgeEPNS_10BasicBlockES2_S2_
__ZN4llvm8DenseMapIPNS_11InstructionEPNS_5ValueENS_12DenseMapInfoIS2_EENS5_IS4_EEE16InsertIntoBucketERKS2_RKS4_PSt4pairIS2_S4_E
__ZN4llvm8DenseMapIPNS_11InstructionEPNS_5ValueENS_12DenseMapInfoIS2_EENS5_IS4_EEE4growEj
__ZL31AddPHINodeEntriesForMappedBlockPN4llvm10BasicBlockES1_S1_RNS_8DenseMapIPNS_11InstructionEPNS_5ValueENS_12DenseMapInfoIS4_EENS7_IS6_EEEE
__ZN4llvm10SSAUpdater10RewriteUseERNS_3UseE
__ZN4llvm14SSAUpdaterImplINS_10SSAUpdaterEE17CheckIfPHIMatchesEPNS_7PHINodeE
__ZN4llvm27SimplifyInstructionsInBlockEPNS_10BasicBlockEPKNS_10TargetDataE
__ZN4llvm27MergeBasicBlockIntoOnlyPredEPNS_10BasicBlockEPNS_4PassE
__ZL30AnalyzeLoadFromClobberingWritePN4llvm4TypeEPNS_5ValueES3_yRKNS_10TargetDataE
__ZSt16__introsort_loopIN9__gnu_cxx17__normal_iteratorIPN4llvm16NonLocalDepEntryESt6vectorIS3_SaIS3_EEEElEvT_S9_T0_
__ZSt22__final_insertion_sortIN9__gnu_cxx17__normal_iteratorIPN4llvm16NonLocalDepEntryESt6vectorIS3_SaIS3_EEEEEvT_S9_
__ZN4llvm8DenseMapIPNS_10BasicBlockEcNS_12DenseMapInfoIS2_EENS3_IcEEE16InsertIntoBucketERKS2_RKcPSt4pairIS2_cE
__ZN4llvm8DenseMapIPNS_10BasicBlockEcNS_12DenseMapInfoIS2_EENS3_IcEEE4growEj
__ZL28IsValueFullyAvailableInBlockPN4llvm10BasicBlockERNS_8DenseMapIS1_cNS_12DenseMapInfoIS1_EENS3_IcEEEE
__ZN4llvm8DenseMapIPNS_10BasicBlockEcNS_12DenseMapInfoIS2_EENS3_IcEEE6insertERKSt4pairIS2_cE
__ZN4llvm18GetSuccessorNumberEPNS_10BasicBlockES1_
__ZN4llvm17SplitCriticalEdgeEPNS_14TerminatorInstEjPNS_4PassEbb
__ZN4llvm14isCriticalEdgeEPKNS_14TerminatorInstEjb
__ZN4llvm17DominatorTreeBaseINS_10BasicBlockEE11addNewBlockEPS1_S3_
__ZN4llvm24MemoryDependenceAnalysis28invalidateCachedPredecessorsEv
__ZN4llvm15ValueHandleBase12ValueIsRAUWdEPNS_5ValueES2_
__ZN12_GLOBAL__N_113SimpleInliner19resetCachedCostInfoEPN4llvm8FunctionE
__ZN4llvm9CallGraph24removeFunctionFromModuleEPNS_13CallGraphNodeE
__ZNSt8_Rb_treeIPKN4llvm8FunctionESt4pairIKS3_PNS0_13CallGraphNodeEESt10_Select1stIS8_ESt4lessIS3_ESaIS8_EE5eraseESt17_Rb_tree_iteratorIS8_ESG_
__ZN4llvm21SymbolTableListTraitsINS_8FunctionENS_6ModuleEE18removeNodeFromListEPS1_
__ZNK4llvm8DenseMapIN12_GLOBAL__N_19CallValueEPNS_18ScopedHashTableValIS2_St4pairIPNS_5ValueEjEEENS_12DenseMapInfoIS2_EENSA_IS9_EEE15LookupBucketForERKS2_RPS4_IS2_S9_E
__ZN4llvm8DenseMapIN12_GLOBAL__N_19CallValueEPNS_18ScopedHashTableValIS2_St4pairIPNS_5ValueEjEEENS_12DenseMapInfoIS2_EENSA_IS9_EEE4growEj
__ZN4llvm8DenseMapIN12_GLOBAL__N_19CallValueEPNS_18ScopedHashTableValIS2_St4pairIPNS_5ValueEjEEENS_12DenseMapInfoIS2_EENSA_IS9_EEEixERKS2_
__ZN12_GLOBAL__N_19StrCmpOpt13CallOptimizerEPN4llvm8FunctionEPNS1_8CallInstERNS1_9IRBuilderILb1ENS1_14ConstantFolderENS1_24IRBuilderDefaultInserterILb1EEEEE
__ZN4llvm15GetStringLengthEPNS_5ValueE
__ZL16GetStringLengthHPN4llvm5ValueERNS_11SmallPtrSetIPNS_7PHINodeELj32EEE
__ZN4llvm8DenseMapIPNS_10BasicBlockEPNS_4LoopENS_12DenseMapInfoIS2_EENS5_IS4_EEE16InsertIntoBucketERKS2_RKS4_PSt4pairIS2_S4_E
__ZN4llvm8DenseMapIPNS_10BasicBlockEPNS_4LoopENS_12DenseMapInfoIS2_EENS5_IS4_EEE4growEj
__ZNSt6vectorIPN4llvm10BasicBlockESaIS2_EE15_M_range_insertINS0_12PredIteratorIS1_NS0_18value_use_iteratorINS0_4UserEEEEEEEvN9__gnu_cxx17__normal_iteratorIPS2_S4_EET_SF_St20forward_iterator_tag
__ZN4llvm8DenseMapIPNS_10BasicBlockEPNS_4LoopENS_12DenseMapInfoIS2_EENS5_IS4_EEE6insertERKSt4pairIS2_S4_E
__ZNSt8_Rb_treeIPN4llvm10BasicBlockESt4pairIKS2_PNS0_4LoopEESt10_Select1stIS7_ESt4lessIS2_ESaIS7_EE8_M_eraseEPSt13_Rb_tree_nodeIS7_E
__ZNSt6vectorIPN4llvm4LoopESaIS2_EE13_M_insert_auxEN9__gnu_cxx17__normal_iteratorIPS2_S4_EERKS2_
__ZL16addLoopIntoQueuePN4llvm4LoopERSt5dequeIS1_SaIS1_EE
__ZNSt5dequeIPN4llvm4LoopESaIS2_EE9push_backERKS2_
__ZN4llvm8LoopPass16doInitializationEPNS_4LoopERNS_13LPPassManagerE
__ZN12_GLOBAL__N_112LoopSimplify9runOnLoopEPN4llvm4LoopERNS1_13LPPassManagerE
__ZNK4llvm8LoopBaseINS_10BasicBlockENS_4LoopEE16getExitingBlocksERNS_15SmallVectorImplIPS1_EE
__ZSt16__introsort_loopIPPN4llvm10BasicBlockElEvT_S4_T0_
__ZSt22__final_insertion_sortIPPN4llvm10BasicBlockEEvT_S4_
__ZNK4llvm8LoopBaseINS_10BasicBlockENS_4LoopEE18getLoopPredecessorEv
__ZN4llvm22SplitBlockPredecessorsEPNS_10BasicBlockEPKS1_jPKcPNS_4PassE
__ZL25UpdateAnalysisInformationPN4llvm10BasicBlockES1_NS_8ArrayRefIS1_EEPNS_4PassERb
__ZNK4llvm4Pass22mustPreserveAnalysisIDERc
__ZN4llvm17DominatorTreeBaseINS_10BasicBlockEE5SplitIPS1_NS_11GraphTraitsIS4_EEEEvRNS0_INT0_8NodeTypeEEEPS8_
__ZN4llvm17DominatorTreeBaseINS_10BasicBlockEE26findNearestCommonDominatorEPS1_S3_
__ZN4llvm15DomTreeNodeBaseINS_10BasicBlockEE7setIDomEPS2_
__ZL14UpdatePHINodesPN4llvm10BasicBlockES1_NS_8ArrayRefIS1_EEPNS_10BranchInstEPNS_4PassEb
__ZN12_GLOBAL__N_112LoopSimplify24PlaceSplitBlockCarefullyEPN4llvm10BasicBlockERNS1_15SmallVectorImplIS3_EEPNS1_4LoopE
__ZNK4llvm8LoopBaseINS_10BasicBlockENS_4LoopEE13getExitBlocksERNS_15SmallVectorImplIPS1_EE
__ZNK4llvm8LoopBaseINS_10BasicBlockENS_4LoopEE12getLoopLatchEv
__ZNK4llvm4Loop17makeLoopInvariantEPNS_11InstructionERbS2_
__ZN12_GLOBAL__N_15LCSSA9runOnLoopEPN4llvm4LoopERNS1_13LPPassManagerE
__ZNSt6vectorIPN4llvm10BasicBlockESaIS2_EE15_M_range_insertIN9__gnu_cxx17__normal_iteratorIPKS2_S4_EEEEvNS7_IPS2_S4_EET_SD_St20forward_iterator_tag
__ZN4llvm17PredIteratorCache11GetNumPredsEPNS_10BasicBlockE
__ZN12_GLOBAL__N_110LoopRotate9runOnLoopEPN4llvm4LoopERNS1_13LPPassManagerE
__ZNK4llvm8LoopBaseINS_10BasicBlockENS_4LoopEE13isLoopExitingEPKS1_
__ZN12_GLOBAL__N_14LICM9runOnLoopEPN4llvm4LoopERNS1_13LPPassManagerE
__ZN4llvm15AliasSetTracker3addERNS_10BasicBlockE
__ZN4llvm15AliasSetTracker3addEPNS_11InstructionE
__ZN4llvm15AliasSetTracker10addUnknownEPNS_11InstructionE
__ZN4llvm15AliasSetTracker3addEPNS_8LoadInstE
__ZN4llvm15AliasSetTracker21getAliasSetForPointerEPNS_5ValueEyPKNS_6MDNodeEPb
__ZN4llvm15AliasSetTracker11getEntryForEPNS_5ValueE
__ZNK4llvm8DenseMapINS_15AliasSetTracker13ASTCallbackVHEPNS_8AliasSet10PointerRecENS1_25ASTCallbackVHDenseMapInfoENS_12DenseMapInfoIS5_EEE15LookupBucketForERKS2_RPSt4pairIS2_S5_E
__ZN4llvm15AliasSetTracker22findAliasSetForPointerEPKNS_5ValueEyPKNS_6MDNodeE
__ZN4llvm6iplistINS_8AliasSetENS_12ilist_traitsIS1_EEE9push_backEPS1_
__ZN4llvm8AliasSet10addPointerERNS_15AliasSetTrackerERNS0_10PointerRecEyPKNS_6MDNodeEb
__ZNK4llvm8AliasSet14aliasesPointerEPKNS_5ValueEyPKNS_6MDNodeERNS_13AliasAnalysisE
__ZN4llvm8DenseMapISt4pairINS_13AliasAnalysis8LocationES3_ENS2_11AliasResultENS_12DenseMapInfoIS4_EENS6_IS5_EEE4growEj
__ZN4llvm15AliasSetTracker26findAliasSetForUnknownInstEPNS_11InstructionE
__ZNK4llvm8AliasSet18aliasesUnknownInstEPNS_11InstructionERNS_13AliasAnalysisE
__ZNSt6vectorIN4llvm11AssertingVHINS0_11InstructionEEESaIS3_EE13_M_insert_auxEN9__gnu_cxx17__normal_iteratorIPS3_S5_EERKS3_
__ZNK4llvm4Loop17hasDedicatedExitsEv
__ZN12_GLOBAL__N_14LICM10SinkRegionEPN4llvm15DomTreeNodeBaseINS1_10BasicBlockEEE
__ZN12_GLOBAL__N_14LICM18canSinkOrHoistInstERN4llvm11InstructionE
__ZN12_GLOBAL__N_14LICM11HoistRegionEPN4llvm15DomTreeNodeBaseINS1_10BasicBlockEEE
__ZNK4llvm4Loop24hasLoopInvariantOperandsEPNS_11InstructionE
__ZN4llvm15AliasSetTracker5clearEv
__ZN4llvm8DenseMapINS_15AliasSetTracker13ASTCallbackVHEPNS_8AliasSet10PointerRecENS1_25ASTCallbackVHDenseMapInfoENS_12DenseMapInfoIS5_EEE16InsertIntoBucketERKS2_RKS5_PSt4pairIS2_S5_E
__ZN4llvm8DenseMapINS_15AliasSetTracker13ASTCallbackVHEPNS_8AliasSet10PointerRecENS1_25ASTCallbackVHDenseMapInfoENS_12DenseMapInfoIS5_EEE16shrink_and_clearEv
__ZN4llvm8DenseMapINS_15AliasSetTracker13ASTCallbackVHEPNS_8AliasSet10PointerRecENS1_25ASTCallbackVHDenseMapInfoENS_12DenseMapInfoIS5_EEE4findERKS2_
__ZN4llvm8DenseMapINS_15AliasSetTracker13ASTCallbackVHEPNS_8AliasSet10PointerRecENS1_25ASTCallbackVHDenseMapInfoENS_12DenseMapInfoIS5_EEE4growEj
__ZN4llvm8DenseMapINS_15AliasSetTracker13ASTCallbackVHEPNS_8AliasSet10PointerRecENS1_25ASTCallbackVHDenseMapInfoENS_12DenseMapInfoIS5_EEE4initEj
__ZN4llvm8DenseMapINS_15AliasSetTracker13ASTCallbackVHEPNS_8AliasSet10PointerRecENS1_25ASTCallbackVHDenseMapInfoENS_12DenseMapInfoIS5_EEE5beginEv
__ZN4llvm8DenseMapINS_15AliasSetTracker13ASTCallbackVHEPNS_8AliasSet10PointerRecENS1_25ASTCallbackVHDenseMapInfoENS_12DenseMapInfoIS5_EEE5clearEv
__ZN4llvm8DenseMapINS_15AliasSetTracker13ASTCallbackVHEPNS_8AliasSet10PointerRecENS1_25ASTCallbackVHDenseMapInfoENS_12DenseMapInfoIS5_EEE5eraseENS_16DenseMapIteratorIS2_S5_S6_S8_Lb0EEE
__ZN4llvm8DenseMapINS_15AliasSetTracker13ASTCallbackVHEPNS_8AliasSet10PointerRecENS1_25ASTCallbackVHDenseMapInfoENS_12DenseMapInfoIS5_EEE5eraseERKS2_
__ZN4llvm8DenseMapINS_15AliasSetTracker13ASTCallbackVHEPNS_8AliasSet10PointerRecENS1_25ASTCallbackVHDenseMapInfoENS_12DenseMapInfoIS5_EEED2Ev
__ZN4llvm15AliasSetTracker13ASTCallbackVHC1EPNS_5ValueEPS0_
__ZN4llvm15AliasSetTracker13ASTCallbackVHD1Ev
__ZN4llvm6iplistINS_8AliasSetENS_12ilist_traitsIS1_EEED2Ev
__ZN12_GLOBAL__N_112LoopUnswitch9runOnLoopEPN4llvm4LoopERNS1_13LPPassManagerE
__ZL20FindLIVLoopConditionPN4llvm5ValueEPNS_4LoopERb
__ZNK4llvm4Loop17makeLoopInvariantEPNS_5ValueERbPNS_11InstructionE
__ZN12_GLOBAL__N_112LoopUnswitch20UnswitchIfProfitableEPN4llvm5ValueEPNS1_8ConstantE
__ZN12_GLOBAL__N_112LoopUnswitch13releaseMemoryEv
__ZN4llvm8LoopPass14doFinalizationEv
__ZN12_GLOBAL__N_14LICM14doFinalizationEv
__ZN12_GLOBAL__N_114IndVarSimplify9runOnLoopEPN4llvm4LoopERNS1_13LPPassManagerE
__ZNK4llvm4Loop18isLoopSimplifyFormEv
__ZN4llvm15ScalarEvolution21getBackedgeTakenCountEPKNS_4LoopE
__ZN4llvm15ScalarEvolution20getBackedgeTakenInfoEPKNS_4LoopE
__ZN4llvm8DenseMapIPKNS_4LoopENS_15ScalarEvolution17BackedgeTakenInfoENS_12DenseMapInfoIS3_EENS6_IS5_EEE6insertERKSt4pairIS3_S5_E
__ZN4llvm8DenseMapIPKNS_4LoopENS_15ScalarEvolution17BackedgeTakenInfoENS_12DenseMapInfoIS3_EENS6_IS5_EEE16InsertIntoBucketERKS3_RKS5_PSt4pairIS3_S5_E
__ZN4llvm8DenseMapIPKNS_4LoopENS_15ScalarEvolution17BackedgeTakenInfoENS_12DenseMapInfoIS3_EENS6_IS5_EEE4growEj
__ZN4llvm15ScalarEvolution25ComputeBackedgeTakenCountEPKNS_4LoopE
__ZN4llvm15ScalarEvolution16ComputeExitLimitEPKNS_4LoopEPNS_10BasicBlockE
__ZN4llvm15ScalarEvolution24ComputeExitLimitFromCondEPKNS_4LoopEPNS_5ValueEPNS_10BasicBlockES7_
__ZN4llvm15ScalarEvolution24ComputeExitLimitFromICmpEPKNS_4LoopEPNS_8ICmpInstEPNS_10BasicBlockES7_
__ZN4llvm15ScalarEvolution35ComputeLoadConstantCompareExitLimitEPNS_8LoadInstEPNS_8ConstantEPKNS_4LoopENS_7CmpInst9PredicateE
__ZN4llvm15ScalarEvolution7getSCEVEPNS_5ValueE
__ZN4llvm8DenseMapINS_15ScalarEvolution14SCEVCallbackVHEPKNS_4SCEVENS_12DenseMapInfoIPNS_5ValueEEENS6_IS5_EEE4findERKS2_
__ZNK4llvm8DenseMapINS_15ScalarEvolution14SCEVCallbackVHEPKNS_4SCEVENS_12DenseMapInfoIPNS_5ValueEEENS6_IS5_EEE15LookupBucketForERKS2_RPSt4pairIS2_S5_E
__ZN4llvm15ScalarEvolution10createSCEVEPNS_5ValueE
__ZN4llvm15ScalarEvolution10getUnknownEPNS_5ValueE
__ZNK4llvm16FoldingSetNodeID6InternERNS_16BumpPtrAllocatorE
__ZN4llvm8DenseMapINS_15ScalarEvolution14SCEVCallbackVHEPKNS_4SCEVENS_12DenseMapInfoIPNS_5ValueEEENS6_IS5_EEE6insertERKSt4pairIS2_S5_E
__ZN4llvm8DenseMapINS_15ScalarEvolution14SCEVCallbackVHEPKNS_4SCEVENS_12DenseMapInfoIPNS_5ValueEEENS6_IS5_EEE16InsertIntoBucketERKS2_RKS5_PSt4pairIS2_S5_E
__ZN4llvm8DenseMapINS_15ScalarEvolution14SCEVCallbackVHEPKNS_4SCEVENS_12DenseMapInfoIPNS_5ValueEEENS6_IS5_EEE4growEj
__ZN4llvm15ScalarEvolution11getConstantEPNS_4TypeEyb
__ZN4llvm15ScalarEvolution11getConstantEPNS_11ConstantIntE
__ZN4llvm15ScalarEvolution14getSCEVAtScopeEPKNS_4SCEVEPKNS_4LoopE
__ZN4llvm8DenseMapIPKNS_4SCEVESt3mapIPKNS_4LoopES3_St4lessIS7_ESaISt4pairIKS7_S3_EEENS_12DenseMapInfoIS3_EENSF_ISE_EEE16FindAndConstructERKS3_
__ZN4llvm8DenseMapIPKNS_4SCEVESt3mapIPKNS_4LoopES3_St4lessIS7_ESaISt4pairIKS7_S3_EEENS_12DenseMapInfoIS3_EENSF_ISE_EEE16InsertIntoBucketERKS3_RKSE_PSA_IS3_SE_E
__ZN4llvm8DenseMapIPKNS_4SCEVESt3mapIPKNS_4LoopES3_St4lessIS7_ESaISt4pairIKS7_S3_EEENS_12DenseMapInfoIS3_EENSF_ISE_EEE4growEj
__ZNSt8_Rb_treeIPKN4llvm4LoopESt4pairIKS3_PKNS0_4SCEVEESt10_Select1stIS9_ESt4lessIS3_ESaIS9_EE8_M_eraseEPSt13_Rb_tree_nodeIS9_E
__ZNSt8_Rb_treeIPKN4llvm4LoopESt4pairIKS3_PKNS0_4SCEVEESt10_Select1stIS9_ESt4lessIS3_ESaIS9_EE16_M_insert_uniqueERKS9_
__ZN4llvm15ScalarEvolution18computeSCEVAtScopeEPKNS_4SCEVEPKNS_4LoopE
__ZN4llvm15ScalarEvolution16createNodeForPHIEPNS_7PHINodeE
__ZN4llvm15ScalarEvolution16createNodeForGEPEPNS_11GEPOperatorE
__ZNK4llvm10FoldingSetINS_4SCEVEE10NodeEqualsEPNS_14FoldingSetImpl4NodeERKNS_16FoldingSetNodeIDERS6_
__ZNK4llvm16FoldingSetNodeIDeqENS_19FoldingSetNodeIDRefE
__ZN4llvm15ScalarEvolution13getSizeOfExprEPNS_4TypeE
__ZN4llvm15ScalarEvolution23getTruncateOrSignExtendEPKNS_4SCEVEPNS_4TypeE
__ZN4llvm15ScalarEvolution10getMulExprEPKNS_4SCEVES3_NS1_11NoWrapFlagsE
__ZN4llvm15ScalarEvolution10getMulExprERNS_15SmallVectorImplIPKNS_4SCEVEEENS2_11NoWrapFlagsE
__ZN4llvm15ScalarEvolution18isKnownNonNegativeEPKNS_4SCEVE
__ZN4llvm15ScalarEvolution14getSignedRangeEPKNS_4SCEVE
__ZN4llvm15ScalarEvolution14setSignedRangeEPKNS_4SCEVERKNS_13ConstantRangeE
__ZN4llvm8DenseMapIPKNS_4SCEVENS_13ConstantRangeENS_12DenseMapInfoIS3_EENS5_IS4_EEE6insertERKSt4pairIS3_S4_E
__ZN4llvm8DenseMapIPKNS_4SCEVENS_13ConstantRangeENS_12DenseMapInfoIS3_EENS5_IS4_EEE16InsertIntoBucketERKS3_RKS4_PSt4pairIS3_S4_E
__ZN4llvm8DenseMapIPKNS_4SCEVENS_13ConstantRangeENS_12DenseMapInfoIS3_EENS5_IS4_EEE4growEj
__ZL17GroupByComplexityRN4llvm15SmallVectorImplIPKNS_4SCEVEEEPNS_8LoopInfoE
__ZNK12_GLOBAL__N_121SCEVComplexityCompare7compareEPKN4llvm4SCEVES4_
__ZN4llvm15ScalarEvolution10getAddExprEPKNS_4SCEVES3_NS1_11NoWrapFlagsE
__ZN4llvm15ScalarEvolution10getAddExprERNS_15SmallVectorImplIPKNS_4SCEVEEENS2_11NoWrapFlagsE
__ZN4llvm15ScalarEvolution15getOffsetOfExprEPNS_10StructTypeEj
__ZN4llvm15ScalarEvolution19GetMinTrailingZerosEPKNS_4SCEVE
__ZL21BuildConstantFromSCEVPKN4llvm4SCEVE
__ZN4llvm15ScalarEvolution18getLoopDispositionEPKNS_4SCEVEPKNS_4LoopE
__ZNSt8_Rb_treeIPKN4llvm4LoopESt4pairIKS3_NS0_15ScalarEvolution15LoopDispositionEESt10_Select1stIS8_ESt4lessIS3_ESaIS8_EE8_M_eraseEPSt13_Rb_tree_nodeIS8_E
__ZN4llvm15ScalarEvolution22computeLoopDispositionEPKNS_4SCEVEPKNS_4LoopE
__ZN4llvm15ScalarEvolution20SimplifyICmpOperandsERNS_7CmpInst9PredicateERPKNS_4SCEVES7_
__ZL12HasSameValuePKN4llvm4SCEVES2_
__ZN4llvm15ScalarEvolution12getMinusSCEVEPKNS_4SCEVES3_NS1_11NoWrapFlagsE
__ZN4llvm15ScalarEvolution15getNegativeSCEVEPKNS_4SCEVE
__ZN4llvm15ScalarEvolution12HowFarToZeroEPKNS_4SCEVEPKNS_4LoopE
__ZN4llvm15ScalarEvolution28ComputeExitCountExhaustivelyEPKNS_4LoopEPNS_5ValueEb
__ZL30getConstantEvolvingPHIOperandsPN4llvm11InstructionEPKNS_4LoopERNS_8DenseMapIS1_PNS_7PHINodeENS_12DenseMapInfoIS1_EENS8_IS7_EEEE
__ZN4llvm8DenseMapIPNS_11InstructionEPNS_7PHINodeENS_12DenseMapInfoIS2_EENS5_IS4_EEE16InsertIntoBucketERKS2_RKS4_PSt4pairIS2_S4_E
__ZN4llvm8DenseMapIPNS_11InstructionEPNS_7PHINodeENS_12DenseMapInfoIS2_EENS5_IS4_EEE4growEj
__ZN4llvm8DenseMapIPNS_11InstructionEPNS_8ConstantENS_12DenseMapInfoIS2_EENS5_IS4_EEE16InsertIntoBucketERKS2_RKS4_PSt4pairIS2_S4_E
__ZN4llvm8DenseMapIPNS_11InstructionEPNS_8ConstantENS_12DenseMapInfoIS2_EENS5_IS4_EEE4growEj
__ZL18EvaluateExpressionPN4llvm5ValueEPKNS_4LoopERNS_8DenseMapIPNS_11InstructionEPNS_8ConstantENS_12DenseMapInfoIS7_EENSA_IS9_EEEEPKNS_10TargetDataE
__ZN4llvm15ScalarEvolution17BackedgeTakenInfoC2ERNS_15SmallVectorImplISt4pairIPNS_10BasicBlockEPKNS_4SCEVEEEEbS8_
__ZN4llvm17simplifyUsersOfIVEPNS_7PHINodeEPNS_15ScalarEvolutionEPNS_13LPPassManagerERNS_15SmallVectorImplINS_6WeakVHEEEPNS_9IVVisitorE
__ZNK4llvm15ScalarEvolution10isSCEVableEPNS_4TypeE
__ZL11pushIVUsersPN4llvm11InstructionERNS_11SmallPtrSetIS1_Lj16EEERNS_15SmallVectorImplISt4pairIS1_S1_EEE
__ZN4llvm19SCEVCouldNotCompute7classofEPKNS_4SCEVE
__ZN4llvm12SCEVExpander19replaceCongruentIVsEPNS_4LoopEPKNS_13DominatorTreeERNS_15SmallVectorImplINS_6WeakVHEEE
__ZN4llvm8DenseMapIPKNS_4SCEVEPNS_7PHINodeENS_12DenseMapInfoIS3_EENS6_IS5_EEE16InsertIntoBucketERKS3_RKS5_PSt4pairIS3_S5_E
__ZN4llvm8DenseMapIPKNS_4SCEVEPNS_7PHINodeENS_12DenseMapInfoIS3_EENS6_IS5_EEE4growEj
__ZNSt8_Rb_treeISt4pairIPKN4llvm4SCEVEPNS1_11InstructionEES0_IKS7_NS1_11AssertingVHINS1_5ValueEEEESt10_Select1stISC_ESt4lessIS7_ESaISC_EE16_M_insert_uniqueERKSC_
__ZNSt8_Rb_treeISt4pairIPKN4llvm4SCEVEPNS1_11InstructionEES0_IKS7_NS1_11AssertingVHINS1_5ValueEEEESt10_Select1stISC_ESt4lessIS7_ESaISC_EE16_M_insert_uniqueESt17_Rb_tree_iteratorISC_ERKSC_
__ZNSt8_Rb_treeISt4pairIPKN4llvm4SCEVEPNS1_11InstructionEES0_IKS7_NS1_11AssertingVHINS1_5ValueEEEESt10_Select1stISC_ESt4lessIS7_ESaISC_EE8_M_eraseEPSt13_Rb_tree_nodeISC_E
__ZNSt8_Rb_treeIN4llvm11AssertingVHINS0_5ValueEEES3_St9_IdentityIS3_ESt4lessIS3_ESaIS3_EE8_M_eraseEPSt13_Rb_tree_nodeIS3_E
__ZN4llvm14DeleteDeadPHIsEPNS_10BasicBlockE
__ZN4llvm28RecursivelyDeleteDeadPHINodeEPNS_7PHINodeE
__ZN12_GLOBAL__N_114IndVarSimplify13releaseMemoryEv
__ZN12_GLOBAL__N_118LoopIdiomRecognize9runOnLoopEPN4llvm4LoopERNS1_13LPPassManagerE
__ZN4llvm15ScalarEvolution34hasLoopInvariantBackedgeTakenCountEPKNS_4LoopE
__ZN12_GLOBAL__N_112LoopDeletion9runOnLoopEPN4llvm4LoopERNS1_13LPPassManagerE
__ZNK4llvm4Loop19getUniqueExitBlocksERNS_15SmallVectorImplIPNS_10BasicBlockEEE
__ZN12_GLOBAL__N_110LoopUnroll9runOnLoopEPN4llvm4LoopERNS1_13LPPassManagerE
__ZN4llvm15ScalarEvolution25getSmallConstantTripCountEPNS_4LoopEPNS_10BasicBlockE
__ZN4llvm15ScalarEvolution28getSmallConstantTripMultipleEPNS_4LoopEPNS_10BasicBlockE
__ZN4llvm11SCEVUnknownD1Ev
__ZN4llvm8LoopBaseINS_10BasicBlockENS_4LoopEED2Ev
__ZL28CollectAddOperandsWithScalesRN4llvm8DenseMapIPKNS_4SCEVENS_5APIntENS_12DenseMapInfoIS3_EENS5_IS4_EEEERNS_11SmallVectorIS3_Lj8EEERS4_PKS3_mRKS4_RNS_15ScalarEvolutionE
__ZN4llvm8DenseMapIPKNS_4SCEVENS_5APIntENS_12DenseMapInfoIS3_EENS5_IS4_EEE6insertERKSt4pairIS3_S4_E
__ZN4llvm8DenseMapIPKNS_4SCEVENS_5APIntENS_12DenseMapInfoIS3_EENS5_IS4_EEE16InsertIntoBucketERKS3_RKS4_PSt4pairIS3_S4_E
__ZN4llvm8DenseMapIPKNS_4SCEVENS_5APIntENS_12DenseMapInfoIS3_EENS5_IS4_EEE4growEj
__ZNK4llvm7PHINode10clone_implEv
__ZN4llvm7PHINodeC2ERKS0_
__ZL11NegateValuePN4llvm5ValueEPNS_11InstructionE
__ZL15IsPointerOffsetPN4llvm5ValueES1_RxRKNS_10TargetDataE
__ZL18GetOffsetFromIndexPKN4llvm17GetElementPtrInstEjRbRKNS_10TargetDataE
__ZN12_GLOBAL__N_112MemsetRanges8addRangeExxPN4llvm5ValueEjPNS1_11InstructionE
__ZN12_GLOBAL__N_19StrLenOpt13CallOptimizerEPN4llvm8FunctionEPNS1_8CallInstERNS1_9IRBuilderILb1ENS1_14ConstantFolderENS1_24IRBuilderDefaultInserterILb1EEEEE
__ZN12_GLOBAL__N_113LVILatticeVal8getRangeEN4llvm13ConstantRangeE
__ZNK4llvm13ConstantRange8containsERKNS_5APIntE
__ZN4llvm15SmallVectorImplIN12_GLOBAL__N_110ValueEntryEE6insertEPS2_RKS2_
__ZL28FindSingleUseMultiplyFactorsPN4llvm5ValueERNS_15SmallVectorImplIS1_EERKNS2_IN12_GLOBAL__N_110ValueEntryEEEb
__ZN4llvm12PHITransAddr25PHITranslateWithInsertionEPNS_10BasicBlockES2_RKNS_13DominatorTreeERNS_15SmallVectorImplIPNS_11InstructionEEE
__ZN4llvm12PHITransAddr26InsertPHITranslatedSubExprEPNS_5ValueEPNS_10BasicBlockES4_RKNS_13DominatorTreeERNS_15SmallVectorImplIPNS_11InstructionEEE
__ZL20RemoveFromReverseMapIN4llvm14PointerIntPairIPKNS0_5ValueELj1EbNS0_21PointerLikeTypeTraitsIS4_EEEEEvRNS0_8DenseMapIPNS0_11InstructionENS0_11SmallPtrSetIT_Lj4EEENS0_12DenseMapInfoISA_EENSE_ISD_EEEESA_SC_
__ZN4llvm11Instruction12insertBeforeEPS0_
__ZN4llvm17DominatorTreeBaseINS_10BasicBlockEE24changeImmediateDominatorEPS1_S3_
__ZL26CreatePHIsForSplitLoopExitRN4llvm15SmallVectorImplIPNS_10BasicBlockEEES2_S2_
__ZN4llvm10BasicBlock10moveBeforeEPS0_
__ZN4llvm18ValueMapCallbackVHIPKNS_5ValueENS_10TrackingVHIS1_EENS_14ValueMapConfigIS3_EENS_12DenseMapInfoIS5_EEE19allUsesReplacedWithEPS1_
__ZN4llvm8ValueMapIPKNS_5ValueENS_10TrackingVHIS1_EENS_14ValueMapConfigIS3_EENS_12DenseMapInfoIS5_EEE6insertERKSt4pairIS3_S5_E
__ZN4llvm17DominatorTreeBaseINS_10BasicBlockEE9eraseNodeEPS1_
__ZN4llvm12LoopInfoBaseINS_10BasicBlockENS_4LoopEE11removeBlockEPS1_
__ZN4llvm15ScalarEvolution13getAddRecExprEPKNS_4SCEVES3_PKNS_4LoopENS1_11NoWrapFlagsE
__ZN4llvm15ScalarEvolution13getAddRecExprERNS_15SmallVectorImplIPKNS_4SCEVEEEPKNS_4LoopENS2_11NoWrapFlagsE
__ZN4llvm15ScalarEvolution18ForgetSymbolicNameEPNS_11InstructionEPKNS_4SCEVE
__ZNK4llvm15ScalarEvolution10hasOperandEPKNS_4SCEVES3_
__ZN4llvm15ScalarEvolution21forgetMemoizedResultsEPKNS_4SCEVE
__ZN4llvm8DenseMapIPKNS_4SCEVENS_13ConstantRangeENS_12DenseMapInfoIS3_EENS5_IS4_EEE5eraseERKS3_
__ZN4llvm8DenseMapINS_15ScalarEvolution14SCEVCallbackVHEPKNS_4SCEVENS_12DenseMapInfoIPNS_5ValueEEENS6_IS5_EEE5eraseENS_16DenseMapIteratorIS2_S5_S9_SA_Lb0EEE
__ZNK4llvm14SCEVAddRecExpr23getNumIterationsInRangeENS_13ConstantRangeERNS_15ScalarEvolutionE
__ZN4llvm15ScalarEvolution10getNotSCEVEPKNS_4SCEVE
__ZSt22__stable_sort_adaptiveIPPKN4llvm4SCEVES4_lN12_GLOBAL__N_121SCEVComplexityCompareEEvT_S7_T0_T1_T2_
__ZSt24__merge_sort_with_bufferIPPKN4llvm4SCEVES4_N12_GLOBAL__N_121SCEVComplexityCompareEEvT_S7_T0_T1_
__ZSt16__insertion_sortIPPKN4llvm4SCEVEN12_GLOBAL__N_121SCEVComplexityCompareEEvT_S7_T0_
__ZSt16__merge_adaptiveIPPKN4llvm4SCEVElS4_N12_GLOBAL__N_121SCEVComplexityCompareEEvT_S7_S7_T0_S8_T1_S8_T2_
__ZN4llvm15ScalarEvolution16HowManyLessThansEPKNS_4SCEVES3_PKNS_4LoopEb
__ZNK4llvm14SCEVAddRecExpr17getStepRecurrenceERNS_15ScalarEvolutionE
__ZN4llvm15ScalarEvolution15isKnownPositiveEPKNS_4SCEVE
__ZN4llvm15ScalarEvolution16getUnsignedRangeEPKNS_4SCEVE
__ZN4llvm15ScalarEvolution16setUnsignedRangeEPKNS_4SCEVERKNS_13ConstantRangeE
__ZNK4llvm13ConstantRange8multiplyERKS0_
__ZNK4llvm13ConstantRange3addERKS0_
__ZN4llvm15ScalarEvolution24isLoopEntryGuardedByCondEPKNS_4LoopENS_7CmpInst9PredicateEPKNS_4SCEVES8_
__ZN4llvm15ScalarEvolution13isImpliedCondENS_7CmpInst9PredicateEPKNS_4SCEVES5_PNS_5ValueEb
__ZN4llvm15ScalarEvolution27isImpliedCondOperandsHelperENS_7CmpInst9PredicateEPKNS_4SCEVES5_S5_S5_
__ZN4llvm15ScalarEvolution26isKnownPredicateWithRangesENS_7CmpInst9PredicateEPKNS_4SCEVES5_
__ZN4llvm15ScalarEvolution11getUMaxExprEPKNS_4SCEVES3_
__ZN4llvm15ScalarEvolution11getUMaxExprERNS_15SmallVectorImplIPKNS_4SCEVEEE
__ZN4llvm15ScalarEvolution10getBECountEPKNS_4SCEVES3_S3_b
__ZN4llvm15ScalarEvolution17getZeroExtendExprEPKNS_4SCEVEPNS_4TypeE
__ZN4llvm15ScalarEvolution11getUDivExprEPKNS_4SCEVES3_
__ZN12_GLOBAL__N_114SimplifyIndvar21eliminateIVComparisonEPN4llvm8ICmpInstEPNS1_5ValueE
__ZN4llvm15ScalarEvolution16isKnownPredicateENS_7CmpInst9PredicateEPKNS_4SCEVES5_
__ZN4llvm15ScalarEvolution19getNoopOrZeroExtendEPKNS_4SCEVEPNS_4TypeE
__ZNK4llvm13ConstantRange8truncateEj
__ZNK4llvm13ConstantRange11zextOrTruncEj
__ZNK4llvm13ConstantRange10zeroExtendEj
__ZNK4llvm13ConstantRange11sextOrTruncEj
__ZNK4llvm13ConstantRange10signExtendEj
__ZNK4llvm13ConstantRange16isSignWrappedSetEv
__ZNK4llvm13ConstantRange9unionWithERKS0_
__ZNK4llvm10FPToSIInst10clone_implEv
__ZNK4llvm10SIToFPInst10clone_implEv
__ZN4llvm10FPToSIInstD0Ev
__ZNK4llvm12ConstantExpr15getWithOperandsENS_8ArrayRefIPNS_8ConstantEEEPNS_4TypeE
__ZN4llvm20LoadAndStorePromoterC2ERKNS_15SmallVectorImplIPNS_11InstructionEEERNS_10SSAUpdaterENS_9StringRefE
__ZNK4llvm20LoadAndStorePromoter3runERKNS_15SmallVectorImplIPNS_11InstructionEEE
__ZN4llvm8DenseMapIPNS_10BasicBlockENS_13TinyPtrVectorIPNS_11InstructionEEENS_12DenseMapInfoIS2_EENS7_IS6_EEE16FindAndConstructERKS2_
__ZN4llvm8DenseMapIPNS_10BasicBlockENS_13TinyPtrVectorIPNS_11InstructionEEENS_12DenseMapInfoIS2_EENS7_IS6_EEE16InsertIntoBucketERKS2_RKS6_PSt4pairIS2_S6_E
__ZN4llvm8DenseMapIPNS_10BasicBlockENS_13TinyPtrVectorIPNS_11InstructionEEENS_12DenseMapInfoIS2_EENS7_IS6_EEE4growEj
__ZN4llvm13TinyPtrVectorIPNS_11InstructionEE9push_backES2_
__ZNK12_GLOBAL__N_114AllocaPromoter12isInstInListEPN4llvm11InstructionERKNS1_15SmallVectorImplIS3_EE
__ZNK12_GLOBAL__N_114AllocaPromoter15updateDebugInfoEPN4llvm11InstructionE
__ZNK4llvm20LoadAndStorePromoter20replaceLoadWithValueEPNS_8LoadInstEPNS_5ValueE
__ZN4llvm8DenseMapIPNS_10BasicBlockEPNS_5ValueENS_12DenseMapInfoIS2_EENS5_IS4_EEEC2IPSt4pairIS2_S4_EEERKT_SF_
__ZNK4llvm20LoadAndStorePromoter34doExtraRewritesBeforeFinalDeletionEv
__ZNK4llvm20LoadAndStorePromoter18instructionDeletedEPNS_11InstructionE
__ZN4llvm25ReplaceAndSimplifyAllUsesEPNS_11InstructionEPNS_5ValueEPKNS_10TargetDataEPKNS_13DominatorTreeE
__ZN4llvmL25array_pod_sort_comparatorISt4pairIPNS_10BasicBlockEPNS_5ValueEEEEiPKvS8_
__ZN12_GLOBAL__N_114LVIValueHandle19allUsesReplacedWithEPN4llvm5ValueE
__ZN12_GLOBAL__N_114LVIValueHandle7deletedEv
__ZN4llvm7APFloat9clearSignEv
__ZN4llvm7APFloat21getSmallestNormalizedERKNS_12fltSemanticsEb
__ZNSt8_Rb_treeIPN4llvm10BasicBlockESt4pairIKS2_PNS0_4LoopEESt10_Select1stIS7_ESt4lessIS2_ESaIS7_EE16_M_insert_uniqueESt17_Rb_tree_iteratorIS7_ERKS7_
__ZNSt8_Rb_treeIPN4llvm10BasicBlockESt4pairIKS2_PNS0_4LoopEESt10_Select1stIS7_ESt4lessIS2_ESaIS7_EE16_M_insert_uniqueERKS7_
__ZN4llvm8LoopBaseINS_10BasicBlockENS_4LoopEE19addBasicBlockToLoopEPS1_RNS_12LoopInfoBaseIS1_S2_EE
__ZN4llvm8DenseMapIPNS_4LoopEPNS_15AliasSetTrackerENS_12DenseMapInfoIS2_EENS5_IS4_EEE16InsertIntoBucketERKS2_RKS4_PSt4pairIS2_S4_E
__ZN4llvm8DenseMapIPNS_4LoopEPNS_15AliasSetTrackerENS_12DenseMapInfoIS2_EENS5_IS4_EEE4growEj
__ZN4llvm15AliasSetTracker3addEPNS_9StoreInstE
__ZNK4llvm4Loop15isLoopInvariantEPNS_5ValueE
__ZL19GetLinearExpressionPN4llvm5ValueERNS_5APIntES3_RN12_GLOBAL__N_113ExtensionKindERKNS_10TargetDataEj
__ZN4llvm15SmallVectorImplIN12_GLOBAL__N_116VariableGEPIndexEE9push_backERKS2_
__ZN4llvm8AliasSet18getForwardedTargetERNS_15AliasSetTrackerE
__ZNK4llvm8SExtInst10clone_implEv
__ZN4llvm15AliasSetTracker3addERKS0_
__ZThn32_N12_GLOBAL__N_118BasicAliasAnalysis13getModRefInfoEN4llvm17ImmutableCallSiteES2_
__ZN4llvm13AliasAnalysis13getModRefInfoENS_17ImmutableCallSiteES1_
__ZThn32_N12_GLOBAL__N_122TypeBasedAliasAnalysis13getModRefInfoEN4llvm17ImmutableCallSiteES2_
__ZN12_GLOBAL__N_122TypeBasedAliasAnalysis13getModRefInfoEN4llvm17ImmutableCallSiteES2_
__ZThn32_N12_GLOBAL__N_14NoAA13getModRefInfoEN4llvm17ImmutableCallSiteES2_
__ZNK4llvm11LLVMContext11getMDKindIDENS_9StringRefE
__ZN4llvm9FPExtInstD0Ev
__ZN4llvm15ScalarEvolution11getSMaxExprEPKNS_4SCEVES3_
__ZN4llvm15ScalarEvolution11getSMaxExprERNS_15SmallVectorImplIPKNS_4SCEVEEE
__ZN4llvm15ScalarEvolution18isKnownNonPositiveEPKNS_4SCEVE
__ZN12_GLOBAL__N_113WideIVVisitor9visitCastEPN4llvm8CastInstE
__ZNK4llvm15ScalarEvolution17getTypeSizeInBitsEPNS_4TypeE
__ZNK4llvm15ScalarEvolution20getEffectiveSCEVTypeEPNS_4TypeE
__ZN4llvm15ScalarEvolution17getSignExtendExprEPKNS_4SCEVEPNS_4TypeE
__ZN4llvm12SCEVExpander13expandCodeForEPKNS_4SCEVEPNS_4TypeEPNS_11InstructionE
__ZN4llvm12SCEVExpander6expandEPKNS_4SCEVE
__ZN4llvm15ScalarEvolution15isLoopInvariantEPKNS_4SCEVEPKNS_4LoopE
__ZN4llvm15ScalarEvolution26hasComputableLoopEvolutionEPKNS_4SCEVEPKNS_4LoopE
__ZN4llvm11SCEVVisitorINS_12SCEVExpanderEPNS_5ValueEE5visitEPKNS_4SCEVE
__ZN4llvm12SCEVExpander15visitAddRecExprEPKNS_14SCEVAddRecExprE
__ZN4llvm12SCEVExpander25expandAddRecExprLiterallyEPKNS_14SCEVAddRecExprE
__ZNK4llvm4SCEV7getTypeEv
__ZN4llvm15ScalarEvolution17properlyDominatesEPKNS_4SCEVEPKNS_10BasicBlockE
__ZN4llvm15ScalarEvolution19getBlockDispositionEPKNS_4SCEVEPKNS_10BasicBlockE
__ZNSt8_Rb_treeIPKN4llvm10BasicBlockESt4pairIKS3_NS0_15ScalarEvolution16BlockDispositionEESt10_Select1stIS8_ESt4lessIS3_ESaIS8_EE16_M_insert_uniqueERKS8_
__ZNSt8_Rb_treeIPKN4llvm10BasicBlockESt4pairIKS3_NS0_15ScalarEvolution16BlockDispositionEESt10_Select1stIS8_ESt4lessIS3_ESaIS8_EE16_M_insert_uniqueESt17_Rb_tree_iteratorIS8_ERKS8_
__ZNSt8_Rb_treeIPKN4llvm10BasicBlockESt4pairIKS3_NS0_15ScalarEvolution16BlockDispositionEESt10_Select1stIS8_ESt4lessIS3_ESaIS8_EE7_M_copyEPKSt13_Rb_tree_nodeIS8_EPSG_
__ZNSt8_Rb_treeIPKN4llvm10BasicBlockESt4pairIKS3_NS0_15ScalarEvolution16BlockDispositionEESt10_Select1stIS8_ESt4lessIS3_ESaIS8_EE8_M_eraseEPSt13_Rb_tree_nodeIS8_E
__ZN4llvm15ScalarEvolution23computeBlockDispositionEPKNS_4SCEVEPKNS_10BasicBlockE
__ZN4llvm15ScalarEvolution9dominatesEPKNS_4SCEVEPKNS_10BasicBlockE
__ZN4llvm12SCEVExpander25getAddRecExprPHILiterallyEPKNS_14SCEVAddRecExprEPKNS_4LoopEPNS_4TypeES8_
__ZN4llvm12SCEVExpander18restoreInsertPointEPNS_10BasicBlockENS_14ilist_iteratorINS_11InstructionEEE
__ZN4llvm12SCEVExpander18InsertNoopCastOfToEPNS_5ValueEPNS_4TypeE
__ZN4llvm9IRBuilderILb1ENS_12TargetFolderENS_24IRBuilderDefaultInserterILb1EEEE9CreatePHIEPNS_4TypeEjRKNS_5TwineE
__ZN4llvm12SCEVExpander19rememberInstructionEPNS_5ValueE
__ZNSt8_Rb_treeIN4llvm11AssertingVHINS0_5ValueEEES3_St9_IdentityIS3_ESt4lessIS3_ESaIS3_EE16_M_insert_uniqueERKS3_
__ZN4llvm12SCEVExpander11expandIVIncEPNS_7PHINodeEPNS_5ValueEPKNS_4LoopEPNS_4TypeES9_b
__ZN4llvm9IRBuilderILb1ENS_12TargetFolderENS_24IRBuilderDefaultInserterILb1EEEE9CreateAddEPNS_5ValueES6_RKNS_5TwineEbb
__ZN4llvm9IRBuilderILb1ENS_12TargetFolderENS_24IRBuilderDefaultInserterILb1EEEE23CreateInsertNUWNSWBinOpENS_11Instruction9BinaryOpsEPNS_5ValueES8_RKNS_5TwineEbb
__ZN12_GLOBAL__N_17WidenIV17pushNarrowIVUsersEPN4llvm11InstructionES3_
__ZN4llvm12SCEVExpander9hoistStepEPNS_11InstructionES2_PKNS_13DominatorTreeE
__ZL21getInsertPointForUsesPN4llvm11InstructionEPNS_5ValueEPNS_13DominatorTreeE
__ZNK4llvm4SCEV6isZeroEv
__ZL19isHighCostExpansionPKN4llvm4SCEVEPNS_10BranchInstEPNS_15ScalarEvolutionE
__ZNK4llvm4SCEV5isOneEv
__ZL20getLoopPhiForCounterPN4llvm5ValueEPNS_4LoopEPNS_13DominatorTreeE
__ZL12AlmostDeadIVPN4llvm7PHINodeEPNS_10BasicBlockEPNS_5ValueE
__ZN4llvm15ScalarEvolution15getTruncateExprEPKNS_4SCEVEPNS_4TypeE
__ZN4llvm15ScalarEvolution14SCEVCallbackVH7deletedEv
__ZN4llvm8DenseMapINS_15ScalarEvolution14SCEVCallbackVHEPKNS_4SCEVENS_12DenseMapInfoIPNS_5ValueEEENS6_IS5_EEE5eraseERKS2_
__ZN4llvm11SCEVUnknown7deletedEv
__ZN4llvm15ScalarEvolution14SCEVCallbackVH19allUsesReplacedWithEPNS_5ValueE
__ZN4llvm11SCEVUnknown19allUsesReplacedWithEPNS_5ValueE
__ZN12_GLOBAL__N_118LoopIdiomRecognize23processLoopStridedStoreEPN4llvm5ValueEjjS3_PNS1_11InstructionEPKNS1_14SCEVAddRecExprEPKNS1_4SCEVE
__ZN4llvm12SCEVExpander12visitAddExprEPKNS_11SCEVAddExprE
__ZN4llvm12SCEVExpander15getRelevantLoopEPKNS_4SCEVE
__ZN4llvm8DenseMapIPKNS_4SCEVEPKNS_4LoopENS_12DenseMapInfoIS3_EENS7_IS6_EEE6insertERKSt4pairIS3_S6_E
__ZN4llvm8DenseMapIPKNS_4SCEVEPKNS_4LoopENS_12DenseMapInfoIS3_EENS7_IS6_EEE16InsertIntoBucketERKS3_RKS6_PSt4pairIS3_S6_E
__ZN4llvm8DenseMapIPKNS_4SCEVEPKNS_4LoopENS_12DenseMapInfoIS3_EENS7_IS6_EEE4growEj
__ZSt22__stable_sort_adaptiveIPSt4pairIPKN4llvm4LoopEPKNS1_4SCEVEES9_lN12_GLOBAL__N_111LoopCompareEEvT_SC_T0_T1_T2_
__ZSt24__merge_sort_with_bufferIPSt4pairIPKN4llvm4LoopEPKNS1_4SCEVEES9_N12_GLOBAL__N_111LoopCompareEEvT_SC_T0_T1_
__ZSt16__insertion_sortIPSt4pairIPKN4llvm4LoopEPKNS1_4SCEVEEN12_GLOBAL__N_111LoopCompareEEvT_SC_T0_
__ZSt16__merge_adaptiveIPSt4pairIPKN4llvm4LoopEPKNS1_4SCEVEElS9_N12_GLOBAL__N_111LoopCompareEEvT_SC_SC_T0_SD_T1_SD_T2_
__ZNK12_GLOBAL__N_111LoopCompareclESt4pairIPKN4llvm4LoopEPKNS2_4SCEVEES9_
__ZN4llvm12SCEVExpander14expandAddToGEPEPKPKNS_4SCEVES5_PNS_11PointerTypeEPNS_4TypeEPNS_5ValueE
__ZL17FactorOutConstantRPKN4llvm4SCEVES3_S2_RNS_15ScalarEvolutionEPKNS_10TargetDataE
__ZN4llvm15SmallVectorImplIPKNS_4SCEVEEaSERKS4_
__ZL19SimplifyAddOperandsRN4llvm15SmallVectorImplIPKNS_4SCEVEEEPNS_4TypeERNS_15ScalarEvolutionE
__ZN4llvm9IRBuilderILb1ENS_12TargetFolderENS_24IRBuilderDefaultInserterILb1EEEE9CreateGEPEPNS_5ValueENS_8ArrayRefIS6_EERKNS_5TwineE
__ZL21mayLoopAccessLocationPN4llvm5ValueENS_13AliasAnalysis12ModRefResultEPNS_4LoopEPKNS_4SCEVEjRS2_PNS_11InstructionE
__ZN4llvm15ScalarEvolution23getTruncateOrZeroExtendEPKNS_4SCEVEPNS_4TypeE
__ZN4llvm12SCEVExpander11InsertBinopENS_11Instruction9BinaryOpsEPNS_5ValueES4_
__ZN4llvm9IRBuilderILb1ENS_12TargetFolderENS_24IRBuilderDefaultInserterILb1EEEE11CreateBinOpENS_11Instruction9BinaryOpsEPNS_5ValueES8_RKNS_5TwineE
__ZN4llvm9IRBuilderILb1ENS_12TargetFolderENS_24IRBuilderDefaultInserterILb1EEEE10CreateCastENS_11Instruction7CastOpsEPNS_5ValueEPNS_4TypeERKNS_5TwineE
__ZL21deleteDeadInstructionPN4llvm11InstructionERNS_15ScalarEvolutionE
__ZN4llvm15ScalarEvolution11forgetValueEPNS_5ValueE
__ZN4llvm15ScalarEvolution24getMaxBackedgeTakenCountEPKNS_4LoopE
__ZN4llvm15ScalarEvolution10forgetLoopEPKNS_4LoopE
__ZN4llvm15SmallVectorImplIPNS_15DomTreeNodeBaseINS_10BasicBlockEEEE6insertIN9__gnu_cxx17__normal_iteratorIPS4_St6vectorIS4_SaIS4_EEEEEES9_S9_T_SE_
__ZN4llvm13LPPassManager19deleteLoopFromQueueEPNS_4LoopE
__ZN4llvm8LoopInfo12updateUnloopEPNS_4LoopE
__ZN4llvm13LoopBlocksDFSC2EPNS_4LoopE
__ZNK4llvm13ConstantRange4smaxERKS0_
__ZN4llvm15ScalarEvolution16getAnyExtendExprEPKNS_4SCEVEPNS_4TypeE
__ZNSt8_Rb_treeIN4llvm5APIntESt4pairIKS1_NS0_11SmallVectorIPKNS0_4SCEVELj4EEEESt10_Select1stIS9_EN12_GLOBAL__N_112APIntCompareESaIS9_EE16_M_insert_uniqueERKS9_
__ZNSt8_Rb_treeIN4llvm5APIntESt4pairIKS1_NS0_11SmallVectorIPKNS0_4SCEVELj4EEEESt10_Select1stIS9_EN12_GLOBAL__N_112APIntCompareESaIS9_EE8_M_eraseEPSt13_Rb_tree_nodeIS9_E
__ZNSt8_Rb_treeIN4llvm5APIntESt4pairIKS1_NS0_11SmallVectorIPKNS0_4SCEVELj4EEEESt10_Select1stIS9_EN12_GLOBAL__N_112APIntCompareESaIS9_EE9_M_insertEPSt18_Rb_tree_node_baseSH_RKS9_
__ZL24getSignExtendAddRecStartPKN4llvm14SCEVAddRecExprEPNS_4TypeEPNS_15ScalarEvolutionE
__ZL23getOverflowLimitForStepPKN4llvm4SCEVEPNS_7CmpInst9PredicateEPNS_15ScalarEvolutionE
__ZN4llvm15ScalarEvolution15isKnownNegativeEPKNS_4SCEVE
__ZN4llvm12SCEVExpander13visitSMaxExprEPKNS_12SCEVSMaxExprE
__ZN4llvm9IRBuilderILb1ENS_12TargetFolderENS_24IRBuilderDefaultInserterILb1EEEE10CreateICmpENS_7CmpInst9PredicateEPNS_5ValueES8_RKNS_5TwineE
__ZN4llvm9IRBuilderILb1ENS_12TargetFolderENS_24IRBuilderDefaultInserterILb1EEEE12CreateSelectEPNS_5ValueES6_S6_RKNS_5TwineE
__ZN12_GLOBAL__N_17WidenIV9getExtendEPN4llvm5ValueEPNS1_4TypeEbPNS1_11InstructionE
__ZNK4llvm10FoldingSetINS_4SCEVEE15ComputeNodeHashEPNS_14FoldingSetImpl4NodeERNS_16FoldingSetNodeIDE
__ZNK4llvm19FoldingSetNodeIDRef11ComputeHashEv
__ZN4llvm15ScalarEvolution14SCEVCallbackVHD1Ev
__ZN4llvm12SCEVExpander12visitMulExprEPKNS_11SCEVMulExprE
__ZNK4llvm4SCEV14isAllOnesValueEv
__ZN4llvm15ScalarEvolution27isLoopBackedgeGuardedByCondEPKNS_4LoopENS_7CmpInst9PredicateEPKNS_4SCEVES8_
__ZN4llvm15ScalarEvolution14getSCEVAtScopeEPNS_5ValueEPKNS_4LoopE
__ZNK4llvm14SCEVAddRecExpr19evaluateAtIterationEPKNS_4SCEVERNS_15ScalarEvolutionE
__ZNSt8_Rb_treeIPKN4llvm4LoopESt4pairIKS3_NS0_15ScalarEvolution15LoopDispositionEESt10_Select1stIS8_ESt4lessIS3_ESaIS8_EE7_M_copyEPKSt13_Rb_tree_nodeIS8_EPSG_
__ZN12_GLOBAL__N_114IndVarSimplify14isValidRewriteEPN4llvm5ValueES3_
__ZN4llvm15ScalarEvolution14getPointerBaseEPKNS_4SCEVE
__ZN4llvm15ScalarEvolution26getUMinFromMismatchedTypesEPKNS_4SCEVES3_
__ZN4llvm12SCEVExpander13visitUMaxExprEPKNS_12SCEVUMaxExprE
__ZNSt8_Rb_treeIPKN4llvm4LoopESt4pairIKS3_PKNS0_4SCEVEESt10_Select1stIS9_ESt4lessIS3_ESaIS9_EE7_M_copyEPKSt13_Rb_tree_nodeIS9_EPSH_
__ZNK4llvm13ConstantRange4umaxERKS0_
__ZN4llvm9IRBuilderILb1ENS_14ConstantFolderENS_24IRBuilderDefaultInserterILb1EEEE9CreateGEPEPNS_5ValueES6_RKNS_5TwineE
__ZNSt8_Rb_treeIPKN4llvm4LoopESt4pairIKS3_PKNS0_4SCEVEESt10_Select1stIS9_ESt4lessIS3_ESaIS9_EE16_M_insert_uniqueESt17_Rb_tree_iteratorIS9_ERKS9_
__ZN12_GLOBAL__N_114SimplifyIndvar20eliminateIVRemainderEPN4llvm14BinaryOperatorEPNS1_5ValueEb
__ZN4llvm23SmallVectorTemplateBaseISt4pairIPNS_10BasicBlockENS_12PHITransAddrEELb0EE4growEm
__ZL32AnalyzeLoadFromClobberingMemInstPN4llvm4TypeEPNS_5ValueEPNS_12MemIntrinsicERKNS_10TargetDataE
__ZL16RemoveInstInputsPN4llvm5ValueERNS_15SmallVectorImplIPNS_11InstructionEEE
__ZSt13__heap_selectIN9__gnu_cxx17__normal_iteratorIPN4llvm16NonLocalDepEntryESt6vectorIS3_SaIS3_EEEEEvT_S9_S9_
__ZSt9make_heapIN9__gnu_cxx17__normal_iteratorIPN4llvm16NonLocalDepEntryESt6vectorIS3_SaIS3_EEEEEvT_S9_
__ZSt9sort_heapIN9__gnu_cxx17__normal_iteratorIPN4llvm16NonLocalDepEntryESt6vectorIS3_SaIS3_EEEEEvT_S9_
__ZN4llvm10SwitchInst13setSuccessorVEjPNS_10BasicBlockE
__ZN4llvm24MemoryDependenceAnalysis25getCallSiteDependencyFromENS_8CallSiteEbNS_14ilist_iteratorINS_11InstructionEEEPNS_10BasicBlockE
__ZL14getPointerSizePN4llvm5ValueERNS_13AliasAnalysisE
__ZL21DeleteDeadInstructionPN4llvm11InstructionERNS_24MemoryDependenceAnalysisEPNS_11SmallPtrSetIPNS_5ValueELj16EEE
__ZN4llvm3sys15AtomicDecrementEPVj
__ZL20RemoveFromReverseMapIPN4llvm11InstructionEEvRNS0_8DenseMapIS2_NS0_11SmallPtrSetIT_Lj4EEENS0_12DenseMapInfoIS2_EENS7_IS6_EEEES2_S5_
__ZN4llvm8AliasSet10mergeSetInERS0_RNS_15AliasSetTrackerE
__ZN4llvm8DenseMapINS_15ScalarEvolution14SCEVCallbackVHEPKNS_4SCEVENS_12DenseMapInfoIPNS_5ValueEEENS6_IS5_EEE16shrink_and_clearEv
__ZN4llvm8DenseMapIPKNS_4SCEVESt3mapIPKNS_4LoopES3_St4lessIS7_ESaISt4pairIKS7_S3_EEENS_12DenseMapInfoIS3_EENSF_ISE_EEE16shrink_and_clearEv
__ZN4llvm8DenseMapIPKNS_4SCEVENS_13ConstantRangeENS_12DenseMapInfoIS3_EENS5_IS4_EEE16shrink_and_clearEv
__ZNK4llvm12PtrToIntInst10clone_implEv
__ZN4llvm8DenseMapIPNS_5ValueEjNS_12DenseMapInfoIS2_EENS3_IjEEE6insertERKSt4pairIS2_jE
__ZNK4llvm9TruncInst10clone_implEv
__ZNK4llvm8LoopBaseINS_10BasicBlockENS_4LoopEE15getNumBackEdgesEv
__ZN4llvm13LPPassManager19insertLoopIntoQueueEPNS_4LoopE
__ZNSt8_Rb_treeIPN4llvm10BasicBlockES2_St9_IdentityIS2_ESt4lessIS2_ESaIS2_EE16_M_insert_uniqueERKS2_
__ZN4llvm12LoopInfoBaseINS_10BasicBlockENS_4LoopEE13changeLoopForEPS1_PS2_
__ZNSt8_Rb_treeIPN4llvm10BasicBlockES2_St9_IdentityIS2_ESt4lessIS2_ESaIS2_EE8_M_eraseEPSt13_Rb_tree_nodeIS2_E
__ZNK4llvm8ZExtInst10clone_implEv
__ZNK4llvm10AllocaInst10clone_implEv
__ZN4llvm10AllocaInstC2EPNS_4TypeEPNS_5ValueEjRKNS_5TwineEPNS_11InstructionE
__ZL22isUsedByLifetimeMarkerPN4llvm5ValueE
__ZN4llvm13IRBuilderBase19CreateLifetimeStartEPNS_5ValueEPNS_11ConstantIntE
__ZN4llvm13IRBuilderBase17CreateLifetimeEndEPNS_5ValueEPNS_11ConstantIntE
__ZN4llvm8DenseMapIPNS_9ArrayTypeESt6vectorIPNS_10AllocaInstESaIS5_EENS_12DenseMapInfoIS2_EENS8_IS7_EEE16FindAndConstructERKS2_
__ZN4llvm8DenseMapIPNS_9ArrayTypeESt6vectorIPNS_10AllocaInstESaIS5_EENS_12DenseMapInfoIS2_EENS8_IS7_EEE16InsertIntoBucketERKS2_RKS7_PSt4pairIS2_S7_E
__ZN4llvm8DenseMapIPNS_9ArrayTypeESt6vectorIPNS_10AllocaInstESaIS5_EENS_12DenseMapInfoIS2_EENS8_IS7_EEE4growEj
__ZN12_GLOBAL__N_19MemCmpOpt13CallOptimizerEPN4llvm8FunctionEPNS1_8CallInstERNS1_9IRBuilderILb1ENS1_14ConstantFolderENS1_24IRBuilderDefaultInserterILb1EEEEE
__ZN4llvm23SmallVectorTemplateBaseINS_6WeakVHELb0EE4growEm
__ZN4llvm15AliasSetTracker14removeAliasSetEPNS_8AliasSetE
__ZN4llvm14SSAUpdaterImplINS_10SSAUpdaterEE17RecordMatchingPHIEPNS_7PHINodeE
__ZNK4llvm10SwitchInst10clone_implEv
__ZN4llvm10SwitchInstC2ERKS0_
__ZN4llvm13AliasAnalysis13getModRefInfoEPKNS_8LoadInstERKNS0_8LocationE
__ZN4llvm9CallGraph19getOrInsertFunctionEPKNS_8FunctionE
__ZN12_GLOBAL__N_14LICM21isGuaranteedToExecuteERN4llvm11InstructionE
__ZNK12_GLOBAL__N_112LoopPromoter12isInstInListEPN4llvm11InstructionERKNS1_15SmallVectorImplIS3_EE
__ZNK4llvm20LoadAndStorePromoter15updateDebugInfoEPNS_11InstructionE
__ZN4llvm28GetFirstDebugLocInBasicBlockEPKNS_10BasicBlockE
__ZNK12_GLOBAL__N_112LoopPromoter20replaceLoadWithValueEPN4llvm8LoadInstEPNS1_5ValueE
__ZN4llvm15AliasSetTracker9copyValueEPNS_5ValueES2_
__ZNK12_GLOBAL__N_112LoopPromoter34doExtraRewritesBeforeFinalDeletionEv
__ZNK12_GLOBAL__N_112LoopPromoter18instructionDeletedEPN4llvm11InstructionE
__ZN4llvm15AliasSetTracker11deleteValueEPNS_5ValueE
__ZN4llvm15ScalarEvolution33getConstantEvolutionLoopExitValueEPNS_7PHINodeERKNS_5APIntEPKNS_4LoopE
__ZN4llvm8DenseMapIPNS_7PHINodeEPNS_8ConstantENS_12DenseMapInfoIS2_EENS5_IS4_EEE16InsertIntoBucketERKS2_RKS4_PSt4pairIS2_S4_E
__ZN4llvm8DenseMapIPNS_7PHINodeEPNS_8ConstantENS_12DenseMapInfoIS2_EENS5_IS4_EEE4growEj
__ZL22GetMemInstValueForLoadPN4llvm12MemIntrinsicEjPNS_4TypeEPNS_11InstructionERKNS_10TargetDataE
__ZL30CoerceAvailableValueToLoadTypePN4llvm5ValueEPNS_4TypeEPNS_11InstructionERKNS_10TargetDataE
__ZN4llvm12IntToPtrInstC1EPNS_5ValueEPNS_4TypeERKNS_5TwineEPNS_11InstructionE
__ZN4llvm13AliasAnalysis18getLocationForDestEPKNS_12MemIntrinsicE
__ZN4llvm26FoldReturnIntoUncondBranchEPNS_10ReturnInstEPNS_10BasicBlockES3_
__ZN12_GLOBAL__N_112TailCallElim26EliminateRecursiveTailCallEPN4llvm8CallInstEPNS1_10ReturnInstERPNS1_10BasicBlockERbRNS1_11SmallVectorIPNS1_7PHINodeELj8EEEb
__ZNK4llvm13ConstantRange4udivERKS0_
__ZNK4llvm10SelectInst10clone_implEv
__ZN4llvm13AliasAnalysis20getLocationForSourceEPKNS_15MemTransferInstE
__ZN4llvm13CallGraphNode15replaceCallEdgeENS_8CallSiteES1_PS0_
__ZN4llvm8DenseMapIPNS_5ValueEcNS_12DenseMapInfoIS2_EENS3_IcEEE6insertERKSt4pairIS2_cE
__ZN4llvm8DenseMapIPNS_5ValueEcNS_12DenseMapInfoIS2_EENS3_IcEEE16InsertIntoBucketERKS2_RKcPSt4pairIS2_cE
__ZN4llvm8DenseMapIPNS_5ValueEcNS_12DenseMapInfoIS2_EENS3_IcEEE4growEj
__ZN4llvm8DenseMapISt4pairINS_11AssertingVHINS_10BasicBlockEEEPNS_5ValueEEcNS_12DenseMapInfoIS7_EENS8_IcEEE4findERKS7_
__ZNSt6vectorIPN4llvm10BasicBlockESaIS2_EE15_M_range_insertINS0_12SuccIteratorIPNS0_14TerminatorInstES1_EEEEvN9__gnu_cxx17__normal_iteratorIPS2_S4_EET_SE_St20forward_iterator_tag
__ZNSt6vectorIN4llvm11AssertingVHINS0_11InstructionEEESaIS3_EE15_M_range_insertIN9__gnu_cxx17__normal_iteratorIPS3_S5_EEEEvSA_T_SB_St20forward_iterator_tag
__ZN4llvm12ConstantExpr9getSelectEPNS_8ConstantES2_S2_
__ZN4llvm29ConstantFoldSelectInstructionEPNS_8ConstantES1_S1_
__ZN4llvm10AllocaInstC1EPNS_4TypeEPNS_5ValueEjRKNS_5TwineEPNS_11InstructionE
